
./Output/main.elf:     file format elf32-littlearm

Disassembly of section .start.text:

30000000 <_start>:
30000000:	ea00000e 	b	30000040 <reset>
30000004:	e59ff014 	ldr	pc, [pc, #20]	; 30000020 <_undefined_instruction>
30000008:	e59ff014 	ldr	pc, [pc, #20]	; 30000024 <_software_interrupt>
3000000c:	e59ff014 	ldr	pc, [pc, #20]	; 30000028 <_prefetch_abort>
30000010:	e59ff014 	ldr	pc, [pc, #20]	; 3000002c <_data_abort>
30000014:	e59ff014 	ldr	pc, [pc, #20]	; 30000030 <_not_used>
30000018:	e59ff014 	ldr	pc, [pc, #20]	; 30000034 <_irq>
3000001c:	e59ff014 	ldr	pc, [pc, #20]	; 30000038 <_fiq>

30000020 <_undefined_instruction>:
30000020:	300000e0 	andcc	r0, r0, r0, ror #1

30000024 <_software_interrupt>:
30000024:	30000120 	andcc	r0, r0, r0, lsr #2

30000028 <_prefetch_abort>:
30000028:	300000d0 	ldrccd	r0, [r0], -r0

3000002c <_data_abort>:
3000002c:	300000d0 	ldrccd	r0, [r0], -r0

30000030 <_not_used>:
30000030:	300000d0 	ldrccd	r0, [r0], -r0

30000034 <_irq>:
30000034:	30000170 	andcc	r0, r0, r0, ror r1

30000038 <_fiq>:
30000038:	300000d0 	ldrccd	r0, [r0], -r0
3000003c:	00000000 	andeq	r0, r0, r0

30000040 <reset>:
30000040:	e3a00453 	mov	r0, #1392508928	; 0x53000000
30000044:	e3a01000 	mov	r1, #0	; 0x0
30000048:	e5801000 	str	r1, [r0]
3000004c:	e3a00313 	mov	r0, #1275068416	; 0x4c000000
30000050:	e3e01000 	mvn	r1, #0	; 0x0
30000054:	e5801000 	str	r1, [r0]
30000058:	e59f0124 	ldr	r0, [pc, #292]	; 30000184 <.start.text+0x184>
3000005c:	e3a01005 	mov	r1, #5	; 0x5
30000060:	e5801000 	str	r1, [r0]
30000064:	ee110f10 	mrc	15, 0, r0, cr1, cr0, {0}
30000068:	e3800103 	orr	r0, r0, #-1073741824	; 0xc0000000
3000006c:	ee010f10 	mcr	15, 0, r0, cr1, cr0, {0}
30000070:	e59f0110 	ldr	r0, [pc, #272]	; 30000188 <.start.text+0x188>
30000074:	e59f1110 	ldr	r1, [pc, #272]	; 3000018c <.start.text+0x18c>
30000078:	e5801000 	str	r1, [r0]
3000007c:	e3a01000 	mov	r1, #0	; 0x0
30000080:	e5910000 	ldr	r0, [r1]
30000084:	e5811000 	str	r1, [r1]
30000088:	e5912000 	ldr	r2, [r1]
3000008c:	e1510002 	cmp	r1, r2
30000090:	e59fd0f8 	ldr	sp, [pc, #248]	; 30000190 <.start.text+0x190>
30000094:	03a0da01 	moveq	sp, #4096	; 0x1000
30000098:	05810000 	streq	r0, [r1]
3000009c:	eb000043 	bl	300001b0 <S3C2440_Initialized_NandFlash>
300000a0:	eb000047 	bl	300001c4 <S3C2440_Initialized_NorFlash>
300000a4:	eb00004b 	bl	300001d8 <S3C2440_Initialized_SDRAM>
300000a8:	eb00006c 	bl	30000260 <S3C2440_Initialized_CopyCodeData>
300000ac:	eb00008a 	bl	300002dc <S3C2440_Initialized_CleanBssData>
300000b0:	e10f0000 	mrs	r0, CPSR
300000b4:	e3c0001f 	bic	r0, r0, #31	; 0x1f
300000b8:	e3800010 	orr	r0, r0, #16	; 0x10
300000bc:	e3c00080 	bic	r0, r0, #128	; 0x80
300000c0:	e121f000 	msr	CPSR_c, r0
300000c4:	e3a0d30d 	mov	sp, #872415232	; 0x34000000
300000c8:	e59ff0c4 	ldr	pc, [pc, #196]	; 30000194 <.start.text+0x194>

300000cc <sdramCode>:
300000cc:	e59ff0c4 	ldr	pc, [pc, #196]	; 30000198 <.start.text+0x198>

300000d0 <halt>:
300000d0:	eafffffe 	b	300000d0 <halt>
	...

300000e0 <undefined_instruction>:
300000e0:	e59fd0b4 	ldr	sp, [pc, #180]	; 3000019c <.start.text+0x19c>
300000e4:	e92d5fff 	stmdb	sp!, {r0, r1, r2, r3, r4, r5, r6, r7, r8, r9, sl, fp, ip, lr}
300000e8:	e10f0000 	mrs	r0, CPSR
300000ec:	e59f10ac 	ldr	r1, [pc, #172]	; 300001a0 <.start.text+0x1a0>
300000f0:	eb0003ce 	bl	30001030 <printException>
300000f4:	e8fd9fff 	ldmia	sp!, {r0, r1, r2, r3, r4, r5, r6, r7, r8, r9, sl, fp, ip, pc}^

300000f8 <undefInstructionString>:
300000f8:	65646e55 	strvsb	r6, [r4, #-3669]!
300000fc:	656e6966 	strvsb	r6, [lr, #-2406]!
30000100:	6e692064 	cdpvs	0, 6, cr2, cr9, cr4, {3}
30000104:	75727473 	ldrvcb	r7, [r2, #-1139]!
30000108:	6f697463 	swivs	0x00697463
3000010c:	7845206e 	stmvcda	r5, {r1, r2, r3, r5, r6, sp}^
30000110:	74706365 	ldrvcbt	r6, [r0], #-869
30000114:	006e6f69 	rsbeq	r6, lr, r9, ror #30
	...

30000120 <software_interrupt>:
30000120:	e59fd07c 	ldr	sp, [pc, #124]	; 300001a4 <.start.text+0x1a4>
30000124:	e92d5fff 	stmdb	sp!, {r0, r1, r2, r3, r4, r5, r6, r7, r8, r9, sl, fp, ip, lr}
30000128:	e1a0400e 	mov	r4, lr
3000012c:	e10f0000 	mrs	r0, CPSR
30000130:	e59f1070 	ldr	r1, [pc, #112]	; 300001a8 <.start.text+0x1a8>
30000134:	eb0003bd 	bl	30001030 <printException>
30000138:	e1a00004 	mov	r0, r4
3000013c:	e2400004 	sub	r0, r0, #4	; 0x4
30000140:	eb0003d4 	bl	30001098 <printSWIVal>
30000144:	e8fd9fff 	ldmia	sp!, {r0, r1, r2, r3, r4, r5, r6, r7, r8, r9, sl, fp, ip, pc}^

30000148 <softwareInterruptString>:
30000148:	74666f53 	strvcbt	r6, [r6], #-3923
3000014c:	65726177 	ldrvsb	r6, [r2, #-375]!
30000150:	746e4920 	strvcbt	r4, [lr], #-2336
30000154:	75727265 	ldrvcb	r7, [r2, #-613]!
30000158:	45207470 	strmi	r7, [r0, #-1136]!
3000015c:	70636578 	rsbvc	r6, r3, r8, ror r5
30000160:	6e6f6974 	mcrvs	9, 3, r6, cr15, cr4, {3}
	...

30000170 <irq>:
30000170:	e59fd034 	ldr	sp, [pc, #52]	; 300001ac <.start.text+0x1ac>
30000174:	e24ee004 	sub	lr, lr, #4	; 0x4
30000178:	e92d5fff 	stmdb	sp!, {r0, r1, r2, r3, r4, r5, r6, r7, r8, r9, sl, fp, ip, lr}
3000017c:	eb000087 	bl	300003a0 <S3C2440_IRQHandler>
30000180:	e8fd9fff 	ldmia	sp!, {r0, r1, r2, r3, r4, r5, r6, r7, r8, r9, sl, fp, ip, pc}^
30000184:	4c000014 	stcmi	0, cr0, [r0], {20}
30000188:	4c000004 	stcmi	0, cr0, [r0], {4}
3000018c:	0005c011 	andeq	ip, r5, r1, lsl r0
30000190:	40001000 	andmi	r1, r0, r0
30000194:	300000cc 	andcc	r0, r0, ip, asr #1
30000198:	3000112c 	andcc	r1, r0, ip, lsr #2
3000019c:	33f00000 	mvnccs	r0, #0	; 0x0
300001a0:	300000f8 	strccd	r0, [r0], -r8
300001a4:	33e00000 	mvncc	r0, #0	; 0x0
300001a8:	30000148 	andcc	r0, r0, r8, asr #2
300001ac:	33d00000 	bicccs	r0, r0, #0	; 0x0
Disassembly of section .init.text:

300001b0 <S3C2440_Initialized_NandFlash>:
300001b0:	e1a0c00d 	mov	ip, sp
300001b4:	e92dd800 	stmdb	sp!, {fp, ip, lr, pc}
300001b8:	e24cb004 	sub	fp, ip, #4	; 0x4
300001bc:	eb0000d7 	bl	30000520 <S3C2440_NandFlashInitialized>
300001c0:	e89da800 	ldmia	sp, {fp, sp, pc}

300001c4 <S3C2440_Initialized_NorFlash>:
300001c4:	e1a0c00d 	mov	ip, sp
300001c8:	e92dd800 	stmdb	sp!, {fp, ip, lr, pc}
300001cc:	e24cb004 	sub	fp, ip, #4	; 0x4
300001d0:	eb000277 	bl	30000bb4 <S3C2440_NorFlashInitialized>
300001d4:	e89da800 	ldmia	sp, {fp, sp, pc}

300001d8 <S3C2440_Initialized_SDRAM>:
300001d8:	e1a0c00d 	mov	ip, sp
300001dc:	e92dd800 	stmdb	sp!, {fp, ip, lr, pc}
300001e0:	e24cb004 	sub	fp, ip, #4	; 0x4
300001e4:	eb000088 	bl	3000040c <S3C2440_SDRAMInitialized>
300001e8:	e89da800 	ldmia	sp, {fp, sp, pc}

300001ec <S3C2440_Initialized_CheckBootFromNorFlashOrNandFlash>:
300001ec:	e1a0c00d 	mov	ip, sp
300001f0:	e92dd800 	stmdb	sp!, {fp, ip, lr, pc}
300001f4:	e24cb004 	sub	fp, ip, #4	; 0x4
300001f8:	e24dd00c 	sub	sp, sp, #12	; 0xc
300001fc:	e3a03000 	mov	r3, #0	; 0x0
30000200:	e50b3010 	str	r3, [fp, #-16]
30000204:	e51b3010 	ldr	r3, [fp, #-16]
30000208:	e5933000 	ldr	r3, [r3]
3000020c:	e50b3014 	str	r3, [fp, #-20]
30000210:	e51b2010 	ldr	r2, [fp, #-16]
30000214:	e59f3040 	ldr	r3, [pc, #64]	; 3000025c <.init.text+0xac>
30000218:	e5823000 	str	r3, [r2]
3000021c:	e51b3010 	ldr	r3, [fp, #-16]
30000220:	e5932000 	ldr	r2, [r3]
30000224:	e59f3030 	ldr	r3, [pc, #48]	; 3000025c <.init.text+0xac>
30000228:	e1520003 	cmp	r2, r3
3000022c:	1a000005 	bne	30000248 <S3C2440_Initialized_CheckBootFromNorFlashOrNandFlash+0x5c>
30000230:	e51b2010 	ldr	r2, [fp, #-16]
30000234:	e51b3014 	ldr	r3, [fp, #-20]
30000238:	e5823000 	str	r3, [r2]
3000023c:	e3a03000 	mov	r3, #0	; 0x0
30000240:	e50b3018 	str	r3, [fp, #-24]
30000244:	ea000001 	b	30000250 <S3C2440_Initialized_CheckBootFromNorFlashOrNandFlash+0x64>
30000248:	e3a03001 	mov	r3, #1	; 0x1
3000024c:	e50b3018 	str	r3, [fp, #-24]
30000250:	e51b0018 	ldr	r0, [fp, #-24]
30000254:	e24bd00c 	sub	sp, fp, #12	; 0xc
30000258:	e89da800 	ldmia	sp, {fp, sp, pc}
3000025c:	12345678 	eornes	r5, r4, #125829120	; 0x7800000

30000260 <S3C2440_Initialized_CopyCodeData>:
30000260:	e1a0c00d 	mov	ip, sp
30000264:	e92dd800 	stmdb	sp!, {fp, ip, lr, pc}
30000268:	e24cb004 	sub	fp, ip, #4	; 0x4
3000026c:	e24dd010 	sub	sp, sp, #16	; 0x10
30000270:	e59f305c 	ldr	r3, [pc, #92]	; 300002d4 <.init.text+0x124>
30000274:	e50b3010 	str	r3, [fp, #-16]
30000278:	e59f3058 	ldr	r3, [pc, #88]	; 300002d8 <.init.text+0x128>
3000027c:	e50b3014 	str	r3, [fp, #-20]
30000280:	e3a03000 	mov	r3, #0	; 0x0
30000284:	e50b3018 	str	r3, [fp, #-24]
30000288:	e59f2048 	ldr	r2, [pc, #72]	; 300002d8 <.init.text+0x128>
3000028c:	e59f3040 	ldr	r3, [pc, #64]	; 300002d4 <.init.text+0x124>
30000290:	e0633002 	rsb	r3, r3, r2
30000294:	e50b301c 	str	r3, [fp, #-28]
30000298:	ebffffd3 	bl	300001ec <S3C2440_Initialized_CheckBootFromNorFlashOrNandFlash>
3000029c:	e1a03000 	mov	r3, r0
300002a0:	e3530000 	cmp	r3, #0	; 0x0
300002a4:	0a000004 	beq	300002bc <S3C2440_Initialized_CopyCodeData+0x5c>
300002a8:	e51b0018 	ldr	r0, [fp, #-24]
300002ac:	e51b1010 	ldr	r1, [fp, #-16]
300002b0:	e51b201c 	ldr	r2, [fp, #-28]
300002b4:	eb0002d4 	bl	30000e0c <S3C2440_NorFlash_Read>
300002b8:	ea000003 	b	300002cc <S3C2440_Initialized_CopyCodeData+0x6c>
300002bc:	e51b0018 	ldr	r0, [fp, #-24]
300002c0:	e51b1010 	ldr	r1, [fp, #-16]
300002c4:	e51b201c 	ldr	r2, [fp, #-28]
300002c8:	eb000195 	bl	30000924 <S3C2440_NandFlash_Read>
300002cc:	e24bd00c 	sub	sp, fp, #12	; 0xc
300002d0:	e89da800 	ldmia	sp, {fp, sp, pc}
300002d4:	30000000 	andcc	r0, r0, r0
300002d8:	30006c88 	andcc	r6, r0, r8, lsl #25

300002dc <S3C2440_Initialized_CleanBssData>:
300002dc:	e1a0c00d 	mov	ip, sp
300002e0:	e92dd800 	stmdb	sp!, {fp, ip, lr, pc}
300002e4:	e24cb004 	sub	fp, ip, #4	; 0x4
300002e8:	e24dd008 	sub	sp, sp, #8	; 0x8
300002ec:	e59f3040 	ldr	r3, [pc, #64]	; 30000334 <.init.text+0x184>
300002f0:	e50b3010 	str	r3, [fp, #-16]
300002f4:	e59f303c 	ldr	r3, [pc, #60]	; 30000338 <.init.text+0x188>
300002f8:	e50b3014 	str	r3, [fp, #-20]
300002fc:	e51b2010 	ldr	r2, [fp, #-16]
30000300:	e51b3014 	ldr	r3, [fp, #-20]
30000304:	e1520003 	cmp	r2, r3
30000308:	8a000007 	bhi	3000032c <S3C2440_Initialized_CleanBssData+0x50>
3000030c:	e24b0010 	sub	r0, fp, #16	; 0x10
30000310:	e5903000 	ldr	r3, [r0]
30000314:	e1a01003 	mov	r1, r3
30000318:	e3a02000 	mov	r2, #0	; 0x0
3000031c:	e5812000 	str	r2, [r1]
30000320:	e2833004 	add	r3, r3, #4	; 0x4
30000324:	e5803000 	str	r3, [r0]
30000328:	eafffff3 	b	300002fc <S3C2440_Initialized_CleanBssData+0x20>
3000032c:	e24bd00c 	sub	sp, fp, #12	; 0xc
30000330:	e89da800 	ldmia	sp, {fp, sp, pc}
30000334:	30006c88 	andcc	r6, r0, r8, lsl #25
30000338:	30007008 	andcc	r7, r0, r8

3000033c <S3C2440_IRQRegister>:
3000033c:	e1a0c00d 	mov	ip, sp
30000340:	e92dd800 	stmdb	sp!, {fp, ip, lr, pc}
30000344:	e24cb004 	sub	fp, ip, #4	; 0x4
30000348:	e24dd008 	sub	sp, sp, #8	; 0x8
3000034c:	e1a03000 	mov	r3, r0
30000350:	e50b1014 	str	r1, [fp, #-20]
30000354:	e54b300d 	strb	r3, [fp, #-13]
30000358:	e59f103c 	ldr	r1, [pc, #60]	; 3000039c <.init.text+0x1ec>
3000035c:	e55b200d 	ldrb	r2, [fp, #-13]
30000360:	e51b3014 	ldr	r3, [fp, #-20]
30000364:	e7813102 	str	r3, [r1, r2, lsl #2]
30000368:	e3a0044a 	mov	r0, #1241513984	; 0x4a000000
3000036c:	e2800008 	add	r0, r0, #8	; 0x8
30000370:	e3a0244a 	mov	r2, #1241513984	; 0x4a000000
30000374:	e2822008 	add	r2, r2, #8	; 0x8
30000378:	e55b100d 	ldrb	r1, [fp, #-13]
3000037c:	e3a03001 	mov	r3, #1	; 0x1
30000380:	e1a03113 	mov	r3, r3, lsl r1
30000384:	e1e01003 	mvn	r1, r3
30000388:	e5923000 	ldr	r3, [r2]
3000038c:	e0033001 	and	r3, r3, r1
30000390:	e5803000 	str	r3, [r0]
30000394:	e24bd00c 	sub	sp, fp, #12	; 0xc
30000398:	e89da800 	ldmia	sp, {fp, sp, pc}
3000039c:	30006c88 	andcc	r6, r0, r8, lsl #25

300003a0 <S3C2440_IRQHandler>:
300003a0:	e1a0c00d 	mov	ip, sp
300003a4:	e92dd800 	stmdb	sp!, {fp, ip, lr, pc}
300003a8:	e24cb004 	sub	fp, ip, #4	; 0x4
300003ac:	e24dd004 	sub	sp, sp, #4	; 0x4
300003b0:	e3a0344a 	mov	r3, #1241513984	; 0x4a000000
300003b4:	e2833014 	add	r3, r3, #20	; 0x14
300003b8:	e5933000 	ldr	r3, [r3]
300003bc:	e50b3010 	str	r3, [fp, #-16]
300003c0:	e59f2040 	ldr	r2, [pc, #64]	; 30000408 <.init.text+0x258>
300003c4:	e51b3010 	ldr	r3, [fp, #-16]
300003c8:	e7923103 	ldr	r3, [r2, r3, lsl #2]
300003cc:	e51b0010 	ldr	r0, [fp, #-16]
300003d0:	e1a0e00f 	mov	lr, pc
300003d4:	e1a0f003 	mov	pc, r3
300003d8:	e3a0144a 	mov	r1, #1241513984	; 0x4a000000
300003dc:	e3a02001 	mov	r2, #1	; 0x1
300003e0:	e51b3010 	ldr	r3, [fp, #-16]
300003e4:	e1a03312 	mov	r3, r2, lsl r3
300003e8:	e5813000 	str	r3, [r1]
300003ec:	e3a0244a 	mov	r2, #1241513984	; 0x4a000000
300003f0:	e2822010 	add	r2, r2, #16	; 0x10
300003f4:	e3a01001 	mov	r1, #1	; 0x1
300003f8:	e51b3010 	ldr	r3, [fp, #-16]
300003fc:	e1a03311 	mov	r3, r1, lsl r3
30000400:	e5823000 	str	r3, [r2]
30000404:	e89da808 	ldmia	sp, {r3, fp, sp, pc}
30000408:	30006c88 	andcc	r6, r0, r8, lsl #25

3000040c <S3C2440_SDRAMInitialized>:
3000040c:	e1a0c00d 	mov	ip, sp
30000410:	e92dd800 	stmdb	sp!, {fp, ip, lr, pc}
30000414:	e24cb004 	sub	fp, ip, #4	; 0x4
30000418:	e3a02312 	mov	r2, #1207959552	; 0x48000000
3000041c:	e3a03312 	mov	r3, #1207959552	; 0x48000000
30000420:	e5933000 	ldr	r3, [r3]
30000424:	e3c3340f 	bic	r3, r3, #251658240	; 0xf000000
30000428:	e5823000 	str	r3, [r2]
3000042c:	e3a02312 	mov	r2, #1207959552	; 0x48000000
30000430:	e3a03312 	mov	r3, #1207959552	; 0x48000000
30000434:	e5933000 	ldr	r3, [r3]
30000438:	e3c3320f 	bic	r3, r3, #-268435456	; 0xf0000000
3000043c:	e5823000 	str	r3, [r2]
30000440:	e3a02312 	mov	r2, #1207959552	; 0x48000000
30000444:	e3a03312 	mov	r3, #1207959552	; 0x48000000
30000448:	e5933000 	ldr	r3, [r3]
3000044c:	e3833422 	orr	r3, r3, #570425344	; 0x22000000
30000450:	e5823000 	str	r3, [r2]
30000454:	e3a02312 	mov	r2, #1207959552	; 0x48000000
30000458:	e282201c 	add	r2, r2, #28	; 0x1c
3000045c:	e3a03312 	mov	r3, #1207959552	; 0x48000000
30000460:	e283301c 	add	r3, r3, #28	; 0x1c
30000464:	e5933000 	ldr	r3, [r3]
30000468:	e3c33906 	bic	r3, r3, #98304	; 0x18000
3000046c:	e3c3300f 	bic	r3, r3, #15	; 0xf
30000470:	e5823000 	str	r3, [r2]
30000474:	e3a02312 	mov	r2, #1207959552	; 0x48000000
30000478:	e282201c 	add	r2, r2, #28	; 0x1c
3000047c:	e3a03312 	mov	r3, #1207959552	; 0x48000000
30000480:	e283301c 	add	r3, r3, #28	; 0x1c
30000484:	e5933000 	ldr	r3, [r3]
30000488:	e3833906 	orr	r3, r3, #98304	; 0x18000
3000048c:	e3833001 	orr	r3, r3, #1	; 0x1
30000490:	e5823000 	str	r3, [r2]
30000494:	e3a02312 	mov	r2, #1207959552	; 0x48000000
30000498:	e2822020 	add	r2, r2, #32	; 0x20
3000049c:	e3a03312 	mov	r3, #1207959552	; 0x48000000
300004a0:	e2833020 	add	r3, r3, #32	; 0x20
300004a4:	e5933000 	ldr	r3, [r3]
300004a8:	e3c33906 	bic	r3, r3, #98304	; 0x18000
300004ac:	e3c3300f 	bic	r3, r3, #15	; 0xf
300004b0:	e5823000 	str	r3, [r2]
300004b4:	e3a02312 	mov	r2, #1207959552	; 0x48000000
300004b8:	e2822020 	add	r2, r2, #32	; 0x20
300004bc:	e3a03312 	mov	r3, #1207959552	; 0x48000000
300004c0:	e2833020 	add	r3, r3, #32	; 0x20
300004c4:	e5933000 	ldr	r3, [r3]
300004c8:	e3833906 	orr	r3, r3, #98304	; 0x18000
300004cc:	e3833001 	orr	r3, r3, #1	; 0x1
300004d0:	e5823000 	str	r3, [r2]
300004d4:	e3a02312 	mov	r2, #1207959552	; 0x48000000
300004d8:	e2822024 	add	r2, r2, #36	; 0x24
300004dc:	e3a03721 	mov	r3, #8650752	; 0x840000
300004e0:	e2833e4f 	add	r3, r3, #1264	; 0x4f0
300004e4:	e2833005 	add	r3, r3, #5	; 0x5
300004e8:	e5823000 	str	r3, [r2]
300004ec:	e3a03312 	mov	r3, #1207959552	; 0x48000000
300004f0:	e2833028 	add	r3, r3, #40	; 0x28
300004f4:	e3a020b1 	mov	r2, #177	; 0xb1
300004f8:	e5832000 	str	r2, [r3]
300004fc:	e3a03312 	mov	r3, #1207959552	; 0x48000000
30000500:	e283302c 	add	r3, r3, #44	; 0x2c
30000504:	e3a02020 	mov	r2, #32	; 0x20
30000508:	e5832000 	str	r2, [r3]
3000050c:	e3a03312 	mov	r3, #1207959552	; 0x48000000
30000510:	e2833030 	add	r3, r3, #48	; 0x30
30000514:	e3a02020 	mov	r2, #32	; 0x20
30000518:	e5832000 	str	r2, [r3]
3000051c:	e89da800 	ldmia	sp, {fp, sp, pc}

30000520 <S3C2440_NandFlashInitialized>:
30000520:	e1a0c00d 	mov	ip, sp
30000524:	e92dd800 	stmdb	sp!, {fp, ip, lr, pc}
30000528:	e24cb004 	sub	fp, ip, #4	; 0x4
3000052c:	e3a0244e 	mov	r2, #1308622848	; 0x4e000000
30000530:	e3a03c01 	mov	r3, #256	; 0x100
30000534:	e5823000 	str	r3, [r2]
30000538:	e3a0344e 	mov	r3, #1308622848	; 0x4e000000
3000053c:	e2833004 	add	r3, r3, #4	; 0x4
30000540:	e3a02013 	mov	r2, #19	; 0x13
30000544:	e5832000 	str	r2, [r3]
30000548:	eb000000 	bl	30000550 <S3C2440_NandFlashReset>
3000054c:	e89da800 	ldmia	sp, {fp, sp, pc}

30000550 <S3C2440_NandFlashReset>:
30000550:	e1a0c00d 	mov	ip, sp
30000554:	e92dd800 	stmdb	sp!, {fp, ip, lr, pc}
30000558:	e24cb004 	sub	fp, ip, #4	; 0x4
3000055c:	eb000004 	bl	30000574 <S3C2440_NandFlashSelect>
30000560:	e3a000ff 	mov	r0, #255	; 0xff
30000564:	eb000018 	bl	300005cc <S3C2440_NandFlash_Write_Command>
30000568:	eb000055 	bl	300006c4 <S3C2440_NandFlash_Wait_Ready>
3000056c:	eb00000b 	bl	300005a0 <S3C2440_NandFlashDeselect>
30000570:	e89da800 	ldmia	sp, {fp, sp, pc}

30000574 <S3C2440_NandFlashSelect>:
30000574:	e1a0c00d 	mov	ip, sp
30000578:	e92dd800 	stmdb	sp!, {fp, ip, lr, pc}
3000057c:	e24cb004 	sub	fp, ip, #4	; 0x4
30000580:	e3a0244e 	mov	r2, #1308622848	; 0x4e000000
30000584:	e2822004 	add	r2, r2, #4	; 0x4
30000588:	e3a0344e 	mov	r3, #1308622848	; 0x4e000000
3000058c:	e2833004 	add	r3, r3, #4	; 0x4
30000590:	e5933000 	ldr	r3, [r3]
30000594:	e3c33002 	bic	r3, r3, #2	; 0x2
30000598:	e5823000 	str	r3, [r2]
3000059c:	e89da800 	ldmia	sp, {fp, sp, pc}

300005a0 <S3C2440_NandFlashDeselect>:
300005a0:	e1a0c00d 	mov	ip, sp
300005a4:	e92dd800 	stmdb	sp!, {fp, ip, lr, pc}
300005a8:	e24cb004 	sub	fp, ip, #4	; 0x4
300005ac:	e3a0244e 	mov	r2, #1308622848	; 0x4e000000
300005b0:	e2822004 	add	r2, r2, #4	; 0x4
300005b4:	e3a0344e 	mov	r3, #1308622848	; 0x4e000000
300005b8:	e2833004 	add	r3, r3, #4	; 0x4
300005bc:	e5933000 	ldr	r3, [r3]
300005c0:	e3833002 	orr	r3, r3, #2	; 0x2
300005c4:	e5823000 	str	r3, [r2]
300005c8:	e89da800 	ldmia	sp, {fp, sp, pc}

300005cc <S3C2440_NandFlash_Write_Command>:
300005cc:	e1a0c00d 	mov	ip, sp
300005d0:	e92dd800 	stmdb	sp!, {fp, ip, lr, pc}
300005d4:	e24cb004 	sub	fp, ip, #4	; 0x4
300005d8:	e24dd008 	sub	sp, sp, #8	; 0x8
300005dc:	e1a03000 	mov	r3, r0
300005e0:	e54b300d 	strb	r3, [fp, #-13]
300005e4:	e3a0344e 	mov	r3, #1308622848	; 0x4e000000
300005e8:	e2833008 	add	r3, r3, #8	; 0x8
300005ec:	e55b200d 	ldrb	r2, [fp, #-13]
300005f0:	e5c32000 	strb	r2, [r3]
300005f4:	e3a03000 	mov	r3, #0	; 0x0
300005f8:	e50b3014 	str	r3, [fp, #-20]
300005fc:	e51b3014 	ldr	r3, [fp, #-20]
30000600:	e3530009 	cmp	r3, #9	; 0x9
30000604:	ca000003 	bgt	30000618 <S3C2440_NandFlash_Write_Command+0x4c>
30000608:	e51b3014 	ldr	r3, [fp, #-20]
3000060c:	e2833001 	add	r3, r3, #1	; 0x1
30000610:	e50b3014 	str	r3, [fp, #-20]
30000614:	eafffff8 	b	300005fc <S3C2440_NandFlash_Write_Command+0x30>
30000618:	e24bd00c 	sub	sp, fp, #12	; 0xc
3000061c:	e89da800 	ldmia	sp, {fp, sp, pc}

30000620 <S3C2440_NandFlash_Write_Address>:
30000620:	e1a0c00d 	mov	ip, sp
30000624:	e92dd800 	stmdb	sp!, {fp, ip, lr, pc}
30000628:	e24cb004 	sub	fp, ip, #4	; 0x4
3000062c:	e24dd008 	sub	sp, sp, #8	; 0x8
30000630:	e1a03000 	mov	r3, r0
30000634:	e54b300d 	strb	r3, [fp, #-13]
30000638:	e3a0344e 	mov	r3, #1308622848	; 0x4e000000
3000063c:	e283300c 	add	r3, r3, #12	; 0xc
30000640:	e55b200d 	ldrb	r2, [fp, #-13]
30000644:	e5c32000 	strb	r2, [r3]
30000648:	e3a03000 	mov	r3, #0	; 0x0
3000064c:	e50b3014 	str	r3, [fp, #-20]
30000650:	e51b3014 	ldr	r3, [fp, #-20]
30000654:	e3530009 	cmp	r3, #9	; 0x9
30000658:	ca000003 	bgt	3000066c <S3C2440_NandFlash_Write_Address+0x4c>
3000065c:	e51b3014 	ldr	r3, [fp, #-20]
30000660:	e2833001 	add	r3, r3, #1	; 0x1
30000664:	e50b3014 	str	r3, [fp, #-20]
30000668:	eafffff8 	b	30000650 <S3C2440_NandFlash_Write_Address+0x30>
3000066c:	e24bd00c 	sub	sp, fp, #12	; 0xc
30000670:	e89da800 	ldmia	sp, {fp, sp, pc}

30000674 <S3C2440_NandFlash_Read_Data>:
30000674:	e1a0c00d 	mov	ip, sp
30000678:	e92dd800 	stmdb	sp!, {fp, ip, lr, pc}
3000067c:	e24cb004 	sub	fp, ip, #4	; 0x4
30000680:	e3a0344e 	mov	r3, #1308622848	; 0x4e000000
30000684:	e2833010 	add	r3, r3, #16	; 0x10
30000688:	e5d33000 	ldrb	r3, [r3]
3000068c:	e20330ff 	and	r3, r3, #255	; 0xff
30000690:	e1a00003 	mov	r0, r3
30000694:	e89da800 	ldmia	sp, {fp, sp, pc}

30000698 <S3C2440_NandFlash_Write_Data>:
30000698:	e1a0c00d 	mov	ip, sp
3000069c:	e92dd800 	stmdb	sp!, {fp, ip, lr, pc}
300006a0:	e24cb004 	sub	fp, ip, #4	; 0x4
300006a4:	e24dd004 	sub	sp, sp, #4	; 0x4
300006a8:	e1a03000 	mov	r3, r0
300006ac:	e54b300d 	strb	r3, [fp, #-13]
300006b0:	e3a0344e 	mov	r3, #1308622848	; 0x4e000000
300006b4:	e2833010 	add	r3, r3, #16	; 0x10
300006b8:	e55b200d 	ldrb	r2, [fp, #-13]
300006bc:	e5c32000 	strb	r2, [r3]
300006c0:	e89da808 	ldmia	sp, {r3, fp, sp, pc}

300006c4 <S3C2440_NandFlash_Wait_Ready>:
300006c4:	e1a0c00d 	mov	ip, sp
300006c8:	e92dd800 	stmdb	sp!, {fp, ip, lr, pc}
300006cc:	e24cb004 	sub	fp, ip, #4	; 0x4
300006d0:	e3a0344e 	mov	r3, #1308622848	; 0x4e000000
300006d4:	e2833020 	add	r3, r3, #32	; 0x20
300006d8:	e5d33000 	ldrb	r3, [r3]
300006dc:	e20330ff 	and	r3, r3, #255	; 0xff
300006e0:	e2033001 	and	r3, r3, #1	; 0x1
300006e4:	e3530000 	cmp	r3, #0	; 0x0
300006e8:	1a000000 	bne	300006f0 <S3C2440_NandFlash_Wait_Ready+0x2c>
300006ec:	eafffff7 	b	300006d0 <S3C2440_NandFlash_Wait_Ready+0xc>
300006f0:	e89da800 	ldmia	sp, {fp, sp, pc}

300006f4 <S3C2440_NandFlash_Write_Data_Col_Address>:
300006f4:	e1a0c00d 	mov	ip, sp
300006f8:	e92dd800 	stmdb	sp!, {fp, ip, lr, pc}
300006fc:	e24cb004 	sub	fp, ip, #4	; 0x4
30000700:	e24dd004 	sub	sp, sp, #4	; 0x4
30000704:	e50b0010 	str	r0, [fp, #-16]
30000708:	e51b3010 	ldr	r3, [fp, #-16]
3000070c:	e20330ff 	and	r3, r3, #255	; 0xff
30000710:	e1a00003 	mov	r0, r3
30000714:	ebffffc1 	bl	30000620 <S3C2440_NandFlash_Write_Address>
30000718:	e51b3010 	ldr	r3, [fp, #-16]
3000071c:	e1a03423 	mov	r3, r3, lsr #8
30000720:	e20330ff 	and	r3, r3, #255	; 0xff
30000724:	e1a00003 	mov	r0, r3
30000728:	ebffffbc 	bl	30000620 <S3C2440_NandFlash_Write_Address>
3000072c:	e89da808 	ldmia	sp, {r3, fp, sp, pc}

30000730 <S3C2440_NandFlash_Write_Data_Row_Address>:
30000730:	e1a0c00d 	mov	ip, sp
30000734:	e92dd800 	stmdb	sp!, {fp, ip, lr, pc}
30000738:	e24cb004 	sub	fp, ip, #4	; 0x4
3000073c:	e24dd004 	sub	sp, sp, #4	; 0x4
30000740:	e50b0010 	str	r0, [fp, #-16]
30000744:	e51b3010 	ldr	r3, [fp, #-16]
30000748:	e20330ff 	and	r3, r3, #255	; 0xff
3000074c:	e1a00003 	mov	r0, r3
30000750:	ebffffb2 	bl	30000620 <S3C2440_NandFlash_Write_Address>
30000754:	e51b3010 	ldr	r3, [fp, #-16]
30000758:	e1a03423 	mov	r3, r3, lsr #8
3000075c:	e20330ff 	and	r3, r3, #255	; 0xff
30000760:	e1a00003 	mov	r0, r3
30000764:	ebffffad 	bl	30000620 <S3C2440_NandFlash_Write_Address>
30000768:	e51b3010 	ldr	r3, [fp, #-16]
3000076c:	e1a03823 	mov	r3, r3, lsr #16
30000770:	e20330ff 	and	r3, r3, #255	; 0xff
30000774:	e1a00003 	mov	r0, r3
30000778:	ebffffa8 	bl	30000620 <S3C2440_NandFlash_Write_Address>
3000077c:	e89da808 	ldmia	sp, {r3, fp, sp, pc}

30000780 <S3C2440_NandFlash_Write_Data_Address>:
30000780:	e1a0c00d 	mov	ip, sp
30000784:	e92dd800 	stmdb	sp!, {fp, ip, lr, pc}
30000788:	e24cb004 	sub	fp, ip, #4	; 0x4
3000078c:	e24dd00c 	sub	sp, sp, #12	; 0xc
30000790:	e50b0010 	str	r0, [fp, #-16]
30000794:	e51b3010 	ldr	r3, [fp, #-16]
30000798:	e1a035a3 	mov	r3, r3, lsr #11
3000079c:	e50b3014 	str	r3, [fp, #-20]
300007a0:	e51b3010 	ldr	r3, [fp, #-16]
300007a4:	e1a03a83 	mov	r3, r3, lsl #21
300007a8:	e1a03aa3 	mov	r3, r3, lsr #21
300007ac:	e50b3018 	str	r3, [fp, #-24]
300007b0:	e51b0018 	ldr	r0, [fp, #-24]
300007b4:	ebffffce 	bl	300006f4 <S3C2440_NandFlash_Write_Data_Col_Address>
300007b8:	e51b0014 	ldr	r0, [fp, #-20]
300007bc:	ebffffdb 	bl	30000730 <S3C2440_NandFlash_Write_Data_Row_Address>
300007c0:	e24bd00c 	sub	sp, fp, #12	; 0xc
300007c4:	e89da800 	ldmia	sp, {fp, sp, pc}

300007c8 <S3C2440_NandFlash_Check_BadBlock>:
300007c8:	e1a0c00d 	mov	ip, sp
300007cc:	e92dd800 	stmdb	sp!, {fp, ip, lr, pc}
300007d0:	e24cb004 	sub	fp, ip, #4	; 0x4
300007d4:	e24dd014 	sub	sp, sp, #20	; 0x14
300007d8:	e50b0010 	str	r0, [fp, #-16]
300007dc:	e51b3010 	ldr	r3, [fp, #-16]
300007e0:	e1a035a3 	mov	r3, r3, lsr #11
300007e4:	e50b3014 	str	r3, [fp, #-20]
300007e8:	e3a03b02 	mov	r3, #2048	; 0x800
300007ec:	e50b3018 	str	r3, [fp, #-24]
300007f0:	ebffff5f 	bl	30000574 <S3C2440_NandFlashSelect>
300007f4:	e3a00000 	mov	r0, #0	; 0x0
300007f8:	ebffff73 	bl	300005cc <S3C2440_NandFlash_Write_Command>
300007fc:	e51b0018 	ldr	r0, [fp, #-24]
30000800:	ebffffbb 	bl	300006f4 <S3C2440_NandFlash_Write_Data_Col_Address>
30000804:	e51b0014 	ldr	r0, [fp, #-20]
30000808:	ebffffc8 	bl	30000730 <S3C2440_NandFlash_Write_Data_Row_Address>
3000080c:	e3a00030 	mov	r0, #48	; 0x30
30000810:	ebffff6d 	bl	300005cc <S3C2440_NandFlash_Write_Command>
30000814:	ebffffaa 	bl	300006c4 <S3C2440_NandFlash_Wait_Ready>
30000818:	ebffff95 	bl	30000674 <S3C2440_NandFlash_Read_Data>
3000081c:	e1a03000 	mov	r3, r0
30000820:	e54b3019 	strb	r3, [fp, #-25]
30000824:	ebffff5d 	bl	300005a0 <S3C2440_NandFlashDeselect>
30000828:	e55b3019 	ldrb	r3, [fp, #-25]
3000082c:	e35300ff 	cmp	r3, #255	; 0xff
30000830:	0a000002 	beq	30000840 <S3C2440_NandFlash_Check_BadBlock+0x78>
30000834:	e3a03001 	mov	r3, #1	; 0x1
30000838:	e50b3020 	str	r3, [fp, #-32]
3000083c:	ea000001 	b	30000848 <S3C2440_NandFlash_Check_BadBlock+0x80>
30000840:	e3a03000 	mov	r3, #0	; 0x0
30000844:	e50b3020 	str	r3, [fp, #-32]
30000848:	e51b0020 	ldr	r0, [fp, #-32]
3000084c:	e24bd00c 	sub	sp, fp, #12	; 0xc
30000850:	e89da800 	ldmia	sp, {fp, sp, pc}

30000854 <S3C2440_NandFlash_Erase>:
30000854:	e1a0c00d 	mov	ip, sp
30000858:	e92dd800 	stmdb	sp!, {fp, ip, lr, pc}
3000085c:	e24cb004 	sub	fp, ip, #4	; 0x4
30000860:	e24dd010 	sub	sp, sp, #16	; 0x10
30000864:	e50b0010 	str	r0, [fp, #-16]
30000868:	e50b1014 	str	r1, [fp, #-20]
3000086c:	e51b3010 	ldr	r3, [fp, #-16]
30000870:	e1a035a3 	mov	r3, r3, lsr #11
30000874:	e50b3018 	str	r3, [fp, #-24]
30000878:	e51b3010 	ldr	r3, [fp, #-16]
3000087c:	e3c334ff 	bic	r3, r3, #-16777216	; 0xff000000
30000880:	e3c338fe 	bic	r3, r3, #16646144	; 0xfe0000
30000884:	e3530000 	cmp	r3, #0	; 0x0
30000888:	1a000005 	bne	300008a4 <S3C2440_NandFlash_Erase+0x50>
3000088c:	e51b3014 	ldr	r3, [fp, #-20]
30000890:	e3c334ff 	bic	r3, r3, #-16777216	; 0xff000000
30000894:	e3c338fe 	bic	r3, r3, #16646144	; 0xfe0000
30000898:	e3530000 	cmp	r3, #0	; 0x0
3000089c:	1a000000 	bne	300008a4 <S3C2440_NandFlash_Erase+0x50>
300008a0:	ea000002 	b	300008b0 <S3C2440_NandFlash_Erase+0x5c>
300008a4:	e3e03000 	mvn	r3, #0	; 0x0
300008a8:	e50b301c 	str	r3, [fp, #-28]
300008ac:	ea000019 	b	30000918 <S3C2440_NandFlash_Erase+0xc4>
300008b0:	ebffff2f 	bl	30000574 <S3C2440_NandFlashSelect>
300008b4:	e51b2014 	ldr	r2, [fp, #-20]
300008b8:	e3e034ff 	mvn	r3, #-16777216	; 0xff000000
300008bc:	e24338fe 	sub	r3, r3, #16646144	; 0xfe0000
300008c0:	e1520003 	cmp	r2, r3
300008c4:	9a000010 	bls	3000090c <S3C2440_NandFlash_Erase+0xb8>
300008c8:	e51b3010 	ldr	r3, [fp, #-16]
300008cc:	e1a035a3 	mov	r3, r3, lsr #11
300008d0:	e50b3018 	str	r3, [fp, #-24]
300008d4:	e3a00060 	mov	r0, #96	; 0x60
300008d8:	ebffff3b 	bl	300005cc <S3C2440_NandFlash_Write_Command>
300008dc:	e51b0018 	ldr	r0, [fp, #-24]
300008e0:	ebffff92 	bl	30000730 <S3C2440_NandFlash_Write_Data_Row_Address>
300008e4:	e3a000d0 	mov	r0, #208	; 0xd0
300008e8:	ebffff37 	bl	300005cc <S3C2440_NandFlash_Write_Command>
300008ec:	ebffff74 	bl	300006c4 <S3C2440_NandFlash_Wait_Ready>
300008f0:	e51b3014 	ldr	r3, [fp, #-20]
300008f4:	e2433802 	sub	r3, r3, #131072	; 0x20000
300008f8:	e50b3014 	str	r3, [fp, #-20]
300008fc:	e51b3010 	ldr	r3, [fp, #-16]
30000900:	e2833802 	add	r3, r3, #131072	; 0x20000
30000904:	e50b3010 	str	r3, [fp, #-16]
30000908:	eaffffe9 	b	300008b4 <S3C2440_NandFlash_Erase+0x60>
3000090c:	ebffff23 	bl	300005a0 <S3C2440_NandFlashDeselect>
30000910:	e3a03000 	mov	r3, #0	; 0x0
30000914:	e50b301c 	str	r3, [fp, #-28]
30000918:	e51b001c 	ldr	r0, [fp, #-28]
3000091c:	e24bd00c 	sub	sp, fp, #12	; 0xc
30000920:	e89da800 	ldmia	sp, {fp, sp, pc}

30000924 <S3C2440_NandFlash_Read>:
30000924:	e1a0c00d 	mov	ip, sp
30000928:	e92dd800 	stmdb	sp!, {fp, ip, lr, pc}
3000092c:	e24cb004 	sub	fp, ip, #4	; 0x4
30000930:	e24dd018 	sub	sp, sp, #24	; 0x18
30000934:	e50b0010 	str	r0, [fp, #-16]
30000938:	e50b1014 	str	r1, [fp, #-20]
3000093c:	e50b2018 	str	r2, [fp, #-24]
30000940:	e3a03000 	mov	r3, #0	; 0x0
30000944:	e50b301c 	str	r3, [fp, #-28]
30000948:	e51b3010 	ldr	r3, [fp, #-16]
3000094c:	e1a035a3 	mov	r3, r3, lsr #11
30000950:	e50b3020 	str	r3, [fp, #-32]
30000954:	e51b3010 	ldr	r3, [fp, #-16]
30000958:	e1a03a83 	mov	r3, r3, lsl #21
3000095c:	e1a03aa3 	mov	r3, r3, lsr #21
30000960:	e50b3024 	str	r3, [fp, #-36]
30000964:	e51b201c 	ldr	r2, [fp, #-28]
30000968:	e51b3018 	ldr	r3, [fp, #-24]
3000096c:	e1520003 	cmp	r2, r3
30000970:	2a00003b 	bcs	30000a64 <S3C2440_NandFlash_Read+0x140>
30000974:	e51b3010 	ldr	r3, [fp, #-16]
30000978:	e3c334ff 	bic	r3, r3, #-16777216	; 0xff000000
3000097c:	e3c338fe 	bic	r3, r3, #16646144	; 0xfe0000
30000980:	e3530000 	cmp	r3, #0	; 0x0
30000984:	1a000008 	bne	300009ac <S3C2440_NandFlash_Read+0x88>
30000988:	e51b0010 	ldr	r0, [fp, #-16]
3000098c:	ebffff8d 	bl	300007c8 <S3C2440_NandFlash_Check_BadBlock>
30000990:	e1a03000 	mov	r3, r0
30000994:	e3530000 	cmp	r3, #0	; 0x0
30000998:	0a000003 	beq	300009ac <S3C2440_NandFlash_Read+0x88>
3000099c:	e51b3010 	ldr	r3, [fp, #-16]
300009a0:	e2833802 	add	r3, r3, #131072	; 0x20000
300009a4:	e50b3010 	str	r3, [fp, #-16]
300009a8:	eaffffed 	b	30000964 <S3C2440_NandFlash_Read+0x40>
300009ac:	ebfffef0 	bl	30000574 <S3C2440_NandFlashSelect>
300009b0:	e3a00000 	mov	r0, #0	; 0x0
300009b4:	ebffff04 	bl	300005cc <S3C2440_NandFlash_Write_Command>
300009b8:	e51b0010 	ldr	r0, [fp, #-16]
300009bc:	ebffff6f 	bl	30000780 <S3C2440_NandFlash_Write_Data_Address>
300009c0:	e3a00030 	mov	r0, #48	; 0x30
300009c4:	ebffff00 	bl	300005cc <S3C2440_NandFlash_Write_Command>
300009c8:	ebffff3d 	bl	300006c4 <S3C2440_NandFlash_Wait_Ready>
300009cc:	e51b2024 	ldr	r2, [fp, #-36]
300009d0:	e3a03e7f 	mov	r3, #2032	; 0x7f0
300009d4:	e283300f 	add	r3, r3, #15	; 0xf
300009d8:	e1520003 	cmp	r2, r3
300009dc:	8a000014 	bhi	30000a34 <S3C2440_NandFlash_Read+0x110>
300009e0:	e51b201c 	ldr	r2, [fp, #-28]
300009e4:	e51b3018 	ldr	r3, [fp, #-24]
300009e8:	e1520003 	cmp	r2, r3
300009ec:	2a000010 	bcs	30000a34 <S3C2440_NandFlash_Read+0x110>
300009f0:	ebffff1f 	bl	30000674 <S3C2440_NandFlash_Read_Data>
300009f4:	e1a0c000 	mov	ip, r0
300009f8:	e24b001c 	sub	r0, fp, #28	; 0x1c
300009fc:	e5902000 	ldr	r2, [r0]
30000a00:	e1a01002 	mov	r1, r2
30000a04:	e51b3014 	ldr	r3, [fp, #-20]
30000a08:	e0813003 	add	r3, r1, r3
30000a0c:	e5c3c000 	strb	ip, [r3]
30000a10:	e2822001 	add	r2, r2, #1	; 0x1
30000a14:	e5802000 	str	r2, [r0]
30000a18:	e51b3010 	ldr	r3, [fp, #-16]
30000a1c:	e2833001 	add	r3, r3, #1	; 0x1
30000a20:	e50b3010 	str	r3, [fp, #-16]
30000a24:	e51b3024 	ldr	r3, [fp, #-36]
30000a28:	e2833001 	add	r3, r3, #1	; 0x1
30000a2c:	e50b3024 	str	r3, [fp, #-36]
30000a30:	eaffffe5 	b	300009cc <S3C2440_NandFlash_Read+0xa8>
30000a34:	e51b201c 	ldr	r2, [fp, #-28]
30000a38:	e51b3018 	ldr	r3, [fp, #-24]
30000a3c:	e1520003 	cmp	r2, r3
30000a40:	1a000000 	bne	30000a48 <S3C2440_NandFlash_Read+0x124>
30000a44:	ea000006 	b	30000a64 <S3C2440_NandFlash_Read+0x140>
30000a48:	e3a03000 	mov	r3, #0	; 0x0
30000a4c:	e50b3024 	str	r3, [fp, #-36]
30000a50:	e51b3020 	ldr	r3, [fp, #-32]
30000a54:	e2833001 	add	r3, r3, #1	; 0x1
30000a58:	e50b3020 	str	r3, [fp, #-32]
30000a5c:	ebfffecf 	bl	300005a0 <S3C2440_NandFlashDeselect>
30000a60:	eaffffbf 	b	30000964 <S3C2440_NandFlash_Read+0x40>
30000a64:	e24bd00c 	sub	sp, fp, #12	; 0xc
30000a68:	e89da800 	ldmia	sp, {fp, sp, pc}

30000a6c <S3C2440_NandFlash_Write>:
30000a6c:	e1a0c00d 	mov	ip, sp
30000a70:	e92dd800 	stmdb	sp!, {fp, ip, lr, pc}
30000a74:	e24cb004 	sub	fp, ip, #4	; 0x4
30000a78:	e24dd018 	sub	sp, sp, #24	; 0x18
30000a7c:	e50b0010 	str	r0, [fp, #-16]
30000a80:	e50b1014 	str	r1, [fp, #-20]
30000a84:	e50b2018 	str	r2, [fp, #-24]
30000a88:	e3a03000 	mov	r3, #0	; 0x0
30000a8c:	e50b301c 	str	r3, [fp, #-28]
30000a90:	e51b3010 	ldr	r3, [fp, #-16]
30000a94:	e1a035a3 	mov	r3, r3, lsr #11
30000a98:	e50b3020 	str	r3, [fp, #-32]
30000a9c:	e51b3010 	ldr	r3, [fp, #-16]
30000aa0:	e1a03a83 	mov	r3, r3, lsl #21
30000aa4:	e1a03aa3 	mov	r3, r3, lsr #21
30000aa8:	e50b3024 	str	r3, [fp, #-36]
30000aac:	e51b201c 	ldr	r2, [fp, #-28]
30000ab0:	e51b3018 	ldr	r3, [fp, #-24]
30000ab4:	e1520003 	cmp	r2, r3
30000ab8:	2a00003b 	bcs	30000bac <S3C2440_NandFlash_Write+0x140>
30000abc:	e51b3010 	ldr	r3, [fp, #-16]
30000ac0:	e3c334ff 	bic	r3, r3, #-16777216	; 0xff000000
30000ac4:	e3c338fe 	bic	r3, r3, #16646144	; 0xfe0000
30000ac8:	e3530000 	cmp	r3, #0	; 0x0
30000acc:	1a000008 	bne	30000af4 <S3C2440_NandFlash_Write+0x88>
30000ad0:	e51b0010 	ldr	r0, [fp, #-16]
30000ad4:	ebffff3b 	bl	300007c8 <S3C2440_NandFlash_Check_BadBlock>
30000ad8:	e1a03000 	mov	r3, r0
30000adc:	e3530000 	cmp	r3, #0	; 0x0
30000ae0:	0a000003 	beq	30000af4 <S3C2440_NandFlash_Write+0x88>
30000ae4:	e51b3010 	ldr	r3, [fp, #-16]
30000ae8:	e2833802 	add	r3, r3, #131072	; 0x20000
30000aec:	e50b3010 	str	r3, [fp, #-16]
30000af0:	eaffffed 	b	30000aac <S3C2440_NandFlash_Write+0x40>
30000af4:	ebfffe9e 	bl	30000574 <S3C2440_NandFlashSelect>
30000af8:	e3a00080 	mov	r0, #128	; 0x80
30000afc:	ebfffeb2 	bl	300005cc <S3C2440_NandFlash_Write_Command>
30000b00:	e51b0010 	ldr	r0, [fp, #-16]
30000b04:	ebffff1d 	bl	30000780 <S3C2440_NandFlash_Write_Data_Address>
30000b08:	e51b2024 	ldr	r2, [fp, #-36]
30000b0c:	e3a03e7f 	mov	r3, #2032	; 0x7f0
30000b10:	e283300f 	add	r3, r3, #15	; 0xf
30000b14:	e1520003 	cmp	r2, r3
30000b18:	8a000014 	bhi	30000b70 <S3C2440_NandFlash_Write+0x104>
30000b1c:	e51b201c 	ldr	r2, [fp, #-28]
30000b20:	e51b3018 	ldr	r3, [fp, #-24]
30000b24:	e1520003 	cmp	r2, r3
30000b28:	2a000010 	bcs	30000b70 <S3C2440_NandFlash_Write+0x104>
30000b2c:	e24b001c 	sub	r0, fp, #28	; 0x1c
30000b30:	e5902000 	ldr	r2, [r0]
30000b34:	e1a01002 	mov	r1, r2
30000b38:	e51b3014 	ldr	r3, [fp, #-20]
30000b3c:	e0813003 	add	r3, r1, r3
30000b40:	e5d33000 	ldrb	r3, [r3]
30000b44:	e2822001 	add	r2, r2, #1	; 0x1
30000b48:	e5802000 	str	r2, [r0]
30000b4c:	e1a00003 	mov	r0, r3
30000b50:	ebfffed0 	bl	30000698 <S3C2440_NandFlash_Write_Data>
30000b54:	e51b3010 	ldr	r3, [fp, #-16]
30000b58:	e2833001 	add	r3, r3, #1	; 0x1
30000b5c:	e50b3010 	str	r3, [fp, #-16]
30000b60:	e51b3024 	ldr	r3, [fp, #-36]
30000b64:	e2833001 	add	r3, r3, #1	; 0x1
30000b68:	e50b3024 	str	r3, [fp, #-36]
30000b6c:	eaffffe5 	b	30000b08 <S3C2440_NandFlash_Write+0x9c>
30000b70:	e3a00010 	mov	r0, #16	; 0x10
30000b74:	ebfffe94 	bl	300005cc <S3C2440_NandFlash_Write_Command>
30000b78:	ebfffed1 	bl	300006c4 <S3C2440_NandFlash_Wait_Ready>
30000b7c:	e51b201c 	ldr	r2, [fp, #-28]
30000b80:	e51b3018 	ldr	r3, [fp, #-24]
30000b84:	e1520003 	cmp	r2, r3
30000b88:	1a000000 	bne	30000b90 <S3C2440_NandFlash_Write+0x124>
30000b8c:	ea000006 	b	30000bac <S3C2440_NandFlash_Write+0x140>
30000b90:	e3a03000 	mov	r3, #0	; 0x0
30000b94:	e50b3024 	str	r3, [fp, #-36]
30000b98:	e51b3020 	ldr	r3, [fp, #-32]
30000b9c:	e2833001 	add	r3, r3, #1	; 0x1
30000ba0:	e50b3020 	str	r3, [fp, #-32]
30000ba4:	ebfffe7d 	bl	300005a0 <S3C2440_NandFlashDeselect>
30000ba8:	eaffffbf 	b	30000aac <S3C2440_NandFlash_Write+0x40>
30000bac:	e24bd00c 	sub	sp, fp, #12	; 0xc
30000bb0:	e89da800 	ldmia	sp, {fp, sp, pc}

30000bb4 <S3C2440_NorFlashInitialized>:
30000bb4:	e1a0c00d 	mov	ip, sp
30000bb8:	e92dd800 	stmdb	sp!, {fp, ip, lr, pc}
30000bbc:	e24cb004 	sub	fp, ip, #4	; 0x4
30000bc0:	e3a02312 	mov	r2, #1207959552	; 0x48000000
30000bc4:	e2822004 	add	r2, r2, #4	; 0x4
30000bc8:	e3a03312 	mov	r3, #1207959552	; 0x48000000
30000bcc:	e2833004 	add	r3, r3, #4	; 0x4
30000bd0:	e5933000 	ldr	r3, [r3]
30000bd4:	e3833c07 	orr	r3, r3, #1792	; 0x700
30000bd8:	e5823000 	str	r3, [r2]
30000bdc:	e3a02312 	mov	r2, #1207959552	; 0x48000000
30000be0:	e2822004 	add	r2, r2, #4	; 0x4
30000be4:	e3a03312 	mov	r3, #1207959552	; 0x48000000
30000be8:	e2833004 	add	r3, r3, #4	; 0x4
30000bec:	e5933000 	ldr	r3, [r3]
30000bf0:	e3c33c02 	bic	r3, r3, #512	; 0x200
30000bf4:	e5823000 	str	r3, [r2]
30000bf8:	e89da800 	ldmia	sp, {fp, sp, pc}

30000bfc <S3C2440_NorFlash_ChipWrite_HalfWord>:
30000bfc:	e1a0c00d 	mov	ip, sp
30000c00:	e92dd800 	stmdb	sp!, {fp, ip, lr, pc}
30000c04:	e24cb004 	sub	fp, ip, #4	; 0x4
30000c08:	e24dd010 	sub	sp, sp, #16	; 0x10
30000c0c:	e50b0010 	str	r0, [fp, #-16]
30000c10:	e50b1014 	str	r1, [fp, #-20]
30000c14:	e1a03002 	mov	r3, r2
30000c18:	e14b31b6 	strh	r3, [fp, #-22]
30000c1c:	e51b3014 	ldr	r3, [fp, #-20]
30000c20:	e1a02083 	mov	r2, r3, lsl #1
30000c24:	e51b3010 	ldr	r3, [fp, #-16]
30000c28:	e0823003 	add	r3, r2, r3
30000c2c:	e50b301c 	str	r3, [fp, #-28]
30000c30:	e51b201c 	ldr	r2, [fp, #-28]
30000c34:	e15b31b6 	ldrh	r3, [fp, #-22]
30000c38:	e1c230b0 	strh	r3, [r2]
30000c3c:	e24bd00c 	sub	sp, fp, #12	; 0xc
30000c40:	e89da800 	ldmia	sp, {fp, sp, pc}

30000c44 <S3C2440_NorFlash_ChipRead_HalfWord>:
30000c44:	e1a0c00d 	mov	ip, sp
30000c48:	e92dd800 	stmdb	sp!, {fp, ip, lr, pc}
30000c4c:	e24cb004 	sub	fp, ip, #4	; 0x4
30000c50:	e24dd00c 	sub	sp, sp, #12	; 0xc
30000c54:	e50b0010 	str	r0, [fp, #-16]
30000c58:	e50b1014 	str	r1, [fp, #-20]
30000c5c:	e51b3014 	ldr	r3, [fp, #-20]
30000c60:	e1a02083 	mov	r2, r3, lsl #1
30000c64:	e51b3010 	ldr	r3, [fp, #-16]
30000c68:	e0823003 	add	r3, r2, r3
30000c6c:	e50b3018 	str	r3, [fp, #-24]
30000c70:	e51b3018 	ldr	r3, [fp, #-24]
30000c74:	e1d330b0 	ldrh	r3, [r3]
30000c78:	e1a03803 	mov	r3, r3, lsl #16
30000c7c:	e1a03823 	mov	r3, r3, lsr #16
30000c80:	e1a00003 	mov	r0, r3
30000c84:	e24bd00c 	sub	sp, fp, #12	; 0xc
30000c88:	e89da800 	ldmia	sp, {fp, sp, pc}

30000c8c <S3C2440_NorFlash_Write_Command>:
30000c8c:	e1a0c00d 	mov	ip, sp
30000c90:	e92dd800 	stmdb	sp!, {fp, ip, lr, pc}
30000c94:	e24cb004 	sub	fp, ip, #4	; 0x4
30000c98:	e24dd008 	sub	sp, sp, #8	; 0x8
30000c9c:	e50b0010 	str	r0, [fp, #-16]
30000ca0:	e1a03001 	mov	r3, r1
30000ca4:	e14b31b2 	strh	r3, [fp, #-18]
30000ca8:	e15b31b2 	ldrh	r3, [fp, #-18]
30000cac:	e3a00000 	mov	r0, #0	; 0x0
30000cb0:	e51b1010 	ldr	r1, [fp, #-16]
30000cb4:	e1a02003 	mov	r2, r3
30000cb8:	ebffffcf 	bl	30000bfc <S3C2440_NorFlash_ChipWrite_HalfWord>
30000cbc:	e24bd00c 	sub	sp, fp, #12	; 0xc
30000cc0:	e89da800 	ldmia	sp, {fp, sp, pc}

30000cc4 <S3C2440_NorFlash_Read_Data>:
30000cc4:	e1a0c00d 	mov	ip, sp
30000cc8:	e92dd800 	stmdb	sp!, {fp, ip, lr, pc}
30000ccc:	e24cb004 	sub	fp, ip, #4	; 0x4
30000cd0:	e24dd004 	sub	sp, sp, #4	; 0x4
30000cd4:	e50b0010 	str	r0, [fp, #-16]
30000cd8:	e3a00000 	mov	r0, #0	; 0x0
30000cdc:	e51b1010 	ldr	r1, [fp, #-16]
30000ce0:	ebffffd7 	bl	30000c44 <S3C2440_NorFlash_ChipRead_HalfWord>
30000ce4:	e1a03000 	mov	r3, r0
30000ce8:	e1a03803 	mov	r3, r3, lsl #16
30000cec:	e1a03823 	mov	r3, r3, lsr #16
30000cf0:	e1a00003 	mov	r0, r3
30000cf4:	e89da808 	ldmia	sp, {r3, fp, sp, pc}

30000cf8 <S3C2440_NorFlash_Wait_Ready>:
30000cf8:	e1a0c00d 	mov	ip, sp
30000cfc:	e92dd800 	stmdb	sp!, {fp, ip, lr, pc}
30000d00:	e24cb004 	sub	fp, ip, #4	; 0x4
30000d04:	e24dd00c 	sub	sp, sp, #12	; 0xc
30000d08:	e50b0010 	str	r0, [fp, #-16]
30000d0c:	e51b0010 	ldr	r0, [fp, #-16]
30000d10:	ebffffeb 	bl	30000cc4 <S3C2440_NorFlash_Read_Data>
30000d14:	e1a03000 	mov	r3, r0
30000d18:	e1a03803 	mov	r3, r3, lsl #16
30000d1c:	e1a03823 	mov	r3, r3, lsr #16
30000d20:	e50b3018 	str	r3, [fp, #-24]
30000d24:	e51b0010 	ldr	r0, [fp, #-16]
30000d28:	ebffffe5 	bl	30000cc4 <S3C2440_NorFlash_Read_Data>
30000d2c:	e1a03000 	mov	r3, r0
30000d30:	e1a03803 	mov	r3, r3, lsl #16
30000d34:	e1a03823 	mov	r3, r3, lsr #16
30000d38:	e50b3014 	str	r3, [fp, #-20]
30000d3c:	e51b3014 	ldr	r3, [fp, #-20]
30000d40:	e2032040 	and	r2, r3, #64	; 0x40
30000d44:	e51b3018 	ldr	r3, [fp, #-24]
30000d48:	e2033040 	and	r3, r3, #64	; 0x40
30000d4c:	e1520003 	cmp	r2, r3
30000d50:	0a000008 	beq	30000d78 <S3C2440_NorFlash_Wait_Ready+0x80>
30000d54:	e51b3014 	ldr	r3, [fp, #-20]
30000d58:	e50b3018 	str	r3, [fp, #-24]
30000d5c:	e51b0010 	ldr	r0, [fp, #-16]
30000d60:	ebffffd7 	bl	30000cc4 <S3C2440_NorFlash_Read_Data>
30000d64:	e1a03000 	mov	r3, r0
30000d68:	e1a03803 	mov	r3, r3, lsl #16
30000d6c:	e1a03823 	mov	r3, r3, lsr #16
30000d70:	e50b3014 	str	r3, [fp, #-20]
30000d74:	eafffff0 	b	30000d3c <S3C2440_NorFlash_Wait_Ready+0x44>
30000d78:	e24bd00c 	sub	sp, fp, #12	; 0xc
30000d7c:	e89da800 	ldmia	sp, {fp, sp, pc}

30000d80 <S3C2440_NorFlash_Erase>:
30000d80:	e1a0c00d 	mov	ip, sp
30000d84:	e92dd800 	stmdb	sp!, {fp, ip, lr, pc}
30000d88:	e24cb004 	sub	fp, ip, #4	; 0x4
30000d8c:	e24dd004 	sub	sp, sp, #4	; 0x4
30000d90:	e50b0010 	str	r0, [fp, #-16]
30000d94:	e3a00e55 	mov	r0, #1360	; 0x550
30000d98:	e2800005 	add	r0, r0, #5	; 0x5
30000d9c:	e3a010aa 	mov	r1, #170	; 0xaa
30000da0:	ebffffb9 	bl	30000c8c <S3C2440_NorFlash_Write_Command>
30000da4:	e3a00faa 	mov	r0, #680	; 0x2a8
30000da8:	e2800002 	add	r0, r0, #2	; 0x2
30000dac:	e3a01055 	mov	r1, #85	; 0x55
30000db0:	ebffffb5 	bl	30000c8c <S3C2440_NorFlash_Write_Command>
30000db4:	e3a00e55 	mov	r0, #1360	; 0x550
30000db8:	e2800005 	add	r0, r0, #5	; 0x5
30000dbc:	e3a01080 	mov	r1, #128	; 0x80
30000dc0:	ebffffb1 	bl	30000c8c <S3C2440_NorFlash_Write_Command>
30000dc4:	e3a00e55 	mov	r0, #1360	; 0x550
30000dc8:	e2800005 	add	r0, r0, #5	; 0x5
30000dcc:	e3a010aa 	mov	r1, #170	; 0xaa
30000dd0:	ebffffad 	bl	30000c8c <S3C2440_NorFlash_Write_Command>
30000dd4:	e3a00faa 	mov	r0, #680	; 0x2a8
30000dd8:	e2800002 	add	r0, r0, #2	; 0x2
30000ddc:	e3a01055 	mov	r1, #85	; 0x55
30000de0:	ebffffa9 	bl	30000c8c <S3C2440_NorFlash_Write_Command>
30000de4:	e51b3010 	ldr	r3, [fp, #-16]
30000de8:	e1a030a3 	mov	r3, r3, lsr #1
30000dec:	e1a00003 	mov	r0, r3
30000df0:	e3a01030 	mov	r1, #48	; 0x30
30000df4:	ebffffa4 	bl	30000c8c <S3C2440_NorFlash_Write_Command>
30000df8:	e51b3010 	ldr	r3, [fp, #-16]
30000dfc:	e1a030a3 	mov	r3, r3, lsr #1
30000e00:	e1a00003 	mov	r0, r3
30000e04:	ebffffbb 	bl	30000cf8 <S3C2440_NorFlash_Wait_Ready>
30000e08:	e89da808 	ldmia	sp, {r3, fp, sp, pc}

30000e0c <S3C2440_NorFlash_Read>:
30000e0c:	e1a0c00d 	mov	ip, sp
30000e10:	e92dd800 	stmdb	sp!, {fp, ip, lr, pc}
30000e14:	e24cb004 	sub	fp, ip, #4	; 0x4
30000e18:	e24dd018 	sub	sp, sp, #24	; 0x18
30000e1c:	e50b0010 	str	r0, [fp, #-16]
30000e20:	e50b1014 	str	r1, [fp, #-20]
30000e24:	e50b2018 	str	r2, [fp, #-24]
30000e28:	e3a03000 	mov	r3, #0	; 0x0
30000e2c:	e50b301c 	str	r3, [fp, #-28]
30000e30:	e51b3010 	ldr	r3, [fp, #-16]
30000e34:	e50b3020 	str	r3, [fp, #-32]
30000e38:	e51b3020 	ldr	r3, [fp, #-32]
30000e3c:	e50b3024 	str	r3, [fp, #-36]
30000e40:	e51b3018 	ldr	r3, [fp, #-24]
30000e44:	e2433001 	sub	r3, r3, #1	; 0x1
30000e48:	e50b3018 	str	r3, [fp, #-24]
30000e4c:	e3730001 	cmn	r3, #1	; 0x1
30000e50:	0a00000d 	beq	30000e8c <S3C2440_NorFlash_Read+0x80>
30000e54:	e24bc01c 	sub	ip, fp, #28	; 0x1c
30000e58:	e59c1000 	ldr	r1, [ip]
30000e5c:	e1a02001 	mov	r2, r1
30000e60:	e51b3014 	ldr	r3, [fp, #-20]
30000e64:	e082e003 	add	lr, r2, r3
30000e68:	e24b2024 	sub	r2, fp, #36	; 0x24
30000e6c:	e5923000 	ldr	r3, [r2]
30000e70:	e5d30000 	ldrb	r0, [r3]
30000e74:	e2833001 	add	r3, r3, #1	; 0x1
30000e78:	e5823000 	str	r3, [r2]
30000e7c:	e5ce0000 	strb	r0, [lr]
30000e80:	e2811001 	add	r1, r1, #1	; 0x1
30000e84:	e58c1000 	str	r1, [ip]
30000e88:	eaffffec 	b	30000e40 <S3C2440_NorFlash_Read+0x34>
30000e8c:	e24bd00c 	sub	sp, fp, #12	; 0xc
30000e90:	e89da800 	ldmia	sp, {fp, sp, pc}

30000e94 <S3C2440_NorFlash_Write>:
30000e94:	e1a0c00d 	mov	ip, sp
30000e98:	e92dd800 	stmdb	sp!, {fp, ip, lr, pc}
30000e9c:	e24cb004 	sub	fp, ip, #4	; 0x4
30000ea0:	e24dd01c 	sub	sp, sp, #28	; 0x1c
30000ea4:	e50b0010 	str	r0, [fp, #-16]
30000ea8:	e50b1014 	str	r1, [fp, #-20]
30000eac:	e50b2018 	str	r2, [fp, #-24]
30000eb0:	e3a03001 	mov	r3, #1	; 0x1
30000eb4:	e50b3020 	str	r3, [fp, #-32]
30000eb8:	e3a03000 	mov	r3, #0	; 0x0
30000ebc:	e50b3024 	str	r3, [fp, #-36]
30000ec0:	e3a03000 	mov	r3, #0	; 0x0
30000ec4:	e50b3028 	str	r3, [fp, #-40]
30000ec8:	e51b3010 	ldr	r3, [fp, #-16]
30000ecc:	e50b301c 	str	r3, [fp, #-28]
30000ed0:	e51b2014 	ldr	r2, [fp, #-20]
30000ed4:	e51b3024 	ldr	r3, [fp, #-36]
30000ed8:	e0823003 	add	r3, r2, r3
30000edc:	e5d33000 	ldrb	r3, [r3]
30000ee0:	e3530000 	cmp	r3, #0	; 0x0
30000ee4:	0a000032 	beq	30000fb4 <S3C2440_NorFlash_Write+0x120>
30000ee8:	e51b2014 	ldr	r2, [fp, #-20]
30000eec:	e51b3020 	ldr	r3, [fp, #-32]
30000ef0:	e0823003 	add	r3, r2, r3
30000ef4:	e5d33000 	ldrb	r3, [r3]
30000ef8:	e3530000 	cmp	r3, #0	; 0x0
30000efc:	0a00002c 	beq	30000fb4 <S3C2440_NorFlash_Write+0x120>
30000f00:	e51b2014 	ldr	r2, [fp, #-20]
30000f04:	e51b3024 	ldr	r3, [fp, #-36]
30000f08:	e0823003 	add	r3, r2, r3
30000f0c:	e5d31000 	ldrb	r1, [r3]
30000f10:	e51b2014 	ldr	r2, [fp, #-20]
30000f14:	e51b3020 	ldr	r3, [fp, #-32]
30000f18:	e0823003 	add	r3, r2, r3
30000f1c:	e5d33000 	ldrb	r3, [r3]
30000f20:	e1a03403 	mov	r3, r3, lsl #8
30000f24:	e0813003 	add	r3, r1, r3
30000f28:	e50b3028 	str	r3, [fp, #-40]
30000f2c:	e3a00e55 	mov	r0, #1360	; 0x550
30000f30:	e2800005 	add	r0, r0, #5	; 0x5
30000f34:	e3a010aa 	mov	r1, #170	; 0xaa
30000f38:	ebffff53 	bl	30000c8c <S3C2440_NorFlash_Write_Command>
30000f3c:	e3a00faa 	mov	r0, #680	; 0x2a8
30000f40:	e2800002 	add	r0, r0, #2	; 0x2
30000f44:	e3a01055 	mov	r1, #85	; 0x55
30000f48:	ebffff4f 	bl	30000c8c <S3C2440_NorFlash_Write_Command>
30000f4c:	e3a00e55 	mov	r0, #1360	; 0x550
30000f50:	e2800005 	add	r0, r0, #5	; 0x5
30000f54:	e3a010a0 	mov	r1, #160	; 0xa0
30000f58:	ebffff4b 	bl	30000c8c <S3C2440_NorFlash_Write_Command>
30000f5c:	e51b301c 	ldr	r3, [fp, #-28]
30000f60:	e1a020a3 	mov	r2, r3, lsr #1
30000f64:	e51b3028 	ldr	r3, [fp, #-40]
30000f68:	e1a03803 	mov	r3, r3, lsl #16
30000f6c:	e1a03823 	mov	r3, r3, lsr #16
30000f70:	e1a00002 	mov	r0, r2
30000f74:	e1a01003 	mov	r1, r3
30000f78:	ebffff43 	bl	30000c8c <S3C2440_NorFlash_Write_Command>
30000f7c:	e51b301c 	ldr	r3, [fp, #-28]
30000f80:	e1a030a3 	mov	r3, r3, lsr #1
30000f84:	e1a00003 	mov	r0, r3
30000f88:	ebffff5a 	bl	30000cf8 <S3C2440_NorFlash_Wait_Ready>
30000f8c:	e51b3020 	ldr	r3, [fp, #-32]
30000f90:	e2833002 	add	r3, r3, #2	; 0x2
30000f94:	e50b3020 	str	r3, [fp, #-32]
30000f98:	e51b3024 	ldr	r3, [fp, #-36]
30000f9c:	e2833002 	add	r3, r3, #2	; 0x2
30000fa0:	e50b3024 	str	r3, [fp, #-36]
30000fa4:	e51b301c 	ldr	r3, [fp, #-28]
30000fa8:	e2833002 	add	r3, r3, #2	; 0x2
30000fac:	e50b301c 	str	r3, [fp, #-28]
30000fb0:	eaffffc6 	b	30000ed0 <S3C2440_NorFlash_Write+0x3c>
30000fb4:	e51b2014 	ldr	r2, [fp, #-20]
30000fb8:	e51b3024 	ldr	r3, [fp, #-36]
30000fbc:	e0823003 	add	r3, r2, r3
30000fc0:	e5d33000 	ldrb	r3, [r3]
30000fc4:	e50b3028 	str	r3, [fp, #-40]
30000fc8:	e3a00e55 	mov	r0, #1360	; 0x550
30000fcc:	e2800005 	add	r0, r0, #5	; 0x5
30000fd0:	e3a010aa 	mov	r1, #170	; 0xaa
30000fd4:	ebffff2c 	bl	30000c8c <S3C2440_NorFlash_Write_Command>
30000fd8:	e3a00faa 	mov	r0, #680	; 0x2a8
30000fdc:	e2800002 	add	r0, r0, #2	; 0x2
30000fe0:	e3a01055 	mov	r1, #85	; 0x55
30000fe4:	ebffff28 	bl	30000c8c <S3C2440_NorFlash_Write_Command>
30000fe8:	e3a00e55 	mov	r0, #1360	; 0x550
30000fec:	e2800005 	add	r0, r0, #5	; 0x5
30000ff0:	e3a010a0 	mov	r1, #160	; 0xa0
30000ff4:	ebffff24 	bl	30000c8c <S3C2440_NorFlash_Write_Command>
30000ff8:	e51b301c 	ldr	r3, [fp, #-28]
30000ffc:	e1a020a3 	mov	r2, r3, lsr #1
30001000:	e51b3028 	ldr	r3, [fp, #-40]
30001004:	e1a03803 	mov	r3, r3, lsl #16
30001008:	e1a03823 	mov	r3, r3, lsr #16
3000100c:	e1a00002 	mov	r0, r2
30001010:	e1a01003 	mov	r1, r3
30001014:	ebffff1c 	bl	30000c8c <S3C2440_NorFlash_Write_Command>
30001018:	e51b301c 	ldr	r3, [fp, #-28]
3000101c:	e1a030a3 	mov	r3, r3, lsr #1
30001020:	e1a00003 	mov	r0, r3
30001024:	ebffff33 	bl	30000cf8 <S3C2440_NorFlash_Wait_Ready>
30001028:	e24bd00c 	sub	sp, fp, #12	; 0xc
3000102c:	e89da800 	ldmia	sp, {fp, sp, pc}

30001030 <printException>:
30001030:	e1a0c00d 	mov	ip, sp
30001034:	e92dd800 	stmdb	sp!, {fp, ip, lr, pc}
30001038:	e24cb004 	sub	fp, ip, #4	; 0x4
3000103c:	e24dd008 	sub	sp, sp, #8	; 0x8
30001040:	e50b0010 	str	r0, [fp, #-16]
30001044:	e50b1014 	str	r1, [fp, #-20]
30001048:	eb0006d3 	bl	30002b9c <S3C2440_LedInitialized>
3000104c:	eb0006e4 	bl	30002be4 <S3C2440_KeyInitialized>
30001050:	eb000702 	bl	30002c60 <S3C2440_Uart0Initialized>
30001054:	e59f002c 	ldr	r0, [pc, #44]	; 30001088 <.init.text+0xed8>
30001058:	eb001636 	bl	30006938 <standard_putchar_callback>
3000105c:	e59f0028 	ldr	r0, [pc, #40]	; 3000108c <.init.text+0xedc>
30001060:	e51b1014 	ldr	r1, [fp, #-20]
30001064:	eb0015e7 	bl	30006808 <printf_>
30001068:	e59f0020 	ldr	r0, [pc, #32]	; 30001090 <.init.text+0xee0>
3000106c:	e51b1010 	ldr	r1, [fp, #-16]
30001070:	eb0015e4 	bl	30006808 <printf_>
30001074:	e59f0018 	ldr	r0, [pc, #24]	; 30001094 <.init.text+0xee4>
30001078:	e51b1014 	ldr	r1, [fp, #-20]
3000107c:	eb0015e1 	bl	30006808 <printf_>
30001080:	e24bd00c 	sub	sp, fp, #12	; 0xc
30001084:	e89da800 	ldmia	sp, {fp, sp, pc}
30001088:	30002d24 	andcc	r2, r0, r4, lsr #26
3000108c:	300069e0 	andcc	r6, r0, r0, ror #19
30001090:	300069f4 	strccd	r6, [r0], -r4
30001094:	30006a08 	andcc	r6, r0, r8, lsl #20

30001098 <printSWIVal>:
30001098:	e1a0c00d 	mov	ip, sp
3000109c:	e92dd800 	stmdb	sp!, {fp, ip, lr, pc}
300010a0:	e24cb004 	sub	fp, ip, #4	; 0x4
300010a4:	e24dd008 	sub	sp, sp, #8	; 0x8
300010a8:	e50b0010 	str	r0, [fp, #-16]
300010ac:	e51b3010 	ldr	r3, [fp, #-16]
300010b0:	e5933000 	ldr	r3, [r3]
300010b4:	e3c334ff 	bic	r3, r3, #-16777216	; 0xff000000
300010b8:	e50b3014 	str	r3, [fp, #-20]
300010bc:	eb0006b6 	bl	30002b9c <S3C2440_LedInitialized>
300010c0:	eb0006c7 	bl	30002be4 <S3C2440_KeyInitialized>
300010c4:	eb0006e5 	bl	30002c60 <S3C2440_Uart0Initialized>
300010c8:	e59f0014 	ldr	r0, [pc, #20]	; 300010e4 <.init.text+0xf34>
300010cc:	eb001619 	bl	30006938 <standard_putchar_callback>
300010d0:	e59f0010 	ldr	r0, [pc, #16]	; 300010e8 <.init.text+0xf38>
300010d4:	e51b1014 	ldr	r1, [fp, #-20]
300010d8:	eb0015ca 	bl	30006808 <printf_>
300010dc:	e24bd00c 	sub	sp, fp, #12	; 0xc
300010e0:	e89da800 	ldmia	sp, {fp, sp, pc}
300010e4:	30002d24 	andcc	r2, r0, r4, lsr #26
300010e8:	30006a1c 	andcc	r6, r0, ip, lsl sl

300010ec <debugPrint1>:
300010ec:	e1a0c00d 	mov	ip, sp
300010f0:	e92dd800 	stmdb	sp!, {fp, ip, lr, pc}
300010f4:	e24cb004 	sub	fp, ip, #4	; 0x4
300010f8:	eb0006d8 	bl	30002c60 <S3C2440_Uart0Initialized>
300010fc:	e59f0004 	ldr	r0, [pc, #4]	; 30001108 <.init.text+0xf58>
30001100:	eb00072a 	bl	30002db0 <S3C2440_Uart0_Puts>
30001104:	e89da800 	ldmia	sp, {fp, sp, pc}
30001108:	30006a2c 	andcc	r6, r0, ip, lsr #20

3000110c <debugPrint2>:
3000110c:	e1a0c00d 	mov	ip, sp
30001110:	e92dd800 	stmdb	sp!, {fp, ip, lr, pc}
30001114:	e24cb004 	sub	fp, ip, #4	; 0x4
30001118:	eb0006d0 	bl	30002c60 <S3C2440_Uart0Initialized>
3000111c:	e59f0004 	ldr	r0, [pc, #4]	; 30001128 <.init.text+0xf78>
30001120:	eb000722 	bl	30002db0 <S3C2440_Uart0_Puts>
30001124:	e89da800 	ldmia	sp, {fp, sp, pc}
30001128:	30006a38 	andcc	r6, r0, r8, lsr sl

3000112c <main>:
3000112c:	e1a0c00d 	mov	ip, sp
30001130:	e92dd800 	stmdb	sp!, {fp, ip, lr, pc}
30001134:	e24cb004 	sub	fp, ip, #4	; 0x4
30001138:	e24dd008 	sub	sp, sp, #8	; 0x8
3000113c:	e50b0010 	str	r0, [fp, #-16]
30001140:	e50b1014 	str	r1, [fp, #-20]
30001144:	eb000694 	bl	30002b9c <S3C2440_LedInitialized>
30001148:	eb0006a5 	bl	30002be4 <S3C2440_KeyInitialized>
3000114c:	eb0006c3 	bl	30002c60 <S3C2440_Uart0Initialized>
30001150:	eb000731 	bl	30002e1c <S3C2440_EXTI_Init>
30001154:	eb0008dc 	bl	300034cc <S3C2440_TIMER0_Init>
30001158:	eb000915 	bl	300035b4 <S3C2440_TIMER1_Init>
3000115c:	e59f00b0 	ldr	r0, [pc, #176]	; 30001214 <.init.text+0x1064>
30001160:	eb0015f4 	bl	30006938 <standard_putchar_callback>
30001164:	e59f00a8 	ldr	r0, [pc, #168]	; 30001214 <.init.text+0x1064>
30001168:	eb0015fc 	bl	30006960 <string_putchar_callback>
3000116c:	e59f00a4 	ldr	r0, [pc, #164]	; 30001218 <.init.text+0x1068>
30001170:	eb001604 	bl	30006988 <string_getchar_callback>
30001174:	e59f00a0 	ldr	r0, [pc, #160]	; 3000121c <.init.text+0x106c>
30001178:	e3a01000 	mov	r1, #0	; 0x0
3000117c:	e59f209c 	ldr	r2, [pc, #156]	; 30001220 <.init.text+0x1070>
30001180:	eb000791 	bl	30002fcc <S3C2440_EXTI_Register>
30001184:	e59f0098 	ldr	r0, [pc, #152]	; 30001224 <.init.text+0x1074>
30001188:	e3a01002 	mov	r1, #2	; 0x2
3000118c:	e59f2094 	ldr	r2, [pc, #148]	; 30001228 <.init.text+0x1078>
30001190:	eb00078d 	bl	30002fcc <S3C2440_EXTI_Register>
30001194:	e59f0090 	ldr	r0, [pc, #144]	; 3000122c <.init.text+0x107c>
30001198:	e3a01005 	mov	r1, #5	; 0x5
3000119c:	e59f208c 	ldr	r2, [pc, #140]	; 30001230 <.init.text+0x1080>
300011a0:	eb000789 	bl	30002fcc <S3C2440_EXTI_Register>
300011a4:	e59f0088 	ldr	r0, [pc, #136]	; 30001234 <.init.text+0x1084>
300011a8:	e3a0100a 	mov	r1, #10	; 0xa
300011ac:	e59f2084 	ldr	r2, [pc, #132]	; 30001238 <.init.text+0x1088>
300011b0:	eb000939 	bl	3000369c <S3C2440_TIMER_Register>
300011b4:	e59f0080 	ldr	r0, [pc, #128]	; 3000123c <.init.text+0x108c>
300011b8:	e3a0100b 	mov	r1, #11	; 0xb
300011bc:	e59f207c 	ldr	r2, [pc, #124]	; 30001240 <.init.text+0x1090>
300011c0:	eb000935 	bl	3000369c <S3C2440_TIMER_Register>
300011c4:	e59f0078 	ldr	r0, [pc, #120]	; 30001244 <.init.text+0x1094>
300011c8:	e3a01001 	mov	r1, #1	; 0x1
300011cc:	e3a02000 	mov	r2, #0	; 0x0
300011d0:	eb0015b7 	bl	300068b4 <printfln_>
300011d4:	e59f006c 	ldr	r0, [pc, #108]	; 30001248 <.init.text+0x1098>
300011d8:	eb0015b5 	bl	300068b4 <printfln_>
300011dc:	e59f3068 	ldr	r3, [pc, #104]	; 3000124c <.init.text+0x109c>
300011e0:	e59f0068 	ldr	r0, [pc, #104]	; 30001250 <.init.text+0x10a0>
300011e4:	e5931000 	ldr	r1, [r3]
300011e8:	eb0015b1 	bl	300068b4 <printfln_>
300011ec:	e3e004ff 	mvn	r0, #-16777216	; 0xff000000
300011f0:	e240073f 	sub	r0, r0, #16515072	; 0xfc0000
300011f4:	eb0015ed 	bl	300069b0 <delay_simulate>
300011f8:	e3e004ff 	mvn	r0, #-16777216	; 0xff000000
300011fc:	e240073f 	sub	r0, r0, #16515072	; 0xfc0000
30001200:	eb0015ea 	bl	300069b0 <delay_simulate>
30001204:	e3e004ff 	mvn	r0, #-16777216	; 0xff000000
30001208:	e240073f 	sub	r0, r0, #16515072	; 0xfc0000
3000120c:	eb0015e7 	bl	300069b0 <delay_simulate>
30001210:	eafffff5 	b	300011ec <main+0xc0>
30001214:	30002d24 	andcc	r2, r0, r4, lsr #26
30001218:	30002d70 	andcc	r2, r0, r0, ror sp
3000121c:	30006a74 	andcc	r6, r0, r4, ror sl
30001220:	300031b8 	strcch	r3, [r0], -r8
30001224:	30006a80 	andcc	r6, r0, r0, lsl #21
30001228:	30003258 	andcc	r3, r0, r8, asr r2
3000122c:	30006a8c 	andcc	r6, r0, ip, lsl #21
30001230:	300032f8 	strccd	r3, [r0], -r8
30001234:	30006a98 	mulcc	r0, r8, sl
30001238:	30003888 	andcc	r3, r0, r8, lsl #17
3000123c:	30006aa4 	andcc	r6, r0, r4, lsr #21
30001240:	30003980 	andcc	r3, r0, r0, lsl #19
30001244:	30006ab0 	strcch	r6, [r0], -r0
30001248:	30006ad0 	ldrccd	r6, [r0], -r0
3000124c:	30006c64 	andcc	r6, r0, r4, ror #24
30001250:	30006af8 	strccd	r6, [r0], -r8
Disassembly of section .text:

30001260 <__udivsi3>:
30001260:	e2512001 	subs	r2, r1, #1	; 0x1
30001264:	01a0f00e 	moveq	pc, lr
30001268:	3a0000e5 	bcc	30001604 <Ldiv0>
3000126c:	e1500001 	cmp	r0, r1
30001270:	9a000022 	bls	30001300 <__udivsi3+0xa0>
30001274:	e1110002 	tst	r1, r2
30001278:	0a000023 	beq	3000130c <__udivsi3+0xac>
3000127c:	e311020e 	tst	r1, #-536870912	; 0xe0000000
30001280:	01a01181 	moveq	r1, r1, lsl #3
30001284:	03a03008 	moveq	r3, #8	; 0x8
30001288:	13a03001 	movne	r3, #1	; 0x1
3000128c:	e3510201 	cmp	r1, #268435456	; 0x10000000
30001290:	31510000 	cmpcc	r1, r0
30001294:	31a01201 	movcc	r1, r1, lsl #4
30001298:	31a03203 	movcc	r3, r3, lsl #4
3000129c:	3afffffa 	bcc	3000128c <__udivsi3+0x2c>
300012a0:	e3510102 	cmp	r1, #-2147483648	; 0x80000000
300012a4:	31510000 	cmpcc	r1, r0
300012a8:	31a01081 	movcc	r1, r1, lsl #1
300012ac:	31a03083 	movcc	r3, r3, lsl #1
300012b0:	3afffffa 	bcc	300012a0 <__udivsi3+0x40>
300012b4:	e3a02000 	mov	r2, #0	; 0x0
300012b8:	e1500001 	cmp	r0, r1
300012bc:	20400001 	subcs	r0, r0, r1
300012c0:	21822003 	orrcs	r2, r2, r3
300012c4:	e15000a1 	cmp	r0, r1, lsr #1
300012c8:	204000a1 	subcs	r0, r0, r1, lsr #1
300012cc:	218220a3 	orrcs	r2, r2, r3, lsr #1
300012d0:	e1500121 	cmp	r0, r1, lsr #2
300012d4:	20400121 	subcs	r0, r0, r1, lsr #2
300012d8:	21822123 	orrcs	r2, r2, r3, lsr #2
300012dc:	e15001a1 	cmp	r0, r1, lsr #3
300012e0:	204001a1 	subcs	r0, r0, r1, lsr #3
300012e4:	218221a3 	orrcs	r2, r2, r3, lsr #3
300012e8:	e3500000 	cmp	r0, #0	; 0x0
300012ec:	11b03223 	movnes	r3, r3, lsr #4
300012f0:	11a01221 	movne	r1, r1, lsr #4
300012f4:	1affffef 	bne	300012b8 <__udivsi3+0x58>
300012f8:	e1a00002 	mov	r0, r2
300012fc:	e1a0f00e 	mov	pc, lr
30001300:	03a00001 	moveq	r0, #1	; 0x1
30001304:	13a00000 	movne	r0, #0	; 0x0
30001308:	e1a0f00e 	mov	pc, lr
3000130c:	e3510801 	cmp	r1, #65536	; 0x10000
30001310:	21a01821 	movcs	r1, r1, lsr #16
30001314:	23a02010 	movcs	r2, #16	; 0x10
30001318:	33a02000 	movcc	r2, #0	; 0x0
3000131c:	e3510c01 	cmp	r1, #256	; 0x100
30001320:	21a01421 	movcs	r1, r1, lsr #8
30001324:	22822008 	addcs	r2, r2, #8	; 0x8
30001328:	e3510010 	cmp	r1, #16	; 0x10
3000132c:	21a01221 	movcs	r1, r1, lsr #4
30001330:	22822004 	addcs	r2, r2, #4	; 0x4
30001334:	e3510004 	cmp	r1, #4	; 0x4
30001338:	82822003 	addhi	r2, r2, #3	; 0x3
3000133c:	908220a1 	addls	r2, r2, r1, lsr #1
30001340:	e1a00230 	mov	r0, r0, lsr r2
30001344:	e1a0f00e 	mov	pc, lr
30001348:	90909090 	umulllss	r9, r0, r0, r0
3000134c:	90909090 	umulllss	r9, r0, r0, r0

30001350 <__umodsi3>:
30001350:	e2512001 	subs	r2, r1, #1	; 0x1
30001354:	3a0000aa 	bcc	30001604 <Ldiv0>
30001358:	11500001 	cmpne	r0, r1
3000135c:	03a00000 	moveq	r0, #0	; 0x0
30001360:	81110002 	tsthi	r1, r2
30001364:	00000002 	andeq	r0, r0, r2
30001368:	91a0f00e 	movls	pc, lr
3000136c:	e3a02000 	mov	r2, #0	; 0x0
30001370:	e3510201 	cmp	r1, #268435456	; 0x10000000
30001374:	31510000 	cmpcc	r1, r0
30001378:	31a01201 	movcc	r1, r1, lsl #4
3000137c:	32822004 	addcc	r2, r2, #4	; 0x4
30001380:	3afffffa 	bcc	30001370 <__umodsi3+0x20>
30001384:	e3510102 	cmp	r1, #-2147483648	; 0x80000000
30001388:	31510000 	cmpcc	r1, r0
3000138c:	31a01081 	movcc	r1, r1, lsl #1
30001390:	32822001 	addcc	r2, r2, #1	; 0x1
30001394:	3afffffa 	bcc	30001384 <__umodsi3+0x34>
30001398:	e2522003 	subs	r2, r2, #3	; 0x3
3000139c:	ba00000e 	blt	300013dc <__umodsi3+0x8c>
300013a0:	e1500001 	cmp	r0, r1
300013a4:	20400001 	subcs	r0, r0, r1
300013a8:	e15000a1 	cmp	r0, r1, lsr #1
300013ac:	204000a1 	subcs	r0, r0, r1, lsr #1
300013b0:	e1500121 	cmp	r0, r1, lsr #2
300013b4:	20400121 	subcs	r0, r0, r1, lsr #2
300013b8:	e15001a1 	cmp	r0, r1, lsr #3
300013bc:	204001a1 	subcs	r0, r0, r1, lsr #3
300013c0:	e3500001 	cmp	r0, #1	; 0x1
300013c4:	e1a01221 	mov	r1, r1, lsr #4
300013c8:	a2522004 	subges	r2, r2, #4	; 0x4
300013cc:	aafffff3 	bge	300013a0 <__umodsi3+0x50>
300013d0:	e3120003 	tst	r2, #3	; 0x3
300013d4:	13300000 	teqne	r0, #0	; 0x0
300013d8:	0a00000a 	beq	30001408 <__umodsi3+0xb8>
300013dc:	e3720002 	cmn	r2, #2	; 0x2
300013e0:	ba000006 	blt	30001400 <__umodsi3+0xb0>
300013e4:	0a000002 	beq	300013f4 <__umodsi3+0xa4>
300013e8:	e1500001 	cmp	r0, r1
300013ec:	20400001 	subcs	r0, r0, r1
300013f0:	e1a010a1 	mov	r1, r1, lsr #1
300013f4:	e1500001 	cmp	r0, r1
300013f8:	20400001 	subcs	r0, r0, r1
300013fc:	e1a010a1 	mov	r1, r1, lsr #1
30001400:	e1500001 	cmp	r0, r1
30001404:	20400001 	subcs	r0, r0, r1
30001408:	e1a0f00e 	mov	pc, lr
3000140c:	90909090 	umulllss	r9, r0, r0, r0

30001410 <__divsi3>:
30001410:	e3510000 	cmp	r1, #0	; 0x0
30001414:	e020c001 	eor	ip, r0, r1
30001418:	0a000079 	beq	30001604 <Ldiv0>
3000141c:	42611000 	rsbmi	r1, r1, #0	; 0x0
30001420:	e2512001 	subs	r2, r1, #1	; 0x1
30001424:	0a000027 	beq	300014c8 <__divsi3+0xb8>
30001428:	e1b03000 	movs	r3, r0
3000142c:	42603000 	rsbmi	r3, r0, #0	; 0x0
30001430:	e1530001 	cmp	r3, r1
30001434:	9a000026 	bls	300014d4 <__divsi3+0xc4>
30001438:	e1110002 	tst	r1, r2
3000143c:	0a000028 	beq	300014e4 <__divsi3+0xd4>
30001440:	e311020e 	tst	r1, #-536870912	; 0xe0000000
30001444:	01a01181 	moveq	r1, r1, lsl #3
30001448:	03a02008 	moveq	r2, #8	; 0x8
3000144c:	13a02001 	movne	r2, #1	; 0x1
30001450:	e3510201 	cmp	r1, #268435456	; 0x10000000
30001454:	31510003 	cmpcc	r1, r3
30001458:	31a01201 	movcc	r1, r1, lsl #4
3000145c:	31a02202 	movcc	r2, r2, lsl #4
30001460:	3afffffa 	bcc	30001450 <__divsi3+0x40>
30001464:	e3510102 	cmp	r1, #-2147483648	; 0x80000000
30001468:	31510003 	cmpcc	r1, r3
3000146c:	31a01081 	movcc	r1, r1, lsl #1
30001470:	31a02082 	movcc	r2, r2, lsl #1
30001474:	3afffffa 	bcc	30001464 <__divsi3+0x54>
30001478:	e3a00000 	mov	r0, #0	; 0x0
3000147c:	e1530001 	cmp	r3, r1
30001480:	20433001 	subcs	r3, r3, r1
30001484:	21800002 	orrcs	r0, r0, r2
30001488:	e15300a1 	cmp	r3, r1, lsr #1
3000148c:	204330a1 	subcs	r3, r3, r1, lsr #1
30001490:	218000a2 	orrcs	r0, r0, r2, lsr #1
30001494:	e1530121 	cmp	r3, r1, lsr #2
30001498:	20433121 	subcs	r3, r3, r1, lsr #2
3000149c:	21800122 	orrcs	r0, r0, r2, lsr #2
300014a0:	e15301a1 	cmp	r3, r1, lsr #3
300014a4:	204331a1 	subcs	r3, r3, r1, lsr #3
300014a8:	218001a2 	orrcs	r0, r0, r2, lsr #3
300014ac:	e3530000 	cmp	r3, #0	; 0x0
300014b0:	11b02222 	movnes	r2, r2, lsr #4
300014b4:	11a01221 	movne	r1, r1, lsr #4
300014b8:	1affffef 	bne	3000147c <__divsi3+0x6c>
300014bc:	e35c0000 	cmp	ip, #0	; 0x0
300014c0:	42600000 	rsbmi	r0, r0, #0	; 0x0
300014c4:	e1a0f00e 	mov	pc, lr
300014c8:	e13c0000 	teq	ip, r0
300014cc:	42600000 	rsbmi	r0, r0, #0	; 0x0
300014d0:	e1a0f00e 	mov	pc, lr
300014d4:	33a00000 	movcc	r0, #0	; 0x0
300014d8:	01a00fcc 	moveq	r0, ip, asr #31
300014dc:	03800001 	orreq	r0, r0, #1	; 0x1
300014e0:	e1a0f00e 	mov	pc, lr
300014e4:	e3510801 	cmp	r1, #65536	; 0x10000
300014e8:	21a01821 	movcs	r1, r1, lsr #16
300014ec:	23a02010 	movcs	r2, #16	; 0x10
300014f0:	33a02000 	movcc	r2, #0	; 0x0
300014f4:	e3510c01 	cmp	r1, #256	; 0x100
300014f8:	21a01421 	movcs	r1, r1, lsr #8
300014fc:	22822008 	addcs	r2, r2, #8	; 0x8
30001500:	e3510010 	cmp	r1, #16	; 0x10
30001504:	21a01221 	movcs	r1, r1, lsr #4
30001508:	22822004 	addcs	r2, r2, #4	; 0x4
3000150c:	e3510004 	cmp	r1, #4	; 0x4
30001510:	82822003 	addhi	r2, r2, #3	; 0x3
30001514:	908220a1 	addls	r2, r2, r1, lsr #1
30001518:	e35c0000 	cmp	ip, #0	; 0x0
3000151c:	e1a00233 	mov	r0, r3, lsr r2
30001520:	42600000 	rsbmi	r0, r0, #0	; 0x0
30001524:	e1a0f00e 	mov	pc, lr
30001528:	90909090 	umulllss	r9, r0, r0, r0
3000152c:	90909090 	umulllss	r9, r0, r0, r0

30001530 <__modsi3>:
30001530:	e3510000 	cmp	r1, #0	; 0x0
30001534:	0a000032 	beq	30001604 <Ldiv0>
30001538:	42611000 	rsbmi	r1, r1, #0	; 0x0
3000153c:	e1b0c000 	movs	ip, r0
30001540:	42600000 	rsbmi	r0, r0, #0	; 0x0
30001544:	e2512001 	subs	r2, r1, #1	; 0x1
30001548:	11500001 	cmpne	r0, r1
3000154c:	03a00000 	moveq	r0, #0	; 0x0
30001550:	81110002 	tsthi	r1, r2
30001554:	00000002 	andeq	r0, r0, r2
30001558:	9a000026 	bls	300015f8 <__modsi3+0xc8>
3000155c:	e3a02000 	mov	r2, #0	; 0x0
30001560:	e3510201 	cmp	r1, #268435456	; 0x10000000
30001564:	31510000 	cmpcc	r1, r0
30001568:	31a01201 	movcc	r1, r1, lsl #4
3000156c:	32822004 	addcc	r2, r2, #4	; 0x4
30001570:	3afffffa 	bcc	30001560 <__modsi3+0x30>
30001574:	e3510102 	cmp	r1, #-2147483648	; 0x80000000
30001578:	31510000 	cmpcc	r1, r0
3000157c:	31a01081 	movcc	r1, r1, lsl #1
30001580:	32822001 	addcc	r2, r2, #1	; 0x1
30001584:	3afffffa 	bcc	30001574 <__modsi3+0x44>
30001588:	e2522003 	subs	r2, r2, #3	; 0x3
3000158c:	ba00000e 	blt	300015cc <__modsi3+0x9c>
30001590:	e1500001 	cmp	r0, r1
30001594:	20400001 	subcs	r0, r0, r1
30001598:	e15000a1 	cmp	r0, r1, lsr #1
3000159c:	204000a1 	subcs	r0, r0, r1, lsr #1
300015a0:	e1500121 	cmp	r0, r1, lsr #2
300015a4:	20400121 	subcs	r0, r0, r1, lsr #2
300015a8:	e15001a1 	cmp	r0, r1, lsr #3
300015ac:	204001a1 	subcs	r0, r0, r1, lsr #3
300015b0:	e3500001 	cmp	r0, #1	; 0x1
300015b4:	e1a01221 	mov	r1, r1, lsr #4
300015b8:	a2522004 	subges	r2, r2, #4	; 0x4
300015bc:	aafffff3 	bge	30001590 <__modsi3+0x60>
300015c0:	e3120003 	tst	r2, #3	; 0x3
300015c4:	13300000 	teqne	r0, #0	; 0x0
300015c8:	0a00000a 	beq	300015f8 <__modsi3+0xc8>
300015cc:	e3720002 	cmn	r2, #2	; 0x2
300015d0:	ba000006 	blt	300015f0 <__modsi3+0xc0>
300015d4:	0a000002 	beq	300015e4 <__modsi3+0xb4>
300015d8:	e1500001 	cmp	r0, r1
300015dc:	20400001 	subcs	r0, r0, r1
300015e0:	e1a010a1 	mov	r1, r1, lsr #1
300015e4:	e1500001 	cmp	r0, r1
300015e8:	20400001 	subcs	r0, r0, r1
300015ec:	e1a010a1 	mov	r1, r1, lsr #1
300015f0:	e1500001 	cmp	r0, r1
300015f4:	20400001 	subcs	r0, r0, r1
300015f8:	e35c0000 	cmp	ip, #0	; 0x0
300015fc:	42600000 	rsbmi	r0, r0, #0	; 0x0
30001600:	e1a0f00e 	mov	pc, lr

30001604 <Ldiv0>:
30001604:	e52de004 	str	lr, [sp, #-4]!
30001608:	e3a00000 	mov	r0, #0	; 0x0
3000160c:	e49df004 	ldr	pc, [sp], #4

30001610 <__subdf3>:
30001610:	e2222102 	eor	r2, r2, #-2147483648	; 0x80000000

30001614 <__adddf3>:
30001614:	e1310003 	teq	r1, r3
30001618:	0020c002 	eoreq	ip, r0, r2
3000161c:	033c0102 	teqeq	ip, #-2147483648	; 0x80000000
30001620:	0a00009e 	beq	300018a0 <__adddf3+0x28c>
30001624:	e191c080 	orrs	ip, r1, r0, lsl #1
30001628:	01a01003 	moveq	r1, r3
3000162c:	01a00002 	moveq	r0, r2
30001630:	1193c082 	orrnes	ip, r3, r2, lsl #1
30001634:	01a0f00e 	moveq	pc, lr
30001638:	e92d4030 	stmdb	sp!, {r4, r5, lr}
3000163c:	e3a0c47f 	mov	ip, #2130706432	; 0x7f000000
30001640:	e38cc60f 	orr	ip, ip, #15728640	; 0xf00000
30001644:	e000400c 	and	r4, r0, ip
30001648:	e002500c 	and	r5, r2, ip
3000164c:	e134000c 	teq	r4, ip
30001650:	1135000c 	teqne	r5, ip
30001654:	0a00009c 	beq	300018cc <__adddf3+0x2b8>
30001658:	e0555004 	subs	r5, r5, r4
3000165c:	b2655000 	rsblt	r5, r5, #0	; 0x0
30001660:	da000006 	ble	30001680 <__adddf3+0x6c>
30001664:	e0844005 	add	r4, r4, r5
30001668:	e0213003 	eor	r3, r1, r3
3000166c:	e0202002 	eor	r2, r0, r2
30001670:	e0231001 	eor	r1, r3, r1
30001674:	e0220000 	eor	r0, r2, r0
30001678:	e0213003 	eor	r3, r1, r3
3000167c:	e0202002 	eor	r2, r0, r2
30001680:	e3550636 	cmp	r5, #56623104	; 0x3600000
30001684:	88bd8030 	ldmhiia	sp!, {r4, r5, pc}
30001688:	e3100102 	tst	r0, #-2147483648	; 0x80000000
3000168c:	e1c0008c 	bic	r0, r0, ip, lsl #1
30001690:	e3800601 	orr	r0, r0, #1048576	; 0x100000
30001694:	0a000001 	beq	300016a0 <__adddf3+0x8c>
30001698:	e2711000 	rsbs	r1, r1, #0	; 0x0
3000169c:	e2e00000 	rsc	r0, r0, #0	; 0x0
300016a0:	e3120102 	tst	r2, #-2147483648	; 0x80000000
300016a4:	e1c2208c 	bic	r2, r2, ip, lsl #1
300016a8:	e3822601 	orr	r2, r2, #1048576	; 0x100000
300016ac:	0a000001 	beq	300016b8 <__adddf3+0xa4>
300016b0:	e2733000 	rsbs	r3, r3, #0	; 0x0
300016b4:	e2e22000 	rsc	r2, r2, #0	; 0x0
300016b8:	e1340005 	teq	r4, r5
300016bc:	0a000071 	beq	30001888 <__adddf3+0x274>
300016c0:	e3a0c000 	mov	ip, #0	; 0x0
300016c4:	e1b05a25 	movs	r5, r5, lsr #20
300016c8:	0a000013 	beq	3000171c <__adddf3+0x108>
300016cc:	e3340601 	teq	r4, #1048576	; 0x100000
300016d0:	0a000004 	beq	300016e8 <__adddf3+0xd4>
300016d4:	e1b01081 	movs	r1, r1, lsl #1
300016d8:	e0ac0080 	adc	r0, ip, r0, lsl #1
300016dc:	e2444601 	sub	r4, r4, #1048576	; 0x100000
300016e0:	e2555001 	subs	r5, r5, #1	; 0x1
300016e4:	0a00000c 	beq	3000171c <__adddf3+0x108>
300016e8:	e275e020 	rsbs	lr, r5, #32	; 0x20
300016ec:	ba000004 	blt	30001704 <__adddf3+0xf0>
300016f0:	e1a0ce13 	mov	ip, r3, lsl lr
300016f4:	e1a03533 	mov	r3, r3, lsr r5
300016f8:	e1833e12 	orr	r3, r3, r2, lsl lr
300016fc:	e1a02552 	mov	r2, r2, asr r5
30001700:	ea000005 	b	3000171c <__adddf3+0x108>
30001704:	e2455020 	sub	r5, r5, #32	; 0x20
30001708:	e28ee020 	add	lr, lr, #32	; 0x20
3000170c:	e3530001 	cmp	r3, #1	; 0x1
30001710:	e0acce12 	adc	ip, ip, r2, lsl lr
30001714:	e1a03552 	mov	r3, r2, asr r5
30001718:	e1a02042 	mov	r2, r2, asr #32
3000171c:	e0911003 	adds	r1, r1, r3
30001720:	e0a00002 	adc	r0, r0, r2
30001724:	e2105102 	ands	r5, r0, #-2147483648	; 0x80000000
30001728:	5a000002 	bpl	30001738 <__adddf3+0x124>
3000172c:	e27cc000 	rsbs	ip, ip, #0	; 0x0
30001730:	e2f11000 	rscs	r1, r1, #0	; 0x0
30001734:	e2e00000 	rsc	r0, r0, #0	; 0x0
30001738:	e3500601 	cmp	r0, #1048576	; 0x100000
3000173c:	3a000019 	bcc	300017a8 <__adddf3+0x194>
30001740:	e3500602 	cmp	r0, #2097152	; 0x200000
30001744:	3a00000b 	bcc	30001778 <__adddf3+0x164>
30001748:	e3500501 	cmp	r0, #4194304	; 0x400000
3000174c:	3a000004 	bcc	30001764 <__adddf3+0x150>
30001750:	e1b000a0 	movs	r0, r0, lsr #1
30001754:	e1b01061 	movs	r1, r1, rrx
30001758:	e1b0c06c 	movs	ip, ip, rrx
3000175c:	238cc001 	orrcs	ip, ip, #1	; 0x1
30001760:	e2844601 	add	r4, r4, #1048576	; 0x100000
30001764:	e1b000a0 	movs	r0, r0, lsr #1
30001768:	e1b01061 	movs	r1, r1, rrx
3000176c:	e1b0c06c 	movs	ip, ip, rrx
30001770:	238cc001 	orrcs	ip, ip, #1	; 0x1
30001774:	e2844601 	add	r4, r4, #1048576	; 0x100000
30001778:	e0911fac 	adds	r1, r1, ip, lsr #31
3000177c:	e2a00000 	adc	r0, r0, #0	; 0x0
30001780:	e33c0102 	teq	ip, #-2147483648	; 0x80000000
30001784:	03c11001 	biceq	r1, r1, #1	; 0x1
30001788:	e3100602 	tst	r0, #2097152	; 0x200000
3000178c:	12844601 	addne	r4, r4, #1048576	; 0x100000
30001790:	e294c601 	adds	ip, r4, #1048576	; 0x100000
30001794:	4a000048 	bmi	300018bc <__adddf3+0x2a8>
30001798:	e3c00603 	bic	r0, r0, #3145728	; 0x300000
3000179c:	e1800004 	orr	r0, r0, r4
300017a0:	e1800005 	orr	r0, r0, r5
300017a4:	e8bd8030 	ldmia	sp!, {r4, r5, pc}
300017a8:	e3300000 	teq	r0, #0	; 0x0
300017ac:	13e0300a 	mvnne	r3, #10	; 0xa
300017b0:	03a03015 	moveq	r3, #21	; 0x15
300017b4:	01a00001 	moveq	r0, r1
300017b8:	03a01000 	moveq	r1, #0	; 0x0
300017bc:	e1a02000 	mov	r2, r0
300017c0:	e1b0c820 	movs	ip, r0, lsr #16
300017c4:	01a02802 	moveq	r2, r2, lsl #16
300017c8:	02833010 	addeq	r3, r3, #16	; 0x10
300017cc:	e31204ff 	tst	r2, #-16777216	; 0xff000000
300017d0:	01a02402 	moveq	r2, r2, lsl #8
300017d4:	02833008 	addeq	r3, r3, #8	; 0x8
300017d8:	e312020f 	tst	r2, #-268435456	; 0xf0000000
300017dc:	01a02202 	moveq	r2, r2, lsl #4
300017e0:	02833004 	addeq	r3, r3, #4	; 0x4
300017e4:	e3120103 	tst	r2, #-1073741824	; 0xc0000000
300017e8:	01a02102 	moveq	r2, r2, lsl #2
300017ec:	02833002 	addeq	r3, r3, #2	; 0x2
300017f0:	e3120102 	tst	r2, #-2147483648	; 0x80000000
300017f4:	02833001 	addeq	r3, r3, #1	; 0x1
300017f8:	e2532020 	subs	r2, r3, #32	; 0x20
300017fc:	aa000007 	bge	30001820 <__adddf3+0x20c>
30001800:	e292200c 	adds	r2, r2, #12	; 0xc
30001804:	da000004 	ble	3000181c <__adddf3+0x208>
30001808:	e282c014 	add	ip, r2, #20	; 0x14
3000180c:	e262200c 	rsb	r2, r2, #12	; 0xc
30001810:	e1a01c10 	mov	r1, r0, lsl ip
30001814:	e1a00230 	mov	r0, r0, lsr r2
30001818:	ea000004 	b	30001830 <__adddf3+0x21c>
3000181c:	e2822014 	add	r2, r2, #20	; 0x14
30001820:	d262c020 	rsble	ip, r2, #32	; 0x20
30001824:	e1a00210 	mov	r0, r0, lsl r2
30001828:	d1800c31 	orrle	r0, r0, r1, lsr ip
3000182c:	d1a01211 	movle	r1, r1, lsl r2
30001830:	e0544a03 	subs	r4, r4, r3, lsl #20
30001834:	caffffd7 	bgt	30001798 <__adddf3+0x184>
30001838:	e1e04a44 	mvn	r4, r4, asr #20
3000183c:	e254401e 	subs	r4, r4, #30	; 0x1e
30001840:	aa00000d 	bge	3000187c <__adddf3+0x268>
30001844:	e294400c 	adds	r4, r4, #12	; 0xc
30001848:	ca000005 	bgt	30001864 <__adddf3+0x250>
3000184c:	e2844014 	add	r4, r4, #20	; 0x14
30001850:	e2642020 	rsb	r2, r4, #32	; 0x20
30001854:	e1a01431 	mov	r1, r1, lsr r4
30001858:	e1811210 	orr	r1, r1, r0, lsl r2
3000185c:	e1850430 	orr	r0, r5, r0, lsr r4
30001860:	e8bd8030 	ldmia	sp!, {r4, r5, pc}
30001864:	e264400c 	rsb	r4, r4, #12	; 0xc
30001868:	e2642020 	rsb	r2, r4, #32	; 0x20
3000186c:	e1a01231 	mov	r1, r1, lsr r2
30001870:	e1811410 	orr	r1, r1, r0, lsl r4
30001874:	e1a00005 	mov	r0, r5
30001878:	e8bd8030 	ldmia	sp!, {r4, r5, pc}
3000187c:	e1a01430 	mov	r1, r0, lsr r4
30001880:	e1a00005 	mov	r0, r5
30001884:	e8bd8030 	ldmia	sp!, {r4, r5, pc}
30001888:	e3340000 	teq	r4, #0	; 0x0
3000188c:	02200601 	eoreq	r0, r0, #1048576	; 0x100000
30001890:	02844601 	addeq	r4, r4, #1048576	; 0x100000
30001894:	e2222601 	eor	r2, r2, #1048576	; 0x100000
30001898:	12455601 	subne	r5, r5, #1048576	; 0x100000
3000189c:	eaffff87 	b	300016c0 <__adddf3+0xac>
300018a0:	e24cc601 	sub	ip, ip, #1048576	; 0x100000
300018a4:	e000200c 	and	r2, r0, ip
300018a8:	e132000c 	teq	r2, ip
300018ac:	038c0702 	orreq	r0, ip, #524288	; 0x80000
300018b0:	13a00000 	movne	r0, #0	; 0x0
300018b4:	e3a01000 	mov	r1, #0	; 0x0
300018b8:	e1a0f00e 	mov	pc, lr
300018bc:	e385047f 	orr	r0, r5, #2130706432	; 0x7f000000
300018c0:	e380060f 	orr	r0, r0, #15728640	; 0xf00000
300018c4:	e3a01000 	mov	r1, #0	; 0x0
300018c8:	e8bd8030 	ldmia	sp!, {r4, r5, pc}
300018cc:	e134000c 	teq	r4, ip
300018d0:	11a00002 	movne	r0, r2
300018d4:	11a01003 	movne	r1, r3
300018d8:	0135000c 	teqeq	r5, ip
300018dc:	18bd8030 	ldmneia	sp!, {r4, r5, pc}
300018e0:	e1914600 	orrs	r4, r1, r0, lsl #12
300018e4:	01934602 	orreqs	r4, r3, r2, lsl #12
300018e8:	01300002 	teqeq	r0, r2
300018ec:	13850702 	orrne	r0, r5, #524288	; 0x80000
300018f0:	13a01000 	movne	r1, #0	; 0x0
300018f4:	e8bd8030 	ldmia	sp!, {r4, r5, pc}

300018f8 <__floatunsidf>:
300018f8:	e3300000 	teq	r0, #0	; 0x0
300018fc:	03a01000 	moveq	r1, #0	; 0x0
30001900:	01a0f00e 	moveq	pc, lr
30001904:	e92d4030 	stmdb	sp!, {r4, r5, lr}
30001908:	e3a04101 	mov	r4, #1073741824	; 0x40000000
3000190c:	e2844633 	add	r4, r4, #53477376	; 0x3300000
30001910:	e3a05000 	mov	r5, #0	; 0x0
30001914:	e1a01000 	mov	r1, r0
30001918:	e3a00000 	mov	r0, #0	; 0x0
3000191c:	eaffffa1 	b	300017a8 <__adddf3+0x194>

30001920 <__floatsidf>:
30001920:	e3300000 	teq	r0, #0	; 0x0
30001924:	03a01000 	moveq	r1, #0	; 0x0
30001928:	01a0f00e 	moveq	pc, lr
3000192c:	e92d4030 	stmdb	sp!, {r4, r5, lr}
30001930:	e3a04101 	mov	r4, #1073741824	; 0x40000000
30001934:	e2844633 	add	r4, r4, #53477376	; 0x3300000
30001938:	e2105102 	ands	r5, r0, #-2147483648	; 0x80000000
3000193c:	42600000 	rsbmi	r0, r0, #0	; 0x0
30001940:	e1a01000 	mov	r1, r0
30001944:	e3a00000 	mov	r0, #0	; 0x0
30001948:	eaffff96 	b	300017a8 <__adddf3+0x194>

3000194c <__extendsfdf2>:
3000194c:	e1b02080 	movs	r2, r0, lsl #1
30001950:	0a000007 	beq	30001974 <__extendsfdf2+0x28>
30001954:	e1a001c2 	mov	r0, r2, asr #3
30001958:	e1a00060 	mov	r0, r0, rrx
3000195c:	e1a01e02 	mov	r1, r2, lsl #28
30001960:	e21224ff 	ands	r2, r2, #-16777216	; 0xff000000
30001964:	0a000005 	beq	30001980 <__extendsfdf2+0x34>
30001968:	e33204ff 	teq	r2, #-16777216	; 0xff000000
3000196c:	1220030e 	eorne	r0, r0, #939524096	; 0x38000000
30001970:	e1a0f00e 	mov	pc, lr
30001974:	e1a00000 	nop			(mov r0,r0)
30001978:	e3a01000 	mov	r1, #0	; 0x0
3000197c:	e1a0f00e 	mov	pc, lr
30001980:	e92d4030 	stmdb	sp!, {r4, r5, lr}
30001984:	e3a0430e 	mov	r4, #939524096	; 0x38000000
30001988:	e2844601 	add	r4, r4, #1048576	; 0x100000
3000198c:	e2005102 	and	r5, r0, #-2147483648	; 0x80000000
30001990:	e3c00102 	bic	r0, r0, #-2147483648	; 0x80000000
30001994:	eaffff83 	b	300017a8 <__adddf3+0x194>

30001998 <__muldf3>:
30001998:	e92d4070 	stmdb	sp!, {r4, r5, r6, lr}
3000199c:	e3a0c47f 	mov	ip, #2130706432	; 0x7f000000
300019a0:	e38cc60f 	orr	ip, ip, #15728640	; 0xf00000
300019a4:	e000400c 	and	r4, r0, ip
300019a8:	e002500c 	and	r5, r2, ip
300019ac:	e134000c 	teq	r4, ip
300019b0:	1135000c 	teqne	r5, ip
300019b4:	0a0000a8 	beq	30001c5c <__muldf3+0x2c4>
300019b8:	e1916080 	orrs	r6, r1, r0, lsl #1
300019bc:	11936082 	orrnes	r6, r3, r2, lsl #1
300019c0:	0a00005e 	beq	30001b40 <__muldf3+0x1a8>
300019c4:	e1b040a4 	movs	r4, r4, lsr #1
300019c8:	13350000 	teqne	r5, #0	; 0x0
300019cc:	0a00008e 	beq	30001c0c <__muldf3+0x274>
300019d0:	e08440c5 	add	r4, r4, r5, asr #1
300019d4:	e1300002 	teq	r0, r2
300019d8:	43844902 	orrmi	r4, r4, #32768	; 0x8000
300019dc:	e1c0008c 	bic	r0, r0, ip, lsl #1
300019e0:	e1c2208c 	bic	r2, r2, ip, lsl #1
300019e4:	e3800601 	orr	r0, r0, #1048576	; 0x100000
300019e8:	e3822601 	orr	r2, r2, #1048576	; 0x100000
300019ec:	e92d0f80 	stmdb	sp!, {r7, r8, r9, sl, fp}
300019f0:	e1a07821 	mov	r7, r1, lsr #16
300019f4:	e1a08823 	mov	r8, r3, lsr #16
300019f8:	e1a09820 	mov	r9, r0, lsr #16
300019fc:	e1a0a822 	mov	sl, r2, lsr #16
30001a00:	e1c11807 	bic	r1, r1, r7, lsl #16
30001a04:	e1c33808 	bic	r3, r3, r8, lsl #16
30001a08:	e1c00809 	bic	r0, r0, r9, lsl #16
30001a0c:	e1c2280a 	bic	r2, r2, sl, lsl #16
30001a10:	e00c0391 	mul	ip, r1, r3
30001a14:	e00b0891 	mul	fp, r1, r8
30001a18:	e3a0e000 	mov	lr, #0	; 0x0
30001a1c:	e09cc80b 	adds	ip, ip, fp, lsl #16
30001a20:	e0aee82b 	adc	lr, lr, fp, lsr #16
30001a24:	e00b0397 	mul	fp, r7, r3
30001a28:	e09cc80b 	adds	ip, ip, fp, lsl #16
30001a2c:	e0aee82b 	adc	lr, lr, fp, lsr #16
30001a30:	e00b0a91 	mul	fp, r1, sl
30001a34:	e3a05000 	mov	r5, #0	; 0x0
30001a38:	e09ee80b 	adds	lr, lr, fp, lsl #16
30001a3c:	e0a5582b 	adc	r5, r5, fp, lsr #16
30001a40:	e00b0297 	mul	fp, r7, r2
30001a44:	e09ee80b 	adds	lr, lr, fp, lsl #16
30001a48:	e0a5582b 	adc	r5, r5, fp, lsr #16
30001a4c:	e00b0890 	mul	fp, r0, r8
30001a50:	e09ee80b 	adds	lr, lr, fp, lsl #16
30001a54:	e0a5582b 	adc	r5, r5, fp, lsr #16
30001a58:	e00b0399 	mul	fp, r9, r3
30001a5c:	e09ee80b 	adds	lr, lr, fp, lsl #16
30001a60:	e0a5582b 	adc	r5, r5, fp, lsr #16
30001a64:	e00b0a90 	mul	fp, r0, sl
30001a68:	e0060a99 	mul	r6, r9, sl
30001a6c:	e095580b 	adds	r5, r5, fp, lsl #16
30001a70:	e0a6682b 	adc	r6, r6, fp, lsr #16
30001a74:	e00b0299 	mul	fp, r9, r2
30001a78:	e095580b 	adds	r5, r5, fp, lsl #16
30001a7c:	e0a6682b 	adc	r6, r6, fp, lsr #16
30001a80:	e00b0291 	mul	fp, r1, r2
30001a84:	e09ee00b 	adds	lr, lr, fp
30001a88:	e00b0a97 	mul	fp, r7, sl
30001a8c:	e0b5500b 	adcs	r5, r5, fp
30001a90:	e00b0390 	mul	fp, r0, r3
30001a94:	e2a66000 	adc	r6, r6, #0	; 0x0
30001a98:	e09ee00b 	adds	lr, lr, fp
30001a9c:	e00b0899 	mul	fp, r9, r8
30001aa0:	e0b5500b 	adcs	r5, r5, fp
30001aa4:	e00b0897 	mul	fp, r7, r8
30001aa8:	e2a66000 	adc	r6, r6, #0	; 0x0
30001aac:	e09ee00b 	adds	lr, lr, fp
30001ab0:	e00b0290 	mul	fp, r0, r2
30001ab4:	e0b5500b 	adcs	r5, r5, fp
30001ab8:	e2a66000 	adc	r6, r6, #0	; 0x0
30001abc:	e8bd0f80 	ldmia	sp!, {r7, r8, r9, sl, fp}
30001ac0:	e33c0000 	teq	ip, #0	; 0x0
30001ac4:	138ee001 	orrne	lr, lr, #1	; 0x1
30001ac8:	e1a00804 	mov	r0, r4, lsl #16
30001acc:	e3c44902 	bic	r4, r4, #32768	; 0x8000
30001ad0:	e3160c02 	tst	r6, #512	; 0x200
30001ad4:	0a000004 	beq	30001aec <__muldf3+0x154>
30001ad8:	e2844702 	add	r4, r4, #524288	; 0x80000
30001adc:	e1b060a6 	movs	r6, r6, lsr #1
30001ae0:	e1b05065 	movs	r5, r5, rrx
30001ae4:	e1b0e06e 	movs	lr, lr, rrx
30001ae8:	238ee001 	orrcs	lr, lr, #1	; 0x1
30001aec:	e1800606 	orr	r0, r0, r6, lsl #12
30001af0:	e1800a25 	orr	r0, r0, r5, lsr #20
30001af4:	e1a01605 	mov	r1, r5, lsl #12
30001af8:	e1811a2e 	orr	r1, r1, lr, lsr #20
30001afc:	e244473e 	sub	r4, r4, #16252928	; 0xf80000
30001b00:	e254441f 	subs	r4, r4, #520093696	; 0x1f000000
30001b04:	da000011 	ble	30001b50 <__muldf3+0x1b8>
30001b08:	e1b0e60e 	movs	lr, lr, lsl #12
30001b0c:	5a000005 	bpl	30001b28 <__muldf3+0x190>
30001b10:	e2911001 	adds	r1, r1, #1	; 0x1
30001b14:	e2a00000 	adc	r0, r0, #0	; 0x0
30001b18:	e33e0102 	teq	lr, #-2147483648	; 0x80000000
30001b1c:	03c11001 	biceq	r1, r1, #1	; 0x1
30001b20:	e3100602 	tst	r0, #2097152	; 0x200000
30001b24:	12844702 	addne	r4, r4, #524288	; 0x80000
30001b28:	e294c702 	adds	ip, r4, #524288	; 0x80000
30001b2c:	e31c0101 	tst	ip, #1073741824	; 0x40000000
30001b30:	1a000055 	bne	30001c8c <__muldf3+0x2f4>
30001b34:	e3c00603 	bic	r0, r0, #3145728	; 0x300000
30001b38:	e1800084 	orr	r0, r0, r4, lsl #1
30001b3c:	e8bd8070 	ldmia	sp!, {r4, r5, r6, pc}
30001b40:	e0200002 	eor	r0, r0, r2
30001b44:	e2000102 	and	r0, r0, #-2147483648	; 0x80000000
30001b48:	e3a01000 	mov	r1, #0	; 0x0
30001b4c:	e8bd8070 	ldmia	sp!, {r4, r5, r6, pc}
30001b50:	e374076a 	cmn	r4, #27787264	; 0x1a80000
30001b54:	d3a01000 	movle	r1, #0	; 0x0
30001b58:	d2000102 	andle	r0, r0, #-2147483648	; 0x80000000
30001b5c:	d8bd8070 	ldmleia	sp!, {r4, r5, r6, pc}
30001b60:	e1e049c4 	mvn	r4, r4, asr #19
30001b64:	e254401e 	subs	r4, r4, #30	; 0x1e
30001b68:	aa00001b 	bge	30001bdc <__muldf3+0x244>
30001b6c:	e294400c 	adds	r4, r4, #12	; 0xc
30001b70:	ca00000d 	bgt	30001bac <__muldf3+0x214>
30001b74:	e2844014 	add	r4, r4, #20	; 0x14
30001b78:	e2645020 	rsb	r5, r4, #32	; 0x20
30001b7c:	e1a03511 	mov	r3, r1, lsl r5
30001b80:	e1a01431 	mov	r1, r1, lsr r4
30001b84:	e1811510 	orr	r1, r1, r0, lsl r5
30001b88:	e1b00080 	movs	r0, r0, lsl #1
30001b8c:	e1a00430 	mov	r0, r0, lsr r4
30001b90:	e1a00060 	mov	r0, r0, rrx
30001b94:	e0911fa3 	adds	r1, r1, r3, lsr #31
30001b98:	e2a00000 	adc	r0, r0, #0	; 0x0
30001b9c:	e33e0000 	teq	lr, #0	; 0x0
30001ba0:	03330102 	teqeq	r3, #-2147483648	; 0x80000000
30001ba4:	03c11001 	biceq	r1, r1, #1	; 0x1
30001ba8:	e8bd8070 	ldmia	sp!, {r4, r5, r6, pc}
30001bac:	e264400c 	rsb	r4, r4, #12	; 0xc
30001bb0:	e2645020 	rsb	r5, r4, #32	; 0x20
30001bb4:	e1a03411 	mov	r3, r1, lsl r4
30001bb8:	e1a01531 	mov	r1, r1, lsr r5
30001bbc:	e1811410 	orr	r1, r1, r0, lsl r4
30001bc0:	e2000102 	and	r0, r0, #-2147483648	; 0x80000000
30001bc4:	e0911fa3 	adds	r1, r1, r3, lsr #31
30001bc8:	e2a00000 	adc	r0, r0, #0	; 0x0
30001bcc:	e33e0000 	teq	lr, #0	; 0x0
30001bd0:	03330102 	teqeq	r3, #-2147483648	; 0x80000000
30001bd4:	03c11001 	biceq	r1, r1, #1	; 0x1
30001bd8:	e8bd8070 	ldmia	sp!, {r4, r5, r6, pc}
30001bdc:	e2645020 	rsb	r5, r4, #32	; 0x20
30001be0:	e1a06511 	mov	r6, r1, lsl r5
30001be4:	e1a03431 	mov	r3, r1, lsr r4
30001be8:	e1833510 	orr	r3, r3, r0, lsl r5
30001bec:	e1a01430 	mov	r1, r0, lsr r4
30001bf0:	e2000102 	and	r0, r0, #-2147483648	; 0x80000000
30001bf4:	e1c11430 	bic	r1, r1, r0, lsr r4
30001bf8:	e0811fa3 	add	r1, r1, r3, lsr #31
30001bfc:	e196600e 	orrs	r6, r6, lr
30001c00:	03330102 	teqeq	r3, #-2147483648	; 0x80000000
30001c04:	03c11001 	biceq	r1, r1, #1	; 0x1
30001c08:	e8bd8070 	ldmia	sp!, {r4, r5, r6, pc}
30001c0c:	e3a0e000 	mov	lr, #0	; 0x0
30001c10:	e3340000 	teq	r4, #0	; 0x0
30001c14:	1a000008 	bne	30001c3c <__muldf3+0x2a4>
30001c18:	e2006102 	and	r6, r0, #-2147483648	; 0x80000000
30001c1c:	e1b01081 	movs	r1, r1, lsl #1
30001c20:	e0ae0080 	adc	r0, lr, r0, lsl #1
30001c24:	e3100601 	tst	r0, #1048576	; 0x100000
30001c28:	02444702 	subeq	r4, r4, #524288	; 0x80000
30001c2c:	0afffffa 	beq	30001c1c <__muldf3+0x284>
30001c30:	e1800006 	orr	r0, r0, r6
30001c34:	e3350000 	teq	r5, #0	; 0x0
30001c38:	1affff64 	bne	300019d0 <__muldf3+0x38>
30001c3c:	e2026102 	and	r6, r2, #-2147483648	; 0x80000000
30001c40:	e1b03083 	movs	r3, r3, lsl #1
30001c44:	e0ae2082 	adc	r2, lr, r2, lsl #1
30001c48:	e3120601 	tst	r2, #1048576	; 0x100000
30001c4c:	02455601 	subeq	r5, r5, #1048576	; 0x100000
30001c50:	0afffffa 	beq	30001c40 <__muldf3+0x2a8>
30001c54:	e1822006 	orr	r2, r2, r6
30001c58:	eaffff5c 	b	300019d0 <__muldf3+0x38>
30001c5c:	e1916080 	orrs	r6, r1, r0, lsl #1
30001c60:	11936082 	orrnes	r6, r3, r2, lsl #1
30001c64:	0a00000d 	beq	30001ca0 <__muldf3+0x308>
30001c68:	e134000c 	teq	r4, ip
30001c6c:	1a000001 	bne	30001c78 <__muldf3+0x2e0>
30001c70:	e1916600 	orrs	r6, r1, r0, lsl #12
30001c74:	1a000009 	bne	30001ca0 <__muldf3+0x308>
30001c78:	e135000c 	teq	r5, ip
30001c7c:	1a000001 	bne	30001c88 <__muldf3+0x2f0>
30001c80:	e1936602 	orrs	r6, r3, r2, lsl #12
30001c84:	1a000005 	bne	30001ca0 <__muldf3+0x308>
30001c88:	e0200002 	eor	r0, r0, r2
30001c8c:	e2000102 	and	r0, r0, #-2147483648	; 0x80000000
30001c90:	e380047f 	orr	r0, r0, #2130706432	; 0x7f000000
30001c94:	e380060f 	orr	r0, r0, #15728640	; 0xf00000
30001c98:	e3a01000 	mov	r1, #0	; 0x0
30001c9c:	e8bd8070 	ldmia	sp!, {r4, r5, r6, pc}
30001ca0:	e3a0047f 	mov	r0, #2130706432	; 0x7f000000
30001ca4:	e380073e 	orr	r0, r0, #16252928	; 0xf80000
30001ca8:	e8bd8070 	ldmia	sp!, {r4, r5, r6, pc}

30001cac <__divdf3>:
30001cac:	e92d4070 	stmdb	sp!, {r4, r5, r6, lr}
30001cb0:	e3a0c47f 	mov	ip, #2130706432	; 0x7f000000
30001cb4:	e38cc60f 	orr	ip, ip, #15728640	; 0xf00000
30001cb8:	e000400c 	and	r4, r0, ip
30001cbc:	e002500c 	and	r5, r2, ip
30001cc0:	e134000c 	teq	r4, ip
30001cc4:	1135000c 	teqne	r5, ip
30001cc8:	11916080 	orrnes	r6, r1, r0, lsl #1
30001ccc:	11936082 	orrnes	r6, r3, r2, lsl #1
30001cd0:	0a00007e 	beq	30001ed0 <__divdf3+0x224>
30001cd4:	e1b040a4 	movs	r4, r4, lsr #1
30001cd8:	13350000 	teqne	r5, #0	; 0x0
30001cdc:	0a000067 	beq	30001e80 <__divdf3+0x1d4>
30001ce0:	e04440c5 	sub	r4, r4, r5, asr #1
30001ce4:	e020e002 	eor	lr, r0, r2
30001ce8:	e3a05201 	mov	r5, #268435456	; 0x10000000
30001cec:	e1a02602 	mov	r2, r2, lsl #12
30001cf0:	e1852222 	orr	r2, r5, r2, lsr #4
30001cf4:	e1822c23 	orr	r2, r2, r3, lsr #24
30001cf8:	e1b03403 	movs	r3, r3, lsl #8
30001cfc:	e1a00600 	mov	r0, r0, lsl #12
30001d00:	01320005 	teqeq	r2, r5
30001d04:	0a00004d 	beq	30001e40 <__divdf3+0x194>
30001d08:	e1855220 	orr	r5, r5, r0, lsr #4
30001d0c:	e1855c21 	orr	r5, r5, r1, lsr #24
30001d10:	e1a06401 	mov	r6, r1, lsl #8
30001d14:	e20e0102 	and	r0, lr, #-2147483648	; 0x80000000
30001d18:	e1550002 	cmp	r5, r2
30001d1c:	01560003 	cmpeq	r6, r3
30001d20:	2a000002 	bcs	30001d30 <__divdf3+0x84>
30001d24:	e2444702 	sub	r4, r4, #524288	; 0x80000
30001d28:	e1b020a2 	movs	r2, r2, lsr #1
30001d2c:	e1a03063 	mov	r3, r3, rrx
30001d30:	e284441f 	add	r4, r4, #520093696	; 0x1f000000
30001d34:	e284473e 	add	r4, r4, #16252928	; 0xf80000
30001d38:	e374076a 	cmn	r4, #27787264	; 0x1a80000
30001d3c:	daffff80 	ble	30001b44 <__muldf3+0x1ac>
30001d40:	e15400ac 	cmp	r4, ip, lsr #1
30001d44:	aaffffd0 	bge	30001c8c <__muldf3+0x2f4>
30001d48:	e0566003 	subs	r6, r6, r3
30001d4c:	e0c55002 	sbc	r5, r5, r2
30001d50:	e1b020a2 	movs	r2, r2, lsr #1
30001d54:	e1a03063 	mov	r3, r3, rrx
30001d58:	e3a01601 	mov	r1, #1048576	; 0x100000
30001d5c:	e3a0c702 	mov	ip, #524288	; 0x80000
30001d60:	e056e003 	subs	lr, r6, r3
30001d64:	e0d5e002 	sbcs	lr, r5, r2
30001d68:	20466003 	subcs	r6, r6, r3
30001d6c:	21a0500e 	movcs	r5, lr
30001d70:	2181100c 	orrcs	r1, r1, ip
30001d74:	e1b020a2 	movs	r2, r2, lsr #1
30001d78:	e1a03063 	mov	r3, r3, rrx
30001d7c:	e056e003 	subs	lr, r6, r3
30001d80:	e0d5e002 	sbcs	lr, r5, r2
30001d84:	20466003 	subcs	r6, r6, r3
30001d88:	21a0500e 	movcs	r5, lr
30001d8c:	218110ac 	orrcs	r1, r1, ip, lsr #1
30001d90:	e1b020a2 	movs	r2, r2, lsr #1
30001d94:	e1a03063 	mov	r3, r3, rrx
30001d98:	e056e003 	subs	lr, r6, r3
30001d9c:	e0d5e002 	sbcs	lr, r5, r2
30001da0:	20466003 	subcs	r6, r6, r3
30001da4:	21a0500e 	movcs	r5, lr
30001da8:	2181112c 	orrcs	r1, r1, ip, lsr #2
30001dac:	e1b020a2 	movs	r2, r2, lsr #1
30001db0:	e1a03063 	mov	r3, r3, rrx
30001db4:	e056e003 	subs	lr, r6, r3
30001db8:	e0d5e002 	sbcs	lr, r5, r2
30001dbc:	20466003 	subcs	r6, r6, r3
30001dc0:	21a0500e 	movcs	r5, lr
30001dc4:	218111ac 	orrcs	r1, r1, ip, lsr #3
30001dc8:	e195e006 	orrs	lr, r5, r6
30001dcc:	0a00000d 	beq	30001e08 <__divdf3+0x15c>
30001dd0:	e1a05205 	mov	r5, r5, lsl #4
30001dd4:	e1855e26 	orr	r5, r5, r6, lsr #28
30001dd8:	e1a06206 	mov	r6, r6, lsl #4
30001ddc:	e1a02182 	mov	r2, r2, lsl #3
30001de0:	e1822ea3 	orr	r2, r2, r3, lsr #29
30001de4:	e1a03183 	mov	r3, r3, lsl #3
30001de8:	e1b0c22c 	movs	ip, ip, lsr #4
30001dec:	1affffdb 	bne	30001d60 <__divdf3+0xb4>
30001df0:	e3100601 	tst	r0, #1048576	; 0x100000
30001df4:	1a000006 	bne	30001e14 <__divdf3+0x168>
30001df8:	e1800001 	orr	r0, r0, r1
30001dfc:	e3a01000 	mov	r1, #0	; 0x0
30001e00:	e3a0c102 	mov	ip, #-2147483648	; 0x80000000
30001e04:	eaffffd5 	b	30001d60 <__divdf3+0xb4>
30001e08:	e3100601 	tst	r0, #1048576	; 0x100000
30001e0c:	01800001 	orreq	r0, r0, r1
30001e10:	03a01000 	moveq	r1, #0	; 0x0
30001e14:	e3540000 	cmp	r4, #0	; 0x0
30001e18:	da000016 	ble	30001e78 <__divdf3+0x1cc>
30001e1c:	e055c002 	subs	ip, r5, r2
30001e20:	0056c003 	subeqs	ip, r6, r3
30001e24:	e2b11000 	adcs	r1, r1, #0	; 0x0
30001e28:	e2a00000 	adc	r0, r0, #0	; 0x0
30001e2c:	e33c0000 	teq	ip, #0	; 0x0
30001e30:	03c11001 	biceq	r1, r1, #1	; 0x1
30001e34:	e3c00601 	bic	r0, r0, #1048576	; 0x100000
30001e38:	e1800084 	orr	r0, r0, r4, lsl #1
30001e3c:	e8bd8070 	ldmia	sp!, {r4, r5, r6, pc}
30001e40:	e20ee102 	and	lr, lr, #-2147483648	; 0x80000000
30001e44:	e18e0620 	orr	r0, lr, r0, lsr #12
30001e48:	e284441f 	add	r4, r4, #520093696	; 0x1f000000
30001e4c:	e284473e 	add	r4, r4, #16252928	; 0xf80000
30001e50:	e15400ac 	cmp	r4, ip, lsr #1
30001e54:	aaffff8c 	bge	30001c8c <__muldf3+0x2f4>
30001e58:	e3540000 	cmp	r4, #0	; 0x0
30001e5c:	c1800084 	orrgt	r0, r0, r4, lsl #1
30001e60:	c8bd8070 	ldmgtia	sp!, {r4, r5, r6, pc}
30001e64:	e374076a 	cmn	r4, #27787264	; 0x1a80000
30001e68:	daffff35 	ble	30001b44 <__muldf3+0x1ac>
30001e6c:	e3800601 	orr	r0, r0, #1048576	; 0x100000
30001e70:	e3a0e000 	mov	lr, #0	; 0x0
30001e74:	eaffff39 	b	30001b60 <__muldf3+0x1c8>
30001e78:	e185e006 	orr	lr, r5, r6
30001e7c:	eaffff37 	b	30001b60 <__muldf3+0x1c8>
30001e80:	e3a0e000 	mov	lr, #0	; 0x0
30001e84:	e3340000 	teq	r4, #0	; 0x0
30001e88:	1a000008 	bne	30001eb0 <__divdf3+0x204>
30001e8c:	e2006102 	and	r6, r0, #-2147483648	; 0x80000000
30001e90:	e1b01081 	movs	r1, r1, lsl #1
30001e94:	e0ae0080 	adc	r0, lr, r0, lsl #1
30001e98:	e3100601 	tst	r0, #1048576	; 0x100000
30001e9c:	02444702 	subeq	r4, r4, #524288	; 0x80000
30001ea0:	0afffffa 	beq	30001e90 <__divdf3+0x1e4>
30001ea4:	e1800006 	orr	r0, r0, r6
30001ea8:	e3350000 	teq	r5, #0	; 0x0
30001eac:	1affff8b 	bne	30001ce0 <__divdf3+0x34>
30001eb0:	e2026102 	and	r6, r2, #-2147483648	; 0x80000000
30001eb4:	e1b03083 	movs	r3, r3, lsl #1
30001eb8:	e0ae2082 	adc	r2, lr, r2, lsl #1
30001ebc:	e3120601 	tst	r2, #1048576	; 0x100000
30001ec0:	02455601 	subeq	r5, r5, #1048576	; 0x100000
30001ec4:	0afffffa 	beq	30001eb4 <__divdf3+0x208>
30001ec8:	e1822006 	orr	r2, r2, r6
30001ecc:	eaffff83 	b	30001ce0 <__divdf3+0x34>
30001ed0:	e134000c 	teq	r4, ip
30001ed4:	0135000c 	teqeq	r5, ip
30001ed8:	0affff70 	beq	30001ca0 <__muldf3+0x308>
30001edc:	e134000c 	teq	r4, ip
30001ee0:	1a000002 	bne	30001ef0 <__divdf3+0x244>
30001ee4:	e1914600 	orrs	r4, r1, r0, lsl #12
30001ee8:	1affff6c 	bne	30001ca0 <__muldf3+0x308>
30001eec:	eaffff65 	b	30001c88 <__muldf3+0x2f0>
30001ef0:	e135000c 	teq	r5, ip
30001ef4:	1a000002 	bne	30001f04 <__divdf3+0x258>
30001ef8:	e1935602 	orrs	r5, r3, r2, lsl #12
30001efc:	1affff67 	bne	30001ca0 <__muldf3+0x308>
30001f00:	eaffff0e 	b	30001b40 <__muldf3+0x1a8>
30001f04:	e1914080 	orrs	r4, r1, r0, lsl #1
30001f08:	1affff5e 	bne	30001c88 <__muldf3+0x2f0>
30001f0c:	e1935082 	orrs	r5, r3, r2, lsl #1
30001f10:	1affff0a 	bne	30001b40 <__muldf3+0x1a8>
30001f14:	eaffff61 	b	30001ca0 <__muldf3+0x308>

30001f18 <__gedf2>:
30001f18:	e3e0c000 	mvn	ip, #0	; 0x0
30001f1c:	ea000002 	b	30001f2c <__cmpdf2+0x4>

30001f20 <__ledf2>:
30001f20:	e3a0c001 	mov	ip, #1	; 0x1
30001f24:	ea000000 	b	30001f2c <__cmpdf2+0x4>

30001f28 <__cmpdf2>:
30001f28:	e3a0c001 	mov	ip, #1	; 0x1
30001f2c:	e92d4030 	stmdb	sp!, {r4, r5, lr}
30001f30:	e3a0e47f 	mov	lr, #2130706432	; 0x7f000000
30001f34:	e38ee60f 	orr	lr, lr, #15728640	; 0xf00000
30001f38:	e000400e 	and	r4, r0, lr
30001f3c:	e002500e 	and	r5, r2, lr
30001f40:	e134000e 	teq	r4, lr
30001f44:	1135000e 	teqne	r5, lr
30001f48:	0a000011 	beq	30001f94 <__cmpdf2+0x6c>
30001f4c:	e191c080 	orrs	ip, r1, r0, lsl #1
30001f50:	0193c082 	orreqs	ip, r3, r2, lsl #1
30001f54:	11300002 	teqne	r0, r2
30001f58:	01310003 	teqeq	r1, r3
30001f5c:	03a00000 	moveq	r0, #0	; 0x0
30001f60:	08bd8030 	ldmeqia	sp!, {r4, r5, pc}
30001f64:	e1300002 	teq	r0, r2
30001f68:	41a00fc0 	movmi	r0, r0, asr #31
30001f6c:	43800001 	orrmi	r0, r0, #1	; 0x1
30001f70:	48bd8030 	ldmmiia	sp!, {r4, r5, pc}
30001f74:	e1540005 	cmp	r4, r5
30001f78:	01a00600 	moveq	r0, r0, lsl #12
30001f7c:	01500602 	cmpeq	r0, r2, lsl #12
30001f80:	01510003 	cmpeq	r1, r3
30001f84:	21a00fc2 	movcs	r0, r2, asr #31
30001f88:	31e00fc2 	mvncc	r0, r2, asr #31
30001f8c:	e3800001 	orr	r0, r0, #1	; 0x1
30001f90:	e8bd8030 	ldmia	sp!, {r4, r5, pc}
30001f94:	e134000e 	teq	r4, lr
30001f98:	1a000001 	bne	30001fa4 <__cmpdf2+0x7c>
30001f9c:	e1911600 	orrs	r1, r1, r0, lsl #12
30001fa0:	1a000003 	bne	30001fb4 <__cmpdf2+0x8c>
30001fa4:	e135000e 	teq	r5, lr
30001fa8:	1affffe7 	bne	30001f4c <__cmpdf2+0x24>
30001fac:	e1933602 	orrs	r3, r3, r2, lsl #12
30001fb0:	0affffe5 	beq	30001f4c <__cmpdf2+0x24>
30001fb4:	e1a0000c 	mov	r0, ip
30001fb8:	e8bd8030 	ldmia	sp!, {r4, r5, pc}

30001fbc <__fixdfsi>:
30001fbc:	e191c080 	orrs	ip, r1, r0, lsl #1
30001fc0:	0a000014 	beq	30002018 <__fixdfsi+0x5c>
30001fc4:	e1a03063 	mov	r3, r3, rrx
30001fc8:	e3a0c47f 	mov	ip, #2130706432	; 0x7f000000
30001fcc:	e38cc60f 	orr	ip, ip, #15728640	; 0xf00000
30001fd0:	e000200c 	and	r2, r0, ip
30001fd4:	e132000c 	teq	r2, ip
30001fd8:	0a000010 	beq	30002020 <__fixdfsi+0x64>
30001fdc:	e3ccc101 	bic	ip, ip, #1073741824	; 0x40000000
30001fe0:	e152000c 	cmp	r2, ip
30001fe4:	3a00000b 	bcc	30002018 <__fixdfsi+0x5c>
30001fe8:	e28cc61f 	add	ip, ip, #32505856	; 0x1f00000
30001fec:	e152000c 	cmp	r2, ip
30001ff0:	2a00000c 	bcs	30002028 <__fixdfsi+0x6c>
30001ff4:	e062200c 	rsb	r2, r2, ip
30001ff8:	e1a0c580 	mov	ip, r0, lsl #11
30001ffc:	e38cc102 	orr	ip, ip, #-2147483648	; 0x80000000
30002000:	e18ccaa1 	orr	ip, ip, r1, lsr #21
30002004:	e1a02a22 	mov	r2, r2, lsr #20
30002008:	e3130102 	tst	r3, #-2147483648	; 0x80000000
3000200c:	e1a0023c 	mov	r0, ip, lsr r2
30002010:	12600000 	rsbne	r0, r0, #0	; 0x0
30002014:	e1a0f00e 	mov	pc, lr
30002018:	e3a00000 	mov	r0, #0	; 0x0
3000201c:	e1a0f00e 	mov	pc, lr
30002020:	e1911600 	orrs	r1, r1, r0, lsl #12
30002024:	1a000002 	bne	30002034 <__fixdfsi+0x78>
30002028:	e2130102 	ands	r0, r3, #-2147483648	; 0x80000000
3000202c:	03e00102 	mvneq	r0, #-2147483648	; 0x80000000
30002030:	e1a0f00e 	mov	pc, lr
30002034:	e3a00000 	mov	r0, #0	; 0x0
30002038:	e1a0f00e 	mov	pc, lr

3000203c <__fixunsdfsi>:
3000203c:	e191c080 	orrs	ip, r1, r0, lsl #1
30002040:	23b00000 	movcss	r0, #0	; 0x0
30002044:	01a0f00e 	moveq	pc, lr
30002048:	e3a0c47f 	mov	ip, #2130706432	; 0x7f000000
3000204c:	e38cc60f 	orr	ip, ip, #15728640	; 0xf00000
30002050:	e000200c 	and	r2, r0, ip
30002054:	e132000c 	teq	r2, ip
30002058:	0a00000e 	beq	30002098 <__fixunsdfsi+0x5c>
3000205c:	e3ccc101 	bic	ip, ip, #1073741824	; 0x40000000
30002060:	e152000c 	cmp	r2, ip
30002064:	3a000009 	bcc	30002090 <__fixunsdfsi+0x54>
30002068:	e28cc61f 	add	ip, ip, #32505856	; 0x1f00000
3000206c:	e152000c 	cmp	r2, ip
30002070:	8a00000a 	bhi	300020a0 <__fixunsdfsi+0x64>
30002074:	e062200c 	rsb	r2, r2, ip
30002078:	e1a0c580 	mov	ip, r0, lsl #11
3000207c:	e38cc102 	orr	ip, ip, #-2147483648	; 0x80000000
30002080:	e18ccaa1 	orr	ip, ip, r1, lsr #21
30002084:	e1a02a22 	mov	r2, r2, lsr #20
30002088:	e1a0023c 	mov	r0, ip, lsr r2
3000208c:	e1a0f00e 	mov	pc, lr
30002090:	e3a00000 	mov	r0, #0	; 0x0
30002094:	e1a0f00e 	mov	pc, lr
30002098:	e1911600 	orrs	r1, r1, r0, lsl #12
3000209c:	1a000001 	bne	300020a8 <__fixunsdfsi+0x6c>
300020a0:	e3e00000 	mvn	r0, #0	; 0x0
300020a4:	e1a0f00e 	mov	pc, lr
300020a8:	e3a00000 	mov	r0, #0	; 0x0
300020ac:	e1a0f00e 	mov	pc, lr

300020b0 <__udivdi3>:
300020b0:	e92d4ff0 	stmdb	sp!, {r4, r5, r6, r7, r8, r9, sl, fp, lr}
300020b4:	e59fa530 	ldr	sl, [pc, #1328]	; 300025ec <.text+0x138c>
300020b8:	e2534000 	subs	r4, r3, #0	; 0x0
300020bc:	e08fa00a 	add	sl, pc, sl
300020c0:	e1a08001 	mov	r8, r1
300020c4:	e1a06002 	mov	r6, r2
300020c8:	e24dd008 	sub	sp, sp, #8	; 0x8
300020cc:	e58d0004 	str	r0, [sp, #4]
300020d0:	1a000046 	bne	300021f0 <__udivdi3+0x140>
300020d4:	e1520001 	cmp	r2, r1
300020d8:	9a00005b 	bls	3000224c <__udivdi3+0x19c>
300020dc:	e3520801 	cmp	r2, #65536	; 0x10000
300020e0:	e1a00002 	mov	r0, r2
300020e4:	3a00012f 	bcc	300025a8 <__udivdi3+0x4f8>
300020e8:	e3520401 	cmp	r2, #16777216	; 0x1000000
300020ec:	23a0c018 	movcs	ip, #24	; 0x18
300020f0:	33a0c010 	movcc	ip, #16	; 0x10
300020f4:	e59f24f4 	ldr	r2, [pc, #1268]	; 300025f0 <.text+0x1390>
300020f8:	e79a1002 	ldr	r1, [sl, r2]
300020fc:	e1a00c30 	mov	r0, r0, lsr ip
30002100:	e7d13000 	ldrb	r3, [r1, r0]
30002104:	e083300c 	add	r3, r3, ip
30002108:	e2732020 	rsbs	r2, r3, #32	; 0x20
3000210c:	0a000006 	beq	3000212c <__udivdi3+0x7c>
30002110:	e59d0004 	ldr	r0, [sp, #4]
30002114:	e2623020 	rsb	r3, r2, #32	; 0x20
30002118:	e1a03330 	mov	r3, r0, lsr r3
3000211c:	e1a00210 	mov	r0, r0, lsl r2
30002120:	e58d0004 	str	r0, [sp, #4]
30002124:	e1838218 	orr	r8, r3, r8, lsl r2
30002128:	e1a06216 	mov	r6, r6, lsl r2
3000212c:	e1a09826 	mov	r9, r6, lsr #16
30002130:	e1a01009 	mov	r1, r9
30002134:	e1a00008 	mov	r0, r8
30002138:	ebfffc84 	bl	30001350 <__umodsi3>
3000213c:	e1a01009 	mov	r1, r9
30002140:	e1a04000 	mov	r4, r0
30002144:	e1a00008 	mov	r0, r8
30002148:	ebfffc44 	bl	30001260 <__udivsi3>
3000214c:	e1a07806 	mov	r7, r6, lsl #16
30002150:	e1a07827 	mov	r7, r7, lsr #16
30002154:	e0020097 	mul	r2, r7, r0
30002158:	e59d1004 	ldr	r1, [sp, #4]
3000215c:	e1a03821 	mov	r3, r1, lsr #16
30002160:	e1834804 	orr	r4, r3, r4, lsl #16
30002164:	e1540002 	cmp	r4, r2
30002168:	e1a08000 	mov	r8, r0
3000216c:	2a000005 	bcs	30002188 <__udivdi3+0xd8>
30002170:	e0944006 	adds	r4, r4, r6
30002174:	e2408001 	sub	r8, r0, #1	; 0x1
30002178:	2a000002 	bcs	30002188 <__udivdi3+0xd8>
3000217c:	e1540002 	cmp	r4, r2
30002180:	32488001 	subcc	r8, r8, #1	; 0x1
30002184:	30844006 	addcc	r4, r4, r6
30002188:	e0624004 	rsb	r4, r2, r4
3000218c:	e1a01009 	mov	r1, r9
30002190:	e1a00004 	mov	r0, r4
30002194:	ebfffc6d 	bl	30001350 <__umodsi3>
30002198:	e1a01009 	mov	r1, r9
3000219c:	e1a05000 	mov	r5, r0
300021a0:	e1a00004 	mov	r0, r4
300021a4:	ebfffc2d 	bl	30001260 <__udivsi3>
300021a8:	e0020097 	mul	r2, r7, r0
300021ac:	e59d1004 	ldr	r1, [sp, #4]
300021b0:	e1a03801 	mov	r3, r1, lsl #16
300021b4:	e1a03823 	mov	r3, r3, lsr #16
300021b8:	e1835805 	orr	r5, r3, r5, lsl #16
300021bc:	e1550002 	cmp	r5, r2
300021c0:	2a000004 	bcs	300021d8 <__udivdi3+0x128>
300021c4:	e0955006 	adds	r5, r5, r6
300021c8:	e2400001 	sub	r0, r0, #1	; 0x1
300021cc:	2a000001 	bcs	300021d8 <__udivdi3+0x128>
300021d0:	e1550002 	cmp	r5, r2
300021d4:	32400001 	subcc	r0, r0, #1	; 0x1
300021d8:	e180c808 	orr	ip, r0, r8, lsl #16
300021dc:	e3a0b000 	mov	fp, #0	; 0x0
300021e0:	e1a0000c 	mov	r0, ip
300021e4:	e1a0100b 	mov	r1, fp
300021e8:	e28dd008 	add	sp, sp, #8	; 0x8
300021ec:	e8bd8ff0 	ldmia	sp!, {r4, r5, r6, r7, r8, r9, sl, fp, pc}
300021f0:	e1540001 	cmp	r4, r1
300021f4:	83a0b000 	movhi	fp, #0	; 0x0
300021f8:	81a0c00b 	movhi	ip, fp
300021fc:	8afffff7 	bhi	300021e0 <__udivdi3+0x130>
30002200:	e3540801 	cmp	r4, #65536	; 0x10000
30002204:	3a000090 	bcc	3000244c <__udivdi3+0x39c>
30002208:	e3540401 	cmp	r4, #16777216	; 0x1000000
3000220c:	23a0c018 	movcs	ip, #24	; 0x18
30002210:	33a0c010 	movcc	ip, #16	; 0x10
30002214:	e1a00c34 	mov	r0, r4, lsr ip
30002218:	e59f23d0 	ldr	r2, [pc, #976]	; 300025f0 <.text+0x1390>
3000221c:	e79a1002 	ldr	r1, [sl, r2]
30002220:	e7d13000 	ldrb	r3, [r1, r0]
30002224:	e083300c 	add	r3, r3, ip
30002228:	e2732020 	rsbs	r2, r3, #32	; 0x20
3000222c:	1a000090 	bne	30002474 <__udivdi3+0x3c4>
30002230:	e59d3004 	ldr	r3, [sp, #4]
30002234:	e1580004 	cmp	r8, r4
30002238:	91530006 	cmpls	r3, r6
3000223c:	23a0c001 	movcs	ip, #1	; 0x1
30002240:	31a0c002 	movcc	ip, r2
30002244:	e3a0b000 	mov	fp, #0	; 0x0
30002248:	eaffffe4 	b	300021e0 <__udivdi3+0x130>
3000224c:	e3520000 	cmp	r2, #0	; 0x0
30002250:	0a00003a 	beq	30002340 <__udivdi3+0x290>
30002254:	e3560801 	cmp	r6, #65536	; 0x10000
30002258:	2a00003e 	bcs	30002358 <__udivdi3+0x2a8>
3000225c:	e35600ff 	cmp	r6, #255	; 0xff
30002260:	83a0c008 	movhi	ip, #8	; 0x8
30002264:	93a0c000 	movls	ip, #0	; 0x0
30002268:	e1a00c36 	mov	r0, r6, lsr ip
3000226c:	e59f237c 	ldr	r2, [pc, #892]	; 300025f0 <.text+0x1390>
30002270:	e79a1002 	ldr	r1, [sl, r2]
30002274:	e7d13000 	ldrb	r3, [r1, r0]
30002278:	e083300c 	add	r3, r3, ip
3000227c:	e2732020 	rsbs	r2, r3, #32	; 0x20
30002280:	1a00003e 	bne	30002380 <__udivdi3+0x2d0>
30002284:	e1a09806 	mov	r9, r6, lsl #16
30002288:	e0668008 	rsb	r8, r6, r8
3000228c:	e1a09829 	mov	r9, r9, lsr #16
30002290:	e3a0b001 	mov	fp, #1	; 0x1
30002294:	e1a07826 	mov	r7, r6, lsr #16
30002298:	e1a01007 	mov	r1, r7
3000229c:	e1a00008 	mov	r0, r8
300022a0:	ebfffc2a 	bl	30001350 <__umodsi3>
300022a4:	e1a01007 	mov	r1, r7
300022a8:	e1a04000 	mov	r4, r0
300022ac:	e1a00008 	mov	r0, r8
300022b0:	ebfffbea 	bl	30001260 <__udivsi3>
300022b4:	e0020099 	mul	r2, r9, r0
300022b8:	e1a08000 	mov	r8, r0
300022bc:	e59d0004 	ldr	r0, [sp, #4]
300022c0:	e1a03820 	mov	r3, r0, lsr #16
300022c4:	e1834804 	orr	r4, r3, r4, lsl #16
300022c8:	e1540002 	cmp	r4, r2
300022cc:	2a000005 	bcs	300022e8 <__udivdi3+0x238>
300022d0:	e0944006 	adds	r4, r4, r6
300022d4:	e2488001 	sub	r8, r8, #1	; 0x1
300022d8:	2a000002 	bcs	300022e8 <__udivdi3+0x238>
300022dc:	e1540002 	cmp	r4, r2
300022e0:	32488001 	subcc	r8, r8, #1	; 0x1
300022e4:	30844006 	addcc	r4, r4, r6
300022e8:	e0624004 	rsb	r4, r2, r4
300022ec:	e1a01007 	mov	r1, r7
300022f0:	e1a00004 	mov	r0, r4
300022f4:	ebfffc15 	bl	30001350 <__umodsi3>
300022f8:	e1a01007 	mov	r1, r7
300022fc:	e1a05000 	mov	r5, r0
30002300:	e1a00004 	mov	r0, r4
30002304:	ebfffbd5 	bl	30001260 <__udivsi3>
30002308:	e0020099 	mul	r2, r9, r0
3000230c:	e59d1004 	ldr	r1, [sp, #4]
30002310:	e1a03801 	mov	r3, r1, lsl #16
30002314:	e1a03823 	mov	r3, r3, lsr #16
30002318:	e1835805 	orr	r5, r3, r5, lsl #16
3000231c:	e1550002 	cmp	r5, r2
30002320:	2a000004 	bcs	30002338 <__udivdi3+0x288>
30002324:	e0955006 	adds	r5, r5, r6
30002328:	e2400001 	sub	r0, r0, #1	; 0x1
3000232c:	2a000001 	bcs	30002338 <__udivdi3+0x288>
30002330:	e1550002 	cmp	r5, r2
30002334:	32400001 	subcc	r0, r0, #1	; 0x1
30002338:	e180c808 	orr	ip, r0, r8, lsl #16
3000233c:	eaffffa7 	b	300021e0 <__udivdi3+0x130>
30002340:	e1a01002 	mov	r1, r2
30002344:	e3a00001 	mov	r0, #1	; 0x1
30002348:	ebfffbc4 	bl	30001260 <__udivsi3>
3000234c:	e1a06000 	mov	r6, r0
30002350:	e3560801 	cmp	r6, #65536	; 0x10000
30002354:	3affffc0 	bcc	3000225c <__udivdi3+0x1ac>
30002358:	e59f2290 	ldr	r2, [pc, #656]	; 300025f0 <.text+0x1390>
3000235c:	e3560401 	cmp	r6, #16777216	; 0x1000000
30002360:	23a0c018 	movcs	ip, #24	; 0x18
30002364:	33a0c010 	movcc	ip, #16	; 0x10
30002368:	e79a1002 	ldr	r1, [sl, r2]
3000236c:	e1a00c36 	mov	r0, r6, lsr ip
30002370:	e7d13000 	ldrb	r3, [r1, r0]
30002374:	e083300c 	add	r3, r3, ip
30002378:	e2732020 	rsbs	r2, r3, #32	; 0x20
3000237c:	0affffc0 	beq	30002284 <__udivdi3+0x1d4>
30002380:	e59d0004 	ldr	r0, [sp, #4]
30002384:	e2621020 	rsb	r1, r2, #32	; 0x20
30002388:	e1a03130 	mov	r3, r0, lsr r1
3000238c:	e1a06216 	mov	r6, r6, lsl r2
30002390:	e1a05138 	mov	r5, r8, lsr r1
30002394:	e1838218 	orr	r8, r3, r8, lsl r2
30002398:	e59d3004 	ldr	r3, [sp, #4]
3000239c:	e1a07826 	mov	r7, r6, lsr #16
300023a0:	e1a03213 	mov	r3, r3, lsl r2
300023a4:	e1a01007 	mov	r1, r7
300023a8:	e1a00005 	mov	r0, r5
300023ac:	e58d3004 	str	r3, [sp, #4]
300023b0:	ebfffbe6 	bl	30001350 <__umodsi3>
300023b4:	e1a01007 	mov	r1, r7
300023b8:	e1a04000 	mov	r4, r0
300023bc:	e1a00005 	mov	r0, r5
300023c0:	ebfffba6 	bl	30001260 <__udivsi3>
300023c4:	e1a09806 	mov	r9, r6, lsl #16
300023c8:	e1a09829 	mov	r9, r9, lsr #16
300023cc:	e0020099 	mul	r2, r9, r0
300023d0:	e1a03828 	mov	r3, r8, lsr #16
300023d4:	e1834804 	orr	r4, r3, r4, lsl #16
300023d8:	e1540002 	cmp	r4, r2
300023dc:	e1a0b000 	mov	fp, r0
300023e0:	2a000002 	bcs	300023f0 <__udivdi3+0x340>
300023e4:	e0944006 	adds	r4, r4, r6
300023e8:	e240b001 	sub	fp, r0, #1	; 0x1
300023ec:	3a000071 	bcc	300025b8 <__udivdi3+0x508>
300023f0:	e0624004 	rsb	r4, r2, r4
300023f4:	e1a01007 	mov	r1, r7
300023f8:	e1a00004 	mov	r0, r4
300023fc:	ebfffbd3 	bl	30001350 <__umodsi3>
30002400:	e1a01007 	mov	r1, r7
30002404:	e1a05000 	mov	r5, r0
30002408:	e1a00004 	mov	r0, r4
3000240c:	ebfffb93 	bl	30001260 <__udivsi3>
30002410:	e0020099 	mul	r2, r9, r0
30002414:	e1a03808 	mov	r3, r8, lsl #16
30002418:	e1a03823 	mov	r3, r3, lsr #16
3000241c:	e1835805 	orr	r5, r3, r5, lsl #16
30002420:	e1550002 	cmp	r5, r2
30002424:	2a000005 	bcs	30002440 <__udivdi3+0x390>
30002428:	e0955006 	adds	r5, r5, r6
3000242c:	e2400001 	sub	r0, r0, #1	; 0x1
30002430:	2a000002 	bcs	30002440 <__udivdi3+0x390>
30002434:	e1550002 	cmp	r5, r2
30002438:	32400001 	subcc	r0, r0, #1	; 0x1
3000243c:	30855006 	addcc	r5, r5, r6
30002440:	e180b80b 	orr	fp, r0, fp, lsl #16
30002444:	e0628005 	rsb	r8, r2, r5
30002448:	eaffff92 	b	30002298 <__udivdi3+0x1e8>
3000244c:	e59f219c 	ldr	r2, [pc, #412]	; 300025f0 <.text+0x1390>
30002450:	e35400ff 	cmp	r4, #255	; 0xff
30002454:	83a0c008 	movhi	ip, #8	; 0x8
30002458:	93a0c000 	movls	ip, #0	; 0x0
3000245c:	e79a1002 	ldr	r1, [sl, r2]
30002460:	e1a00c34 	mov	r0, r4, lsr ip
30002464:	e7d13000 	ldrb	r3, [r1, r0]
30002468:	e083300c 	add	r3, r3, ip
3000246c:	e2732020 	rsbs	r2, r3, #32	; 0x20
30002470:	0affff6e 	beq	30002230 <__udivdi3+0x180>
30002474:	e2621020 	rsb	r1, r2, #32	; 0x20
30002478:	e59d0004 	ldr	r0, [sp, #4]
3000247c:	e1a03136 	mov	r3, r6, lsr r1
30002480:	e1834214 	orr	r4, r3, r4, lsl r2
30002484:	e1a03130 	mov	r3, r0, lsr r1
30002488:	e1a05138 	mov	r5, r8, lsr r1
3000248c:	e1838218 	orr	r8, r3, r8, lsl r2
30002490:	e59d3004 	ldr	r3, [sp, #4]
30002494:	e1a0b824 	mov	fp, r4, lsr #16
30002498:	e1a03213 	mov	r3, r3, lsl r2
3000249c:	e1a0100b 	mov	r1, fp
300024a0:	e1a00005 	mov	r0, r5
300024a4:	e58d3004 	str	r3, [sp, #4]
300024a8:	e1a06216 	mov	r6, r6, lsl r2
300024ac:	ebfffba7 	bl	30001350 <__umodsi3>
300024b0:	e1a0100b 	mov	r1, fp
300024b4:	e1a07000 	mov	r7, r0
300024b8:	e1a00005 	mov	r0, r5
300024bc:	ebfffb67 	bl	30001260 <__udivsi3>
300024c0:	e1a09804 	mov	r9, r4, lsl #16
300024c4:	e1a09829 	mov	r9, r9, lsr #16
300024c8:	e1a02000 	mov	r2, r0
300024cc:	e0020299 	mul	r2, r9, r2
300024d0:	e1a03828 	mov	r3, r8, lsr #16
300024d4:	e1837807 	orr	r7, r3, r7, lsl #16
300024d8:	e1570002 	cmp	r7, r2
300024dc:	e58d0000 	str	r0, [sp]
300024e0:	2a000003 	bcs	300024f4 <__udivdi3+0x444>
300024e4:	e2400001 	sub	r0, r0, #1	; 0x1
300024e8:	e0977004 	adds	r7, r7, r4
300024ec:	e58d0000 	str	r0, [sp]
300024f0:	3a000038 	bcc	300025d8 <__udivdi3+0x528>
300024f4:	e0627007 	rsb	r7, r2, r7
300024f8:	e1a0100b 	mov	r1, fp
300024fc:	e1a00007 	mov	r0, r7
30002500:	ebfffb92 	bl	30001350 <__umodsi3>
30002504:	e1a0100b 	mov	r1, fp
30002508:	e1a05000 	mov	r5, r0
3000250c:	e1a00007 	mov	r0, r7
30002510:	ebfffb52 	bl	30001260 <__udivsi3>
30002514:	e0020099 	mul	r2, r9, r0
30002518:	e1a03808 	mov	r3, r8, lsl #16
3000251c:	e1a03823 	mov	r3, r3, lsr #16
30002520:	e1835805 	orr	r5, r3, r5, lsl #16
30002524:	e1550002 	cmp	r5, r2
30002528:	2a000002 	bcs	30002538 <__udivdi3+0x488>
3000252c:	e0955004 	adds	r5, r5, r4
30002530:	e2400001 	sub	r0, r0, #1	; 0x1
30002534:	3a000023 	bcc	300025c8 <__udivdi3+0x518>
30002538:	e59d1000 	ldr	r1, [sp]
3000253c:	e0625005 	rsb	r5, r2, r5
30002540:	e180c801 	orr	ip, r0, r1, lsl #16
30002544:	e1a0082c 	mov	r0, ip, lsr #16
30002548:	e1a03826 	mov	r3, r6, lsr #16
3000254c:	e1cc1800 	bic	r1, ip, r0, lsl #16
30002550:	e1c62803 	bic	r2, r6, r3, lsl #16
30002554:	e00e0291 	mul	lr, r1, r2
30002558:	e0020290 	mul	r2, r0, r2
3000255c:	e0010193 	mul	r1, r3, r1
30002560:	e0030390 	mul	r3, r0, r3
30002564:	e0921001 	adds	r1, r2, r1
30002568:	22833801 	addcs	r3, r3, #65536	; 0x10000
3000256c:	e09ee801 	adds	lr, lr, r1, lsl #16
30002570:	e0a33821 	adc	r3, r3, r1, lsr #16
30002574:	e1530005 	cmp	r3, r5
30002578:	8a000007 	bhi	3000259c <__udivdi3+0x4ec>
3000257c:	e59d2004 	ldr	r2, [sp, #4]
30002580:	13a03000 	movne	r3, #0	; 0x0
30002584:	03a03001 	moveq	r3, #1	; 0x1
30002588:	e15e0002 	cmp	lr, r2
3000258c:	93a03000 	movls	r3, #0	; 0x0
30002590:	82033001 	andhi	r3, r3, #1	; 0x1
30002594:	e3530000 	cmp	r3, #0	; 0x0
30002598:	0affff0f 	beq	300021dc <__udivdi3+0x12c>
3000259c:	e24cc001 	sub	ip, ip, #1	; 0x1
300025a0:	e3a0b000 	mov	fp, #0	; 0x0
300025a4:	eaffff0d 	b	300021e0 <__udivdi3+0x130>
300025a8:	e35200ff 	cmp	r2, #255	; 0xff
300025ac:	83a0c008 	movhi	ip, #8	; 0x8
300025b0:	93a0c000 	movls	ip, #0	; 0x0
300025b4:	eafffece 	b	300020f4 <__udivdi3+0x44>
300025b8:	e1540002 	cmp	r4, r2
300025bc:	324bb001 	subcc	fp, fp, #1	; 0x1
300025c0:	30844006 	addcc	r4, r4, r6
300025c4:	eaffff89 	b	300023f0 <__udivdi3+0x340>
300025c8:	e1550002 	cmp	r5, r2
300025cc:	30855004 	addcc	r5, r5, r4
300025d0:	32400001 	subcc	r0, r0, #1	; 0x1
300025d4:	eaffffd7 	b	30002538 <__udivdi3+0x488>
300025d8:	e1570002 	cmp	r7, r2
300025dc:	32400001 	subcc	r0, r0, #1	; 0x1
300025e0:	30877004 	addcc	r7, r7, r4
300025e4:	358d0000 	strcc	r0, [sp]
300025e8:	eaffffc1 	b	300024f4 <__udivdi3+0x444>
300025ec:	00004bb4 	streqh	r4, [r0], -r4
300025f0:	00000000 	andeq	r0, r0, r0

300025f4 <__umoddi3>:
300025f4:	e92d4ff0 	stmdb	sp!, {r4, r5, r6, r7, r8, r9, sl, fp, lr}
300025f8:	e3a06000 	mov	r6, #0	; 0x0
300025fc:	e3a05000 	mov	r5, #0	; 0x0
30002600:	e59fa58c 	ldr	sl, [pc, #1420]	; 30002b94 <.text+0x1934>
30002604:	e2534000 	subs	r4, r3, #0	; 0x0
30002608:	e08fa00a 	add	sl, pc, sl
3000260c:	e1a09000 	mov	r9, r0
30002610:	e24dd024 	sub	sp, sp, #36	; 0x24
30002614:	e28dc010 	add	ip, sp, #16	; 0x10
30002618:	e88c0060 	stmia	ip, {r5, r6}
3000261c:	e28d501c 	add	r5, sp, #28	; 0x1c
30002620:	e1a06002 	mov	r6, r2
30002624:	e58d5018 	str	r5, [sp, #24]
30002628:	e1a05001 	mov	r5, r1
3000262c:	1a000047 	bne	30002750 <__umoddi3+0x15c>
30002630:	e1520001 	cmp	r2, r1
30002634:	9a00006e 	bls	300027f4 <__umoddi3+0x200>
30002638:	e3520801 	cmp	r2, #65536	; 0x10000
3000263c:	e1a00002 	mov	r0, r2
30002640:	3a00013a 	bcc	30002b30 <__umoddi3+0x53c>
30002644:	e3520401 	cmp	r2, #16777216	; 0x1000000
30002648:	23a0c018 	movcs	ip, #24	; 0x18
3000264c:	33a0c010 	movcc	ip, #16	; 0x10
30002650:	e59f2540 	ldr	r2, [pc, #1344]	; 30002b98 <.text+0x1938>
30002654:	e79a1002 	ldr	r1, [sl, r2]
30002658:	e1a00c30 	mov	r0, r0, lsr ip
3000265c:	e7d13000 	ldrb	r3, [r1, r0]
30002660:	e083300c 	add	r3, r3, ip
30002664:	e2733020 	rsbs	r3, r3, #32	; 0x20
30002668:	e58d3008 	str	r3, [sp, #8]
3000266c:	0a000005 	beq	30002688 <__umoddi3+0x94>
30002670:	e59dc008 	ldr	ip, [sp, #8]
30002674:	e2633020 	rsb	r3, r3, #32	; 0x20
30002678:	e1a03339 	mov	r3, r9, lsr r3
3000267c:	e1835c15 	orr	r5, r3, r5, lsl ip
30002680:	e1a06c16 	mov	r6, r6, lsl ip
30002684:	e1a09c19 	mov	r9, r9, lsl ip
30002688:	e1a08826 	mov	r8, r6, lsr #16
3000268c:	e1a01008 	mov	r1, r8
30002690:	e1a00005 	mov	r0, r5
30002694:	ebfffb2d 	bl	30001350 <__umodsi3>
30002698:	e1a01008 	mov	r1, r8
3000269c:	e1a04000 	mov	r4, r0
300026a0:	e1a00005 	mov	r0, r5
300026a4:	ebfffaed 	bl	30001260 <__udivsi3>
300026a8:	e1a07806 	mov	r7, r6, lsl #16
300026ac:	e1a07827 	mov	r7, r7, lsr #16
300026b0:	e0020097 	mul	r2, r7, r0
300026b4:	e1a03829 	mov	r3, r9, lsr #16
300026b8:	e1834804 	orr	r4, r3, r4, lsl #16
300026bc:	e1540002 	cmp	r4, r2
300026c0:	2a000003 	bcs	300026d4 <__umoddi3+0xe0>
300026c4:	e0944006 	adds	r4, r4, r6
300026c8:	2a000001 	bcs	300026d4 <__umoddi3+0xe0>
300026cc:	e1540002 	cmp	r4, r2
300026d0:	30844006 	addcc	r4, r4, r6
300026d4:	e0624004 	rsb	r4, r2, r4
300026d8:	e1a01008 	mov	r1, r8
300026dc:	e1a00004 	mov	r0, r4
300026e0:	ebfffb1a 	bl	30001350 <__umodsi3>
300026e4:	e1a01008 	mov	r1, r8
300026e8:	e1a05000 	mov	r5, r0
300026ec:	e1a00004 	mov	r0, r4
300026f0:	ebfffada 	bl	30001260 <__udivsi3>
300026f4:	e0020097 	mul	r2, r7, r0
300026f8:	e1a03809 	mov	r3, r9, lsl #16
300026fc:	e1a03823 	mov	r3, r3, lsr #16
30002700:	e1835805 	orr	r5, r3, r5, lsl #16
30002704:	e1550002 	cmp	r5, r2
30002708:	2a000003 	bcs	3000271c <__umoddi3+0x128>
3000270c:	e0955006 	adds	r5, r5, r6
30002710:	2a000001 	bcs	3000271c <__umoddi3+0x128>
30002714:	e1550002 	cmp	r5, r2
30002718:	30855006 	addcc	r5, r5, r6
3000271c:	e0629005 	rsb	r9, r2, r5
30002720:	e59d2018 	ldr	r2, [sp, #24]
30002724:	e3520000 	cmp	r2, #0	; 0x0
30002728:	0a000104 	beq	30002b40 <__umoddi3+0x54c>
3000272c:	e59d3008 	ldr	r3, [sp, #8]
30002730:	e3a04000 	mov	r4, #0	; 0x0
30002734:	e1a09339 	mov	r9, r9, lsr r3
30002738:	e58d9010 	str	r9, [sp, #16]
3000273c:	e28d5010 	add	r5, sp, #16	; 0x10
30002740:	e1a0c002 	mov	ip, r2
30002744:	e58d4014 	str	r4, [sp, #20]
30002748:	e8950060 	ldmia	r5, {r5, r6}
3000274c:	ea000024 	b	300027e4 <__umoddi3+0x1f0>
30002750:	e1540001 	cmp	r4, r1
30002754:	9a000007 	bls	30002778 <__umoddi3+0x184>
30002758:	e58d0010 	str	r0, [sp, #16]
3000275c:	e28dc010 	add	ip, sp, #16	; 0x10
30002760:	e28d2020 	add	r2, sp, #32	; 0x20
30002764:	e58d1014 	str	r1, [sp, #20]
30002768:	e89c0003 	ldmia	ip, {r0, r1}
3000276c:	e8020003 	stmda	r2, {r0, r1}
30002770:	e28dd024 	add	sp, sp, #36	; 0x24
30002774:	e8bd8ff0 	ldmia	sp!, {r4, r5, r6, r7, r8, r9, sl, fp, pc}
30002778:	e3540801 	cmp	r4, #65536	; 0x10000
3000277c:	3a00007e 	bcc	3000297c <__umoddi3+0x388>
30002780:	e3540401 	cmp	r4, #16777216	; 0x1000000
30002784:	23a0c018 	movcs	ip, #24	; 0x18
30002788:	33a0c010 	movcc	ip, #16	; 0x10
3000278c:	e1a00c34 	mov	r0, r4, lsr ip
30002790:	e59f2400 	ldr	r2, [pc, #1024]	; 30002b98 <.text+0x1938>
30002794:	e79a1002 	ldr	r1, [sl, r2]
30002798:	e7d13000 	ldrb	r3, [r1, r0]
3000279c:	e083300c 	add	r3, r3, ip
300027a0:	e2733020 	rsbs	r3, r3, #32	; 0x20
300027a4:	e58d3008 	str	r3, [sp, #8]
300027a8:	1a00007e 	bne	300029a8 <__umoddi3+0x3b4>
300027ac:	e1550004 	cmp	r5, r4
300027b0:	91590006 	cmpls	r9, r6
300027b4:	3a000002 	bcc	300027c4 <__umoddi3+0x1d0>
300027b8:	e0593006 	subs	r3, r9, r6
300027bc:	e0c55004 	sbc	r5, r5, r4
300027c0:	e1a09003 	mov	r9, r3
300027c4:	e59d4018 	ldr	r4, [sp, #24]
300027c8:	e3540000 	cmp	r4, #0	; 0x0
300027cc:	0a0000ed 	beq	30002b88 <__umoddi3+0x594>
300027d0:	e58d5014 	str	r5, [sp, #20]
300027d4:	e28d5010 	add	r5, sp, #16	; 0x10
300027d8:	e1a0c004 	mov	ip, r4
300027dc:	e58d9010 	str	r9, [sp, #16]
300027e0:	e8950060 	ldmia	r5, {r5, r6}
300027e4:	e88c0060 	stmia	ip, {r5, r6}
300027e8:	e28d6020 	add	r6, sp, #32	; 0x20
300027ec:	e8160003 	ldmda	r6, {r0, r1}
300027f0:	eaffffde 	b	30002770 <__umoddi3+0x17c>
300027f4:	e3520000 	cmp	r2, #0	; 0x0
300027f8:	0a000055 	beq	30002954 <__umoddi3+0x360>
300027fc:	e3560801 	cmp	r6, #65536	; 0x10000
30002800:	2a000059 	bcs	3000296c <__umoddi3+0x378>
30002804:	e35600ff 	cmp	r6, #255	; 0xff
30002808:	83a0c008 	movhi	ip, #8	; 0x8
3000280c:	93a0c000 	movls	ip, #0	; 0x0
30002810:	e59f2380 	ldr	r2, [pc, #896]	; 30002b98 <.text+0x1938>
30002814:	e79a1002 	ldr	r1, [sl, r2]
30002818:	e1a00c36 	mov	r0, r6, lsr ip
3000281c:	e7d13000 	ldrb	r3, [r1, r0]
30002820:	e083300c 	add	r3, r3, ip
30002824:	e2733020 	rsbs	r3, r3, #32	; 0x20
30002828:	01a0b806 	moveq	fp, r6, lsl #16
3000282c:	e58d3008 	str	r3, [sp, #8]
30002830:	00665005 	rsbeq	r5, r6, r5
30002834:	01a0b82b 	moveq	fp, fp, lsr #16
30002838:	01a08826 	moveq	r8, r6, lsr #16
3000283c:	0a00002a 	beq	300028ec <__umoddi3+0x2f8>
30002840:	e59d2008 	ldr	r2, [sp, #8]
30002844:	e2623020 	rsb	r3, r2, #32	; 0x20
30002848:	e1a06216 	mov	r6, r6, lsl r2
3000284c:	e1a07335 	mov	r7, r5, lsr r3
30002850:	e1a08826 	mov	r8, r6, lsr #16
30002854:	e58d300c 	str	r3, [sp, #12]
30002858:	e1a01008 	mov	r1, r8
3000285c:	e1a03339 	mov	r3, r9, lsr r3
30002860:	e1a00007 	mov	r0, r7
30002864:	e1835215 	orr	r5, r3, r5, lsl r2
30002868:	ebfffab8 	bl	30001350 <__umodsi3>
3000286c:	e1a01008 	mov	r1, r8
30002870:	e1a04000 	mov	r4, r0
30002874:	e1a00007 	mov	r0, r7
30002878:	ebfffa78 	bl	30001260 <__udivsi3>
3000287c:	e1a0b806 	mov	fp, r6, lsl #16
30002880:	e1a0b82b 	mov	fp, fp, lsr #16
30002884:	e002009b 	mul	r2, fp, r0
30002888:	e1a03825 	mov	r3, r5, lsr #16
3000288c:	e1834804 	orr	r4, r3, r4, lsl #16
30002890:	e59dc008 	ldr	ip, [sp, #8]
30002894:	e1540002 	cmp	r4, r2
30002898:	e1a09c19 	mov	r9, r9, lsl ip
3000289c:	2a000001 	bcs	300028a8 <__umoddi3+0x2b4>
300028a0:	e0944006 	adds	r4, r4, r6
300028a4:	3a0000b4 	bcc	30002b7c <__umoddi3+0x588>
300028a8:	e0624004 	rsb	r4, r2, r4
300028ac:	e1a01008 	mov	r1, r8
300028b0:	e1a00004 	mov	r0, r4
300028b4:	ebfffaa5 	bl	30001350 <__umodsi3>
300028b8:	e1a01008 	mov	r1, r8
300028bc:	e1a07000 	mov	r7, r0
300028c0:	e1a00004 	mov	r0, r4
300028c4:	ebfffa65 	bl	30001260 <__udivsi3>
300028c8:	e002009b 	mul	r2, fp, r0
300028cc:	e1a03805 	mov	r3, r5, lsl #16
300028d0:	e1a03823 	mov	r3, r3, lsr #16
300028d4:	e1837807 	orr	r7, r3, r7, lsl #16
300028d8:	e1570002 	cmp	r7, r2
300028dc:	2a000001 	bcs	300028e8 <__umoddi3+0x2f4>
300028e0:	e0977006 	adds	r7, r7, r6
300028e4:	3a0000a1 	bcc	30002b70 <__umoddi3+0x57c>
300028e8:	e0625007 	rsb	r5, r2, r7
300028ec:	e1a01008 	mov	r1, r8
300028f0:	e1a00005 	mov	r0, r5
300028f4:	ebfffa95 	bl	30001350 <__umodsi3>
300028f8:	e1a01008 	mov	r1, r8
300028fc:	e1a04000 	mov	r4, r0
30002900:	e1a00005 	mov	r0, r5
30002904:	ebfffa55 	bl	30001260 <__udivsi3>
30002908:	e002009b 	mul	r2, fp, r0
3000290c:	e1a03829 	mov	r3, r9, lsr #16
30002910:	e1834804 	orr	r4, r3, r4, lsl #16
30002914:	e1540002 	cmp	r4, r2
30002918:	2a000003 	bcs	3000292c <__umoddi3+0x338>
3000291c:	e0944006 	adds	r4, r4, r6
30002920:	2a000001 	bcs	3000292c <__umoddi3+0x338>
30002924:	e1540002 	cmp	r4, r2
30002928:	30844006 	addcc	r4, r4, r6
3000292c:	e0624004 	rsb	r4, r2, r4
30002930:	e1a01008 	mov	r1, r8
30002934:	e1a00004 	mov	r0, r4
30002938:	ebfffa84 	bl	30001350 <__umodsi3>
3000293c:	e1a01008 	mov	r1, r8
30002940:	e1a05000 	mov	r5, r0
30002944:	e1a00004 	mov	r0, r4
30002948:	ebfffa44 	bl	30001260 <__udivsi3>
3000294c:	e002009b 	mul	r2, fp, r0
30002950:	eaffff68 	b	300026f8 <__umoddi3+0x104>
30002954:	e1a01002 	mov	r1, r2
30002958:	e3a00001 	mov	r0, #1	; 0x1
3000295c:	ebfffa3f 	bl	30001260 <__udivsi3>
30002960:	e1a06000 	mov	r6, r0
30002964:	e3560801 	cmp	r6, #65536	; 0x10000
30002968:	3affffa5 	bcc	30002804 <__umoddi3+0x210>
3000296c:	e3560401 	cmp	r6, #16777216	; 0x1000000
30002970:	23a0c018 	movcs	ip, #24	; 0x18
30002974:	33a0c010 	movcc	ip, #16	; 0x10
30002978:	eaffffa4 	b	30002810 <__umoddi3+0x21c>
3000297c:	e59f2214 	ldr	r2, [pc, #532]	; 30002b98 <.text+0x1938>
30002980:	e35400ff 	cmp	r4, #255	; 0xff
30002984:	83a0c008 	movhi	ip, #8	; 0x8
30002988:	93a0c000 	movls	ip, #0	; 0x0
3000298c:	e79a1002 	ldr	r1, [sl, r2]
30002990:	e1a00c34 	mov	r0, r4, lsr ip
30002994:	e7d13000 	ldrb	r3, [r1, r0]
30002998:	e083300c 	add	r3, r3, ip
3000299c:	e2733020 	rsbs	r3, r3, #32	; 0x20
300029a0:	e58d3008 	str	r3, [sp, #8]
300029a4:	0affff80 	beq	300027ac <__umoddi3+0x1b8>
300029a8:	e59dc008 	ldr	ip, [sp, #8]
300029ac:	e59d2008 	ldr	r2, [sp, #8]
300029b0:	e26cc020 	rsb	ip, ip, #32	; 0x20
300029b4:	e1a03c36 	mov	r3, r6, lsr ip
300029b8:	e1834214 	orr	r4, r3, r4, lsl r2
300029bc:	e1a03824 	mov	r3, r4, lsr #16
300029c0:	e1a07c35 	mov	r7, r5, lsr ip
300029c4:	e58d3004 	str	r3, [sp, #4]
300029c8:	e59d1004 	ldr	r1, [sp, #4]
300029cc:	e1a03c39 	mov	r3, r9, lsr ip
300029d0:	e1a00007 	mov	r0, r7
300029d4:	e1835215 	orr	r5, r3, r5, lsl r2
300029d8:	e58dc00c 	str	ip, [sp, #12]
300029dc:	ebfffa5b 	bl	30001350 <__umodsi3>
300029e0:	e59d1004 	ldr	r1, [sp, #4]
300029e4:	e1a08000 	mov	r8, r0
300029e8:	e1a00007 	mov	r0, r7
300029ec:	ebfffa1b 	bl	30001260 <__udivsi3>
300029f0:	e1a0b804 	mov	fp, r4, lsl #16
300029f4:	e1a0b82b 	mov	fp, fp, lsr #16
300029f8:	e1a02000 	mov	r2, r0
300029fc:	e002029b 	mul	r2, fp, r2
30002a00:	e1a03825 	mov	r3, r5, lsr #16
30002a04:	e59dc008 	ldr	ip, [sp, #8]
30002a08:	e1838808 	orr	r8, r3, r8, lsl #16
30002a0c:	e1580002 	cmp	r8, r2
30002a10:	e58d0000 	str	r0, [sp]
30002a14:	e1a06c16 	mov	r6, r6, lsl ip
30002a18:	e1a09c19 	mov	r9, r9, lsl ip
30002a1c:	2a000003 	bcs	30002a30 <__umoddi3+0x43c>
30002a20:	e2403001 	sub	r3, r0, #1	; 0x1
30002a24:	e0988004 	adds	r8, r8, r4
30002a28:	e58d3000 	str	r3, [sp]
30002a2c:	3a00004a 	bcc	30002b5c <__umoddi3+0x568>
30002a30:	e0628008 	rsb	r8, r2, r8
30002a34:	e59d1004 	ldr	r1, [sp, #4]
30002a38:	e1a00008 	mov	r0, r8
30002a3c:	ebfffa43 	bl	30001350 <__umodsi3>
30002a40:	e59d1004 	ldr	r1, [sp, #4]
30002a44:	e1a07000 	mov	r7, r0
30002a48:	e1a00008 	mov	r0, r8
30002a4c:	ebfffa03 	bl	30001260 <__udivsi3>
30002a50:	e002009b 	mul	r2, fp, r0
30002a54:	e1a03805 	mov	r3, r5, lsl #16
30002a58:	e1a03823 	mov	r3, r3, lsr #16
30002a5c:	e1837807 	orr	r7, r3, r7, lsl #16
30002a60:	e1570002 	cmp	r7, r2
30002a64:	2a000002 	bcs	30002a74 <__umoddi3+0x480>
30002a68:	e0977004 	adds	r7, r7, r4
30002a6c:	e2400001 	sub	r0, r0, #1	; 0x1
30002a70:	3a000035 	bcc	30002b4c <__umoddi3+0x558>
30002a74:	e59d5000 	ldr	r5, [sp]
30002a78:	e0627007 	rsb	r7, r2, r7
30002a7c:	e1803805 	orr	r3, r0, r5, lsl #16
30002a80:	e1a00823 	mov	r0, r3, lsr #16
30002a84:	e1a0c826 	mov	ip, r6, lsr #16
30002a88:	e1c31800 	bic	r1, r3, r0, lsl #16
30002a8c:	e1c6280c 	bic	r2, r6, ip, lsl #16
30002a90:	e00e0291 	mul	lr, r1, r2
30002a94:	e0020290 	mul	r2, r0, r2
30002a98:	e001019c 	mul	r1, ip, r1
30002a9c:	e00c0c90 	mul	ip, r0, ip
30002aa0:	e0921001 	adds	r1, r2, r1
30002aa4:	228cc801 	addcs	ip, ip, #65536	; 0x10000
30002aa8:	e09ee801 	adds	lr, lr, r1, lsl #16
30002aac:	e0acc821 	adc	ip, ip, r1, lsr #16
30002ab0:	e15c0007 	cmp	ip, r7
30002ab4:	8a000006 	bhi	30002ad4 <__umoddi3+0x4e0>
30002ab8:	13a03000 	movne	r3, #0	; 0x0
30002abc:	03a03001 	moveq	r3, #1	; 0x1
30002ac0:	e15e0009 	cmp	lr, r9
30002ac4:	93a03000 	movls	r3, #0	; 0x0
30002ac8:	82033001 	andhi	r3, r3, #1	; 0x1
30002acc:	e3530000 	cmp	r3, #0	; 0x0
30002ad0:	0a000002 	beq	30002ae0 <__umoddi3+0x4ec>
30002ad4:	e05e2006 	subs	r2, lr, r6
30002ad8:	e0ccc004 	sbc	ip, ip, r4
30002adc:	e1a0e002 	mov	lr, r2
30002ae0:	e59d3018 	ldr	r3, [sp, #24]
30002ae4:	e3530000 	cmp	r3, #0	; 0x0
30002ae8:	0affff3e 	beq	300027e8 <__umoddi3+0x1f4>
30002aec:	e59d6008 	ldr	r6, [sp, #8]
30002af0:	e059400e 	subs	r4, r9, lr
30002af4:	e0c7500c 	sbc	r5, r7, ip
30002af8:	e59dc00c 	ldr	ip, [sp, #12]
30002afc:	e1a03634 	mov	r3, r4, lsr r6
30002b00:	e1833c15 	orr	r3, r3, r5, lsl ip
30002b04:	e1a05635 	mov	r5, r5, lsr r6
30002b08:	e58d3010 	str	r3, [sp, #16]
30002b0c:	e28d2010 	add	r2, sp, #16	; 0x10
30002b10:	e1a09004 	mov	r9, r4
30002b14:	e59d4018 	ldr	r4, [sp, #24]
30002b18:	e58d5014 	str	r5, [sp, #20]
30002b1c:	e892000c 	ldmia	r2, {r2, r3}
30002b20:	e884000c 	stmia	r4, {r2, r3}
30002b24:	e28d3020 	add	r3, sp, #32	; 0x20
30002b28:	e8130003 	ldmda	r3, {r0, r1}
30002b2c:	eaffff0f 	b	30002770 <__umoddi3+0x17c>
30002b30:	e35200ff 	cmp	r2, #255	; 0xff
30002b34:	83a0c008 	movhi	ip, #8	; 0x8
30002b38:	93a0c000 	movls	ip, #0	; 0x0
30002b3c:	eafffec3 	b	30002650 <__umoddi3+0x5c>
30002b40:	e28d4020 	add	r4, sp, #32	; 0x20
30002b44:	e8140003 	ldmda	r4, {r0, r1}
30002b48:	eaffff08 	b	30002770 <__umoddi3+0x17c>
30002b4c:	e1570002 	cmp	r7, r2
30002b50:	32400001 	subcc	r0, r0, #1	; 0x1
30002b54:	30877004 	addcc	r7, r7, r4
30002b58:	eaffffc5 	b	30002a74 <__umoddi3+0x480>
30002b5c:	e1580002 	cmp	r8, r2
30002b60:	32433001 	subcc	r3, r3, #1	; 0x1
30002b64:	30888004 	addcc	r8, r8, r4
30002b68:	358d3000 	strcc	r3, [sp]
30002b6c:	eaffffaf 	b	30002a30 <__umoddi3+0x43c>
30002b70:	e1570002 	cmp	r7, r2
30002b74:	30877006 	addcc	r7, r7, r6
30002b78:	eaffff5a 	b	300028e8 <__umoddi3+0x2f4>
30002b7c:	e1540002 	cmp	r4, r2
30002b80:	30844006 	addcc	r4, r4, r6
30002b84:	eaffff47 	b	300028a8 <__umoddi3+0x2b4>
30002b88:	e28d5020 	add	r5, sp, #32	; 0x20
30002b8c:	e8150003 	ldmda	r5, {r0, r1}
30002b90:	eafffef6 	b	30002770 <__umoddi3+0x17c>
30002b94:	00004668 	andeq	r4, r0, r8, ror #12
30002b98:	00000000 	andeq	r0, r0, r0
Disassembly of section .text.S3C2440_LedInitialized:

30002b9c <S3C2440_LedInitialized>:
30002b9c:	e1a0c00d 	mov	ip, sp
30002ba0:	e92dd800 	stmdb	sp!, {fp, ip, lr, pc}
30002ba4:	e24cb004 	sub	fp, ip, #4	; 0x4
30002ba8:	e3a02456 	mov	r2, #1442840576	; 0x56000000
30002bac:	e2822050 	add	r2, r2, #80	; 0x50
30002bb0:	e3a03456 	mov	r3, #1442840576	; 0x56000000
30002bb4:	e2833050 	add	r3, r3, #80	; 0x50
30002bb8:	e5933000 	ldr	r3, [r3]
30002bbc:	e3c33c3f 	bic	r3, r3, #16128	; 0x3f00
30002bc0:	e5823000 	str	r3, [r2]
30002bc4:	e3a02456 	mov	r2, #1442840576	; 0x56000000
30002bc8:	e2822050 	add	r2, r2, #80	; 0x50
30002bcc:	e3a03456 	mov	r3, #1442840576	; 0x56000000
30002bd0:	e2833050 	add	r3, r3, #80	; 0x50
30002bd4:	e5933000 	ldr	r3, [r3]
30002bd8:	e3833c15 	orr	r3, r3, #5376	; 0x1500
30002bdc:	e5823000 	str	r3, [r2]
30002be0:	e89da800 	ldmia	sp, {fp, sp, pc}
Disassembly of section .text.S3C2440_KeyInitialized:

30002be4 <S3C2440_KeyInitialized>:
30002be4:	e1a0c00d 	mov	ip, sp
30002be8:	e92dd800 	stmdb	sp!, {fp, ip, lr, pc}
30002bec:	e24cb004 	sub	fp, ip, #4	; 0x4
30002bf0:	e3a02456 	mov	r2, #1442840576	; 0x56000000
30002bf4:	e2822050 	add	r2, r2, #80	; 0x50
30002bf8:	e3a03456 	mov	r3, #1442840576	; 0x56000000
30002bfc:	e2833050 	add	r3, r3, #80	; 0x50
30002c00:	e5933000 	ldr	r3, [r3]
30002c04:	e3c33033 	bic	r3, r3, #51	; 0x33
30002c08:	e5823000 	str	r3, [r2]
30002c0c:	e3a02456 	mov	r2, #1442840576	; 0x56000000
30002c10:	e2822050 	add	r2, r2, #80	; 0x50
30002c14:	e3a03456 	mov	r3, #1442840576	; 0x56000000
30002c18:	e2833050 	add	r3, r3, #80	; 0x50
30002c1c:	e5933000 	ldr	r3, [r3]
30002c20:	e5823000 	str	r3, [r2]
30002c24:	e3a02456 	mov	r2, #1442840576	; 0x56000000
30002c28:	e2822060 	add	r2, r2, #96	; 0x60
30002c2c:	e3a03456 	mov	r3, #1442840576	; 0x56000000
30002c30:	e2833060 	add	r3, r3, #96	; 0x60
30002c34:	e5933000 	ldr	r3, [r3]
30002c38:	e3c33503 	bic	r3, r3, #12582912	; 0xc00000
30002c3c:	e3c330c0 	bic	r3, r3, #192	; 0xc0
30002c40:	e5823000 	str	r3, [r2]
30002c44:	e3a02456 	mov	r2, #1442840576	; 0x56000000
30002c48:	e2822060 	add	r2, r2, #96	; 0x60
30002c4c:	e3a03456 	mov	r3, #1442840576	; 0x56000000
30002c50:	e2833060 	add	r3, r3, #96	; 0x60
30002c54:	e5933000 	ldr	r3, [r3]
30002c58:	e5823000 	str	r3, [r2]
30002c5c:	e89da800 	ldmia	sp, {fp, sp, pc}
Disassembly of section .text.S3C2440_Uart0Initialized:

30002c60 <S3C2440_Uart0Initialized>:
30002c60:	e1a0c00d 	mov	ip, sp
30002c64:	e92dd800 	stmdb	sp!, {fp, ip, lr, pc}
30002c68:	e24cb004 	sub	fp, ip, #4	; 0x4
30002c6c:	e3a02456 	mov	r2, #1442840576	; 0x56000000
30002c70:	e2822070 	add	r2, r2, #112	; 0x70
30002c74:	e3a03456 	mov	r3, #1442840576	; 0x56000000
30002c78:	e2833070 	add	r3, r3, #112	; 0x70
30002c7c:	e5933000 	ldr	r3, [r3]
30002c80:	e3c330f0 	bic	r3, r3, #240	; 0xf0
30002c84:	e5823000 	str	r3, [r2]
30002c88:	e3a02456 	mov	r2, #1442840576	; 0x56000000
30002c8c:	e2822070 	add	r2, r2, #112	; 0x70
30002c90:	e3a03456 	mov	r3, #1442840576	; 0x56000000
30002c94:	e2833070 	add	r3, r3, #112	; 0x70
30002c98:	e5933000 	ldr	r3, [r3]
30002c9c:	e38330a0 	orr	r3, r3, #160	; 0xa0
30002ca0:	e5823000 	str	r3, [r2]
30002ca4:	e3a02456 	mov	r2, #1442840576	; 0x56000000
30002ca8:	e2822078 	add	r2, r2, #120	; 0x78
30002cac:	e3a03456 	mov	r3, #1442840576	; 0x56000000
30002cb0:	e2833078 	add	r3, r3, #120	; 0x78
30002cb4:	e5933000 	ldr	r3, [r3]
30002cb8:	e3c3300c 	bic	r3, r3, #12	; 0xc
30002cbc:	e5823000 	str	r3, [r2]
30002cc0:	e3a02245 	mov	r2, #1342177284	; 0x50000004
30002cc4:	e3a03245 	mov	r3, #1342177284	; 0x50000004
30002cc8:	e5933000 	ldr	r3, [r3]
30002ccc:	e3c3300f 	bic	r3, r3, #15	; 0xf
30002cd0:	e5823000 	str	r3, [r2]
30002cd4:	e3a02245 	mov	r2, #1342177284	; 0x50000004
30002cd8:	e3a03245 	mov	r3, #1342177284	; 0x50000004
30002cdc:	e5933000 	ldr	r3, [r3]
30002ce0:	e3833005 	orr	r3, r3, #5	; 0x5
30002ce4:	e5823000 	str	r3, [r2]
30002ce8:	e3a03205 	mov	r3, #1342177280	; 0x50000000
30002cec:	e2833028 	add	r3, r3, #40	; 0x28
30002cf0:	e3a0201a 	mov	r2, #26	; 0x1a
30002cf4:	e5832000 	str	r2, [r3]
30002cf8:	e3a02205 	mov	r2, #1342177280	; 0x50000000
30002cfc:	e3a03205 	mov	r3, #1342177280	; 0x50000000
30002d00:	e5933000 	ldr	r3, [r3]
30002d04:	e3c33003 	bic	r3, r3, #3	; 0x3
30002d08:	e5823000 	str	r3, [r2]
30002d0c:	e3a02205 	mov	r2, #1342177280	; 0x50000000
30002d10:	e3a03205 	mov	r3, #1342177280	; 0x50000000
30002d14:	e5933000 	ldr	r3, [r3]
30002d18:	e3833003 	orr	r3, r3, #3	; 0x3
30002d1c:	e5823000 	str	r3, [r2]
30002d20:	e89da800 	ldmia	sp, {fp, sp, pc}
Disassembly of section .text.S3C2440_Uart0_Putchar:

30002d24 <S3C2440_Uart0_Putchar>:
30002d24:	e1a0c00d 	mov	ip, sp
30002d28:	e92dd800 	stmdb	sp!, {fp, ip, lr, pc}
30002d2c:	e24cb004 	sub	fp, ip, #4	; 0x4
30002d30:	e24dd004 	sub	sp, sp, #4	; 0x4
30002d34:	e50b0010 	str	r0, [fp, #-16]
30002d38:	e3a03205 	mov	r3, #1342177280	; 0x50000000
30002d3c:	e2833010 	add	r3, r3, #16	; 0x10
30002d40:	e5933000 	ldr	r3, [r3]
30002d44:	e2033004 	and	r3, r3, #4	; 0x4
30002d48:	e3530000 	cmp	r3, #0	; 0x0
30002d4c:	1a000000 	bne	30002d54 <S3C2440_Uart0_Putchar+0x30>
30002d50:	eafffff8 	b	30002d38 <S3C2440_Uart0_Putchar+0x14>
30002d54:	e3a03205 	mov	r3, #1342177280	; 0x50000000
30002d58:	e2833020 	add	r3, r3, #32	; 0x20
30002d5c:	e51b2010 	ldr	r2, [fp, #-16]
30002d60:	e5c32000 	strb	r2, [r3]
30002d64:	e51b3010 	ldr	r3, [fp, #-16]
30002d68:	e1a00003 	mov	r0, r3
30002d6c:	e89da808 	ldmia	sp, {r3, fp, sp, pc}
Disassembly of section .text.S3C2440_Uart0_Getchar:

30002d70 <S3C2440_Uart0_Getchar>:
30002d70:	e1a0c00d 	mov	ip, sp
30002d74:	e92dd800 	stmdb	sp!, {fp, ip, lr, pc}
30002d78:	e24cb004 	sub	fp, ip, #4	; 0x4
30002d7c:	e3a03205 	mov	r3, #1342177280	; 0x50000000
30002d80:	e2833010 	add	r3, r3, #16	; 0x10
30002d84:	e5933000 	ldr	r3, [r3]
30002d88:	e2033001 	and	r3, r3, #1	; 0x1
30002d8c:	e3530000 	cmp	r3, #0	; 0x0
30002d90:	1a000000 	bne	30002d98 <S3C2440_Uart0_Getchar+0x28>
30002d94:	eafffff8 	b	30002d7c <S3C2440_Uart0_Getchar+0xc>
30002d98:	e3a03205 	mov	r3, #1342177280	; 0x50000000
30002d9c:	e2833024 	add	r3, r3, #36	; 0x24
30002da0:	e5d33000 	ldrb	r3, [r3]
30002da4:	e20330ff 	and	r3, r3, #255	; 0xff
30002da8:	e1a00003 	mov	r0, r3
30002dac:	e89da800 	ldmia	sp, {fp, sp, pc}
Disassembly of section .text.S3C2440_Uart0_Puts:

30002db0 <S3C2440_Uart0_Puts>:
30002db0:	e1a0c00d 	mov	ip, sp
30002db4:	e92dd800 	stmdb	sp!, {fp, ip, lr, pc}
30002db8:	e24cb004 	sub	fp, ip, #4	; 0x4
30002dbc:	e24dd008 	sub	sp, sp, #8	; 0x8
30002dc0:	e50b0010 	str	r0, [fp, #-16]
30002dc4:	e3a03000 	mov	r3, #0	; 0x0
30002dc8:	e50b3014 	str	r3, [fp, #-20]
30002dcc:	e51b3010 	ldr	r3, [fp, #-16]
30002dd0:	e5d33000 	ldrb	r3, [r3]
30002dd4:	e3530000 	cmp	r3, #0	; 0x0
30002dd8:	0a00000b 	beq	30002e0c <S3C2440_Uart0_Puts+0x5c>
30002ddc:	e24b1010 	sub	r1, fp, #16	; 0x10
30002de0:	e5913000 	ldr	r3, [r1]
30002de4:	e1a02003 	mov	r2, r3
30002de8:	e5d22000 	ldrb	r2, [r2]
30002dec:	e2833001 	add	r3, r3, #1	; 0x1
30002df0:	e5813000 	str	r3, [r1]
30002df4:	e1a00002 	mov	r0, r2
30002df8:	ebffffc9 	bl	30002d24 <S3C2440_Uart0_Putchar>
30002dfc:	e51b3014 	ldr	r3, [fp, #-20]
30002e00:	e2833001 	add	r3, r3, #1	; 0x1
30002e04:	e50b3014 	str	r3, [fp, #-20]
30002e08:	eaffffef 	b	30002dcc <S3C2440_Uart0_Puts+0x1c>
30002e0c:	e51b3014 	ldr	r3, [fp, #-20]
30002e10:	e1a00003 	mov	r0, r3
30002e14:	e24bd00c 	sub	sp, fp, #12	; 0xc
30002e18:	e89da800 	ldmia	sp, {fp, sp, pc}
Disassembly of section .text.S3C2440_EXTI_Init:

30002e1c <S3C2440_EXTI_Init>:
30002e1c:	e1a0c00d 	mov	ip, sp
30002e20:	e92dd800 	stmdb	sp!, {fp, ip, lr, pc}
30002e24:	e24cb004 	sub	fp, ip, #4	; 0x4
30002e28:	e3a02456 	mov	r2, #1442840576	; 0x56000000
30002e2c:	e2822050 	add	r2, r2, #80	; 0x50
30002e30:	e3a03456 	mov	r3, #1442840576	; 0x56000000
30002e34:	e2833050 	add	r3, r3, #80	; 0x50
30002e38:	e5933000 	ldr	r3, [r3]
30002e3c:	e3c33033 	bic	r3, r3, #51	; 0x33
30002e40:	e5823000 	str	r3, [r2]
30002e44:	e3a02456 	mov	r2, #1442840576	; 0x56000000
30002e48:	e2822050 	add	r2, r2, #80	; 0x50
30002e4c:	e3a03456 	mov	r3, #1442840576	; 0x56000000
30002e50:	e2833050 	add	r3, r3, #80	; 0x50
30002e54:	e5933000 	ldr	r3, [r3]
30002e58:	e3833022 	orr	r3, r3, #34	; 0x22
30002e5c:	e5823000 	str	r3, [r2]
30002e60:	e3a02456 	mov	r2, #1442840576	; 0x56000000
30002e64:	e2822060 	add	r2, r2, #96	; 0x60
30002e68:	e3a03456 	mov	r3, #1442840576	; 0x56000000
30002e6c:	e2833060 	add	r3, r3, #96	; 0x60
30002e70:	e5933000 	ldr	r3, [r3]
30002e74:	e3c33503 	bic	r3, r3, #12582912	; 0xc00000
30002e78:	e3c330c0 	bic	r3, r3, #192	; 0xc0
30002e7c:	e5823000 	str	r3, [r2]
30002e80:	e3a02456 	mov	r2, #1442840576	; 0x56000000
30002e84:	e2822060 	add	r2, r2, #96	; 0x60
30002e88:	e3a03456 	mov	r3, #1442840576	; 0x56000000
30002e8c:	e2833060 	add	r3, r3, #96	; 0x60
30002e90:	e5933000 	ldr	r3, [r3]
30002e94:	e3833502 	orr	r3, r3, #8388608	; 0x800000
30002e98:	e3833080 	orr	r3, r3, #128	; 0x80
30002e9c:	e5823000 	str	r3, [r2]
30002ea0:	e3a02456 	mov	r2, #1442840576	; 0x56000000
30002ea4:	e2822088 	add	r2, r2, #136	; 0x88
30002ea8:	e3a03456 	mov	r3, #1442840576	; 0x56000000
30002eac:	e2833088 	add	r3, r3, #136	; 0x88
30002eb0:	e5933000 	ldr	r3, [r3]
30002eb4:	e3c33007 	bic	r3, r3, #7	; 0x7
30002eb8:	e5823000 	str	r3, [r2]
30002ebc:	e3a02456 	mov	r2, #1442840576	; 0x56000000
30002ec0:	e2822088 	add	r2, r2, #136	; 0x88
30002ec4:	e3a03456 	mov	r3, #1442840576	; 0x56000000
30002ec8:	e2833088 	add	r3, r3, #136	; 0x88
30002ecc:	e5933000 	ldr	r3, [r3]
30002ed0:	e3833007 	orr	r3, r3, #7	; 0x7
30002ed4:	e5823000 	str	r3, [r2]
30002ed8:	e3a02456 	mov	r2, #1442840576	; 0x56000000
30002edc:	e2822088 	add	r2, r2, #136	; 0x88
30002ee0:	e3a03456 	mov	r3, #1442840576	; 0x56000000
30002ee4:	e2833088 	add	r3, r3, #136	; 0x88
30002ee8:	e5933000 	ldr	r3, [r3]
30002eec:	e3c33c07 	bic	r3, r3, #1792	; 0x700
30002ef0:	e5823000 	str	r3, [r2]
30002ef4:	e3a02456 	mov	r2, #1442840576	; 0x56000000
30002ef8:	e2822088 	add	r2, r2, #136	; 0x88
30002efc:	e3a03456 	mov	r3, #1442840576	; 0x56000000
30002f00:	e2833088 	add	r3, r3, #136	; 0x88
30002f04:	e5933000 	ldr	r3, [r3]
30002f08:	e3833c07 	orr	r3, r3, #1792	; 0x700
30002f0c:	e5823000 	str	r3, [r2]
30002f10:	e3a02456 	mov	r2, #1442840576	; 0x56000000
30002f14:	e282208c 	add	r2, r2, #140	; 0x8c
30002f18:	e3a03456 	mov	r3, #1442840576	; 0x56000000
30002f1c:	e283308c 	add	r3, r3, #140	; 0x8c
30002f20:	e5933000 	ldr	r3, [r3]
30002f24:	e3c33a07 	bic	r3, r3, #28672	; 0x7000
30002f28:	e5823000 	str	r3, [r2]
30002f2c:	e3a02456 	mov	r2, #1442840576	; 0x56000000
30002f30:	e282208c 	add	r2, r2, #140	; 0x8c
30002f34:	e3a03456 	mov	r3, #1442840576	; 0x56000000
30002f38:	e283308c 	add	r3, r3, #140	; 0x8c
30002f3c:	e5933000 	ldr	r3, [r3]
30002f40:	e3833a07 	orr	r3, r3, #28672	; 0x7000
30002f44:	e5823000 	str	r3, [r2]
30002f48:	e3a02456 	mov	r2, #1442840576	; 0x56000000
30002f4c:	e2822090 	add	r2, r2, #144	; 0x90
30002f50:	e3a03456 	mov	r3, #1442840576	; 0x56000000
30002f54:	e2833090 	add	r3, r3, #144	; 0x90
30002f58:	e5933000 	ldr	r3, [r3]
30002f5c:	e3c33a07 	bic	r3, r3, #28672	; 0x7000
30002f60:	e5823000 	str	r3, [r2]
30002f64:	e3a02456 	mov	r2, #1442840576	; 0x56000000
30002f68:	e2822090 	add	r2, r2, #144	; 0x90
30002f6c:	e3a03456 	mov	r3, #1442840576	; 0x56000000
30002f70:	e2833090 	add	r3, r3, #144	; 0x90
30002f74:	e5933000 	ldr	r3, [r3]
30002f78:	e3833a07 	orr	r3, r3, #28672	; 0x7000
30002f7c:	e5823000 	str	r3, [r2]
30002f80:	e3a02456 	mov	r2, #1442840576	; 0x56000000
30002f84:	e28220a4 	add	r2, r2, #164	; 0xa4
30002f88:	e3a03456 	mov	r3, #1442840576	; 0x56000000
30002f8c:	e28330a4 	add	r3, r3, #164	; 0xa4
30002f90:	e5933000 	ldr	r3, [r3]
30002f94:	e3c33702 	bic	r3, r3, #524288	; 0x80000
30002f98:	e3c33b02 	bic	r3, r3, #2048	; 0x800
30002f9c:	e5823000 	str	r3, [r2]
30002fa0:	e3a00000 	mov	r0, #0	; 0x0
30002fa4:	e59f101c 	ldr	r1, [pc, #28]	; 30002fc8 <.text.S3C2440_EXTI_Init+0x1ac>
30002fa8:	ebfff4e3 	bl	3000033c <S3C2440_IRQRegister>
30002fac:	e3a00002 	mov	r0, #2	; 0x2
30002fb0:	e59f1010 	ldr	r1, [pc, #16]	; 30002fc8 <.text.S3C2440_EXTI_Init+0x1ac>
30002fb4:	ebfff4e0 	bl	3000033c <S3C2440_IRQRegister>
30002fb8:	e3a00005 	mov	r0, #5	; 0x5
30002fbc:	e59f1004 	ldr	r1, [pc, #4]	; 30002fc8 <.text.S3C2440_EXTI_Init+0x1ac>
30002fc0:	ebfff4dd 	bl	3000033c <S3C2440_IRQRegister>
30002fc4:	e89da800 	ldmia	sp, {fp, sp, pc}
30002fc8:	300030e0 	andcc	r3, r0, r0, ror #1
Disassembly of section .text.S3C2440_EXTI_Register:

30002fcc <S3C2440_EXTI_Register>:
30002fcc:	e1a0c00d 	mov	ip, sp
30002fd0:	e92dd800 	stmdb	sp!, {fp, ip, lr, pc}
30002fd4:	e24cb004 	sub	fp, ip, #4	; 0x4
30002fd8:	e24dd014 	sub	sp, sp, #20	; 0x14
30002fdc:	e50b0010 	str	r0, [fp, #-16]
30002fe0:	e1a03001 	mov	r3, r1
30002fe4:	e50b2018 	str	r2, [fp, #-24]
30002fe8:	e54b3011 	strb	r3, [fp, #-17]
30002fec:	e3a03000 	mov	r3, #0	; 0x0
30002ff0:	e50b301c 	str	r3, [fp, #-28]
30002ff4:	e51b301c 	ldr	r3, [fp, #-28]
30002ff8:	e353001f 	cmp	r3, #31	; 0x1f
30002ffc:	ca000031 	bgt	300030c8 <S3C2440_EXTI_Register+0xfc>
30003000:	e59f10d4 	ldr	r1, [pc, #212]	; 300030dc <.text.S3C2440_EXTI_Register+0x110>
30003004:	e51b201c 	ldr	r2, [fp, #-28]
30003008:	e3a00008 	mov	r0, #8	; 0x8
3000300c:	e1a03002 	mov	r3, r2
30003010:	e1a03083 	mov	r3, r3, lsl #1
30003014:	e0833002 	add	r3, r3, r2
30003018:	e1a03103 	mov	r3, r3, lsl #2
3000301c:	e0833001 	add	r3, r3, r1
30003020:	e0833000 	add	r3, r3, r0
30003024:	e5933000 	ldr	r3, [r3]
30003028:	e3530000 	cmp	r3, #0	; 0x0
3000302c:	1a000021 	bne	300030b8 <S3C2440_EXTI_Register+0xec>
30003030:	e59f10a4 	ldr	r1, [pc, #164]	; 300030dc <.text.S3C2440_EXTI_Register+0x110>
30003034:	e51b201c 	ldr	r2, [fp, #-28]
30003038:	e1a03002 	mov	r3, r2
3000303c:	e1a03083 	mov	r3, r3, lsl #1
30003040:	e0833002 	add	r3, r3, r2
30003044:	e1a03103 	mov	r3, r3, lsl #2
30003048:	e0832001 	add	r2, r3, r1
3000304c:	e51b3010 	ldr	r3, [fp, #-16]
30003050:	e5823000 	str	r3, [r2]
30003054:	e59f1080 	ldr	r1, [pc, #128]	; 300030dc <.text.S3C2440_EXTI_Register+0x110>
30003058:	e51b201c 	ldr	r2, [fp, #-28]
3000305c:	e3a00004 	mov	r0, #4	; 0x4
30003060:	e1a03002 	mov	r3, r2
30003064:	e1a03083 	mov	r3, r3, lsl #1
30003068:	e0833002 	add	r3, r3, r2
3000306c:	e1a03103 	mov	r3, r3, lsl #2
30003070:	e0833001 	add	r3, r3, r1
30003074:	e0832000 	add	r2, r3, r0
30003078:	e55b3011 	ldrb	r3, [fp, #-17]
3000307c:	e5c23000 	strb	r3, [r2]
30003080:	e59f1054 	ldr	r1, [pc, #84]	; 300030dc <.text.S3C2440_EXTI_Register+0x110>
30003084:	e51b201c 	ldr	r2, [fp, #-28]
30003088:	e3a00008 	mov	r0, #8	; 0x8
3000308c:	e1a03002 	mov	r3, r2
30003090:	e1a03083 	mov	r3, r3, lsl #1
30003094:	e0833002 	add	r3, r3, r2
30003098:	e1a03103 	mov	r3, r3, lsl #2
3000309c:	e0833001 	add	r3, r3, r1
300030a0:	e0832000 	add	r2, r3, r0
300030a4:	e51b3018 	ldr	r3, [fp, #-24]
300030a8:	e5823000 	str	r3, [r2]
300030ac:	e3a03000 	mov	r3, #0	; 0x0
300030b0:	e50b3020 	str	r3, [fp, #-32]
300030b4:	ea000005 	b	300030d0 <S3C2440_EXTI_Register+0x104>
300030b8:	e51b301c 	ldr	r3, [fp, #-28]
300030bc:	e2833001 	add	r3, r3, #1	; 0x1
300030c0:	e50b301c 	str	r3, [fp, #-28]
300030c4:	eaffffca 	b	30002ff4 <S3C2440_EXTI_Register+0x28>
300030c8:	e3e03000 	mvn	r3, #0	; 0x0
300030cc:	e50b3020 	str	r3, [fp, #-32]
300030d0:	e51b0020 	ldr	r0, [fp, #-32]
300030d4:	e24bd00c 	sub	sp, fp, #12	; 0xc
300030d8:	e89da800 	ldmia	sp, {fp, sp, pc}
300030dc:	30006d08 	andcc	r6, r0, r8, lsl #26
Disassembly of section .text.S3C2440_EXTI_Irq:

300030e0 <S3C2440_EXTI_Irq>:
300030e0:	e1a0c00d 	mov	ip, sp
300030e4:	e92dd800 	stmdb	sp!, {fp, ip, lr, pc}
300030e8:	e24cb004 	sub	fp, ip, #4	; 0x4
300030ec:	e24dd008 	sub	sp, sp, #8	; 0x8
300030f0:	e50b0010 	str	r0, [fp, #-16]
300030f4:	e3a03000 	mov	r3, #0	; 0x0
300030f8:	e50b3014 	str	r3, [fp, #-20]
300030fc:	e51b3014 	ldr	r3, [fp, #-20]
30003100:	e353001f 	cmp	r3, #31	; 0x1f
30003104:	ca000028 	bgt	300031ac <S3C2440_EXTI_Irq+0xcc>
30003108:	e59f10a4 	ldr	r1, [pc, #164]	; 300031b4 <.text.S3C2440_EXTI_Irq+0xd4>
3000310c:	e51b2014 	ldr	r2, [fp, #-20]
30003110:	e3a00008 	mov	r0, #8	; 0x8
30003114:	e1a03002 	mov	r3, r2
30003118:	e1a03083 	mov	r3, r3, lsl #1
3000311c:	e0833002 	add	r3, r3, r2
30003120:	e1a03103 	mov	r3, r3, lsl #2
30003124:	e0833001 	add	r3, r3, r1
30003128:	e0833000 	add	r3, r3, r0
3000312c:	e5933000 	ldr	r3, [r3]
30003130:	e3530000 	cmp	r3, #0	; 0x0
30003134:	0a000018 	beq	3000319c <S3C2440_EXTI_Irq+0xbc>
30003138:	e59f1074 	ldr	r1, [pc, #116]	; 300031b4 <.text.S3C2440_EXTI_Irq+0xd4>
3000313c:	e51b2014 	ldr	r2, [fp, #-20]
30003140:	e3a00004 	mov	r0, #4	; 0x4
30003144:	e1a03002 	mov	r3, r2
30003148:	e1a03083 	mov	r3, r3, lsl #1
3000314c:	e0833002 	add	r3, r3, r2
30003150:	e1a03103 	mov	r3, r3, lsl #2
30003154:	e0833001 	add	r3, r3, r1
30003158:	e0833000 	add	r3, r3, r0
3000315c:	e5d32000 	ldrb	r2, [r3]
30003160:	e51b3010 	ldr	r3, [fp, #-16]
30003164:	e1520003 	cmp	r2, r3
30003168:	1a00000b 	bne	3000319c <S3C2440_EXTI_Irq+0xbc>
3000316c:	e59f1040 	ldr	r1, [pc, #64]	; 300031b4 <.text.S3C2440_EXTI_Irq+0xd4>
30003170:	e51b2014 	ldr	r2, [fp, #-20]
30003174:	e3a00008 	mov	r0, #8	; 0x8
30003178:	e1a03002 	mov	r3, r2
3000317c:	e1a03083 	mov	r3, r3, lsl #1
30003180:	e0833002 	add	r3, r3, r2
30003184:	e1a03103 	mov	r3, r3, lsl #2
30003188:	e0833001 	add	r3, r3, r1
3000318c:	e0833000 	add	r3, r3, r0
30003190:	e5933000 	ldr	r3, [r3]
30003194:	e1a0e00f 	mov	lr, pc
30003198:	e1a0f003 	mov	pc, r3
3000319c:	e51b3014 	ldr	r3, [fp, #-20]
300031a0:	e2833001 	add	r3, r3, #1	; 0x1
300031a4:	e50b3014 	str	r3, [fp, #-20]
300031a8:	eaffffd3 	b	300030fc <S3C2440_EXTI_Irq+0x1c>
300031ac:	e24bd00c 	sub	sp, fp, #12	; 0xc
300031b0:	e89da800 	ldmia	sp, {fp, sp, pc}
300031b4:	30006d08 	andcc	r6, r0, r8, lsl #26
Disassembly of section .text.S3C2440_EXTI_LED1_Irq_Demo:

300031b8 <S3C2440_EXTI_LED1_Irq_Demo>:
300031b8:	e1a0c00d 	mov	ip, sp
300031bc:	e92dd800 	stmdb	sp!, {fp, ip, lr, pc}
300031c0:	e24cb004 	sub	fp, ip, #4	; 0x4
300031c4:	e24dd004 	sub	sp, sp, #4	; 0x4
300031c8:	e3a03456 	mov	r3, #1442840576	; 0x56000000
300031cc:	e28330a8 	add	r3, r3, #168	; 0xa8
300031d0:	e5933000 	ldr	r3, [r3]
300031d4:	e50b3010 	str	r3, [fp, #-16]
300031d8:	e3a03456 	mov	r3, #1442840576	; 0x56000000
300031dc:	e2833054 	add	r3, r3, #84	; 0x54
300031e0:	e5933000 	ldr	r3, [r3]
300031e4:	e2033001 	and	r3, r3, #1	; 0x1
300031e8:	e3530000 	cmp	r3, #0	; 0x0
300031ec:	0a000014 	beq	30003244 <S3C2440_EXTI_LED1_Irq_Demo+0x8c>
300031f0:	e3a03456 	mov	r3, #1442840576	; 0x56000000
300031f4:	e2833054 	add	r3, r3, #84	; 0x54
300031f8:	e5933000 	ldr	r3, [r3]
300031fc:	e2033010 	and	r3, r3, #16	; 0x10
30003200:	e3530000 	cmp	r3, #0	; 0x0
30003204:	0a000007 	beq	30003228 <S3C2440_EXTI_LED1_Irq_Demo+0x70>
30003208:	e3a02456 	mov	r2, #1442840576	; 0x56000000
3000320c:	e2822054 	add	r2, r2, #84	; 0x54
30003210:	e3a03456 	mov	r3, #1442840576	; 0x56000000
30003214:	e2833054 	add	r3, r3, #84	; 0x54
30003218:	e5933000 	ldr	r3, [r3]
3000321c:	e3c33010 	bic	r3, r3, #16	; 0x10
30003220:	e5823000 	str	r3, [r2]
30003224:	ea000006 	b	30003244 <S3C2440_EXTI_LED1_Irq_Demo+0x8c>
30003228:	e3a02456 	mov	r2, #1442840576	; 0x56000000
3000322c:	e2822054 	add	r2, r2, #84	; 0x54
30003230:	e3a03456 	mov	r3, #1442840576	; 0x56000000
30003234:	e2833054 	add	r3, r3, #84	; 0x54
30003238:	e5933000 	ldr	r3, [r3]
3000323c:	e3833010 	orr	r3, r3, #16	; 0x10
30003240:	e5823000 	str	r3, [r2]
30003244:	e3a03456 	mov	r3, #1442840576	; 0x56000000
30003248:	e28330a8 	add	r3, r3, #168	; 0xa8
3000324c:	e51b2010 	ldr	r2, [fp, #-16]
30003250:	e5832000 	str	r2, [r3]
30003254:	e89da808 	ldmia	sp, {r3, fp, sp, pc}
Disassembly of section .text.S3C2440_EXTI_LED2_Irq_Demo:

30003258 <S3C2440_EXTI_LED2_Irq_Demo>:
30003258:	e1a0c00d 	mov	ip, sp
3000325c:	e92dd800 	stmdb	sp!, {fp, ip, lr, pc}
30003260:	e24cb004 	sub	fp, ip, #4	; 0x4
30003264:	e24dd004 	sub	sp, sp, #4	; 0x4
30003268:	e3a03456 	mov	r3, #1442840576	; 0x56000000
3000326c:	e28330a8 	add	r3, r3, #168	; 0xa8
30003270:	e5933000 	ldr	r3, [r3]
30003274:	e50b3010 	str	r3, [fp, #-16]
30003278:	e3a03456 	mov	r3, #1442840576	; 0x56000000
3000327c:	e2833054 	add	r3, r3, #84	; 0x54
30003280:	e5933000 	ldr	r3, [r3]
30003284:	e2033004 	and	r3, r3, #4	; 0x4
30003288:	e3530000 	cmp	r3, #0	; 0x0
3000328c:	0a000014 	beq	300032e4 <S3C2440_EXTI_LED2_Irq_Demo+0x8c>
30003290:	e3a03456 	mov	r3, #1442840576	; 0x56000000
30003294:	e2833054 	add	r3, r3, #84	; 0x54
30003298:	e5933000 	ldr	r3, [r3]
3000329c:	e2033020 	and	r3, r3, #32	; 0x20
300032a0:	e3530000 	cmp	r3, #0	; 0x0
300032a4:	0a000007 	beq	300032c8 <S3C2440_EXTI_LED2_Irq_Demo+0x70>
300032a8:	e3a02456 	mov	r2, #1442840576	; 0x56000000
300032ac:	e2822054 	add	r2, r2, #84	; 0x54
300032b0:	e3a03456 	mov	r3, #1442840576	; 0x56000000
300032b4:	e2833054 	add	r3, r3, #84	; 0x54
300032b8:	e5933000 	ldr	r3, [r3]
300032bc:	e3c33020 	bic	r3, r3, #32	; 0x20
300032c0:	e5823000 	str	r3, [r2]
300032c4:	ea000006 	b	300032e4 <S3C2440_EXTI_LED2_Irq_Demo+0x8c>
300032c8:	e3a02456 	mov	r2, #1442840576	; 0x56000000
300032cc:	e2822054 	add	r2, r2, #84	; 0x54
300032d0:	e3a03456 	mov	r3, #1442840576	; 0x56000000
300032d4:	e2833054 	add	r3, r3, #84	; 0x54
300032d8:	e5933000 	ldr	r3, [r3]
300032dc:	e3833020 	orr	r3, r3, #32	; 0x20
300032e0:	e5823000 	str	r3, [r2]
300032e4:	e3a03456 	mov	r3, #1442840576	; 0x56000000
300032e8:	e28330a8 	add	r3, r3, #168	; 0xa8
300032ec:	e51b2010 	ldr	r2, [fp, #-16]
300032f0:	e5832000 	str	r2, [r3]
300032f4:	e89da808 	ldmia	sp, {r3, fp, sp, pc}
Disassembly of section .text.S3C2440_EXTI_LED3_Irq_Demo:

300032f8 <S3C2440_EXTI_LED3_Irq_Demo>:
300032f8:	e1a0c00d 	mov	ip, sp
300032fc:	e92dd800 	stmdb	sp!, {fp, ip, lr, pc}
30003300:	e24cb004 	sub	fp, ip, #4	; 0x4
30003304:	e24dd004 	sub	sp, sp, #4	; 0x4
30003308:	e3a03456 	mov	r3, #1442840576	; 0x56000000
3000330c:	e28330a8 	add	r3, r3, #168	; 0xa8
30003310:	e5933000 	ldr	r3, [r3]
30003314:	e50b3010 	str	r3, [fp, #-16]
30003318:	e51b3010 	ldr	r3, [fp, #-16]
3000331c:	e2033b02 	and	r3, r3, #2048	; 0x800
30003320:	e3530000 	cmp	r3, #0	; 0x0
30003324:	0a00001a 	beq	30003394 <S3C2440_EXTI_LED3_Irq_Demo+0x9c>
30003328:	e3a03456 	mov	r3, #1442840576	; 0x56000000
3000332c:	e2833064 	add	r3, r3, #100	; 0x64
30003330:	e5933000 	ldr	r3, [r3]
30003334:	e2033008 	and	r3, r3, #8	; 0x8
30003338:	e3530000 	cmp	r3, #0	; 0x0
3000333c:	0a000014 	beq	30003394 <S3C2440_EXTI_LED3_Irq_Demo+0x9c>
30003340:	e3a03456 	mov	r3, #1442840576	; 0x56000000
30003344:	e2833054 	add	r3, r3, #84	; 0x54
30003348:	e5933000 	ldr	r3, [r3]
3000334c:	e2033040 	and	r3, r3, #64	; 0x40
30003350:	e3530000 	cmp	r3, #0	; 0x0
30003354:	0a000007 	beq	30003378 <S3C2440_EXTI_LED3_Irq_Demo+0x80>
30003358:	e3a02456 	mov	r2, #1442840576	; 0x56000000
3000335c:	e2822054 	add	r2, r2, #84	; 0x54
30003360:	e3a03456 	mov	r3, #1442840576	; 0x56000000
30003364:	e2833054 	add	r3, r3, #84	; 0x54
30003368:	e5933000 	ldr	r3, [r3]
3000336c:	e3c33040 	bic	r3, r3, #64	; 0x40
30003370:	e5823000 	str	r3, [r2]
30003374:	ea000006 	b	30003394 <S3C2440_EXTI_LED3_Irq_Demo+0x9c>
30003378:	e3a02456 	mov	r2, #1442840576	; 0x56000000
3000337c:	e2822054 	add	r2, r2, #84	; 0x54
30003380:	e3a03456 	mov	r3, #1442840576	; 0x56000000
30003384:	e2833054 	add	r3, r3, #84	; 0x54
30003388:	e5933000 	ldr	r3, [r3]
3000338c:	e3833040 	orr	r3, r3, #64	; 0x40
30003390:	e5823000 	str	r3, [r2]
30003394:	e51b3010 	ldr	r3, [fp, #-16]
30003398:	e2033702 	and	r3, r3, #524288	; 0x80000
3000339c:	e3530000 	cmp	r3, #0	; 0x0
300033a0:	0a000044 	beq	300034b8 <S3C2440_EXTI_LED3_Irq_Demo+0x1c0>
300033a4:	e3a03456 	mov	r3, #1442840576	; 0x56000000
300033a8:	e2833064 	add	r3, r3, #100	; 0x64
300033ac:	e5933000 	ldr	r3, [r3]
300033b0:	e2033b02 	and	r3, r3, #2048	; 0x800
300033b4:	e3530000 	cmp	r3, #0	; 0x0
300033b8:	0a00003e 	beq	300034b8 <S3C2440_EXTI_LED3_Irq_Demo+0x1c0>
300033bc:	e3a03456 	mov	r3, #1442840576	; 0x56000000
300033c0:	e2833054 	add	r3, r3, #84	; 0x54
300033c4:	e5933000 	ldr	r3, [r3]
300033c8:	e2033010 	and	r3, r3, #16	; 0x10
300033cc:	e3530000 	cmp	r3, #0	; 0x0
300033d0:	0a000007 	beq	300033f4 <S3C2440_EXTI_LED3_Irq_Demo+0xfc>
300033d4:	e3a02456 	mov	r2, #1442840576	; 0x56000000
300033d8:	e2822054 	add	r2, r2, #84	; 0x54
300033dc:	e3a03456 	mov	r3, #1442840576	; 0x56000000
300033e0:	e2833054 	add	r3, r3, #84	; 0x54
300033e4:	e5933000 	ldr	r3, [r3]
300033e8:	e3c33010 	bic	r3, r3, #16	; 0x10
300033ec:	e5823000 	str	r3, [r2]
300033f0:	ea000006 	b	30003410 <S3C2440_EXTI_LED3_Irq_Demo+0x118>
300033f4:	e3a02456 	mov	r2, #1442840576	; 0x56000000
300033f8:	e2822054 	add	r2, r2, #84	; 0x54
300033fc:	e3a03456 	mov	r3, #1442840576	; 0x56000000
30003400:	e2833054 	add	r3, r3, #84	; 0x54
30003404:	e5933000 	ldr	r3, [r3]
30003408:	e3833010 	orr	r3, r3, #16	; 0x10
3000340c:	e5823000 	str	r3, [r2]
30003410:	e3a03456 	mov	r3, #1442840576	; 0x56000000
30003414:	e2833054 	add	r3, r3, #84	; 0x54
30003418:	e5933000 	ldr	r3, [r3]
3000341c:	e2033020 	and	r3, r3, #32	; 0x20
30003420:	e3530000 	cmp	r3, #0	; 0x0
30003424:	0a000007 	beq	30003448 <S3C2440_EXTI_LED3_Irq_Demo+0x150>
30003428:	e3a02456 	mov	r2, #1442840576	; 0x56000000
3000342c:	e2822054 	add	r2, r2, #84	; 0x54
30003430:	e3a03456 	mov	r3, #1442840576	; 0x56000000
30003434:	e2833054 	add	r3, r3, #84	; 0x54
30003438:	e5933000 	ldr	r3, [r3]
3000343c:	e3c33020 	bic	r3, r3, #32	; 0x20
30003440:	e5823000 	str	r3, [r2]
30003444:	ea000006 	b	30003464 <S3C2440_EXTI_LED3_Irq_Demo+0x16c>
30003448:	e3a02456 	mov	r2, #1442840576	; 0x56000000
3000344c:	e2822054 	add	r2, r2, #84	; 0x54
30003450:	e3a03456 	mov	r3, #1442840576	; 0x56000000
30003454:	e2833054 	add	r3, r3, #84	; 0x54
30003458:	e5933000 	ldr	r3, [r3]
3000345c:	e3833020 	orr	r3, r3, #32	; 0x20
30003460:	e5823000 	str	r3, [r2]
30003464:	e3a03456 	mov	r3, #1442840576	; 0x56000000
30003468:	e2833054 	add	r3, r3, #84	; 0x54
3000346c:	e5933000 	ldr	r3, [r3]
30003470:	e2033040 	and	r3, r3, #64	; 0x40
30003474:	e3530000 	cmp	r3, #0	; 0x0
30003478:	0a000007 	beq	3000349c <S3C2440_EXTI_LED3_Irq_Demo+0x1a4>
3000347c:	e3a02456 	mov	r2, #1442840576	; 0x56000000
30003480:	e2822054 	add	r2, r2, #84	; 0x54
30003484:	e3a03456 	mov	r3, #1442840576	; 0x56000000
30003488:	e2833054 	add	r3, r3, #84	; 0x54
3000348c:	e5933000 	ldr	r3, [r3]
30003490:	e3c33040 	bic	r3, r3, #64	; 0x40
30003494:	e5823000 	str	r3, [r2]
30003498:	ea000006 	b	300034b8 <S3C2440_EXTI_LED3_Irq_Demo+0x1c0>
3000349c:	e3a02456 	mov	r2, #1442840576	; 0x56000000
300034a0:	e2822054 	add	r2, r2, #84	; 0x54
300034a4:	e3a03456 	mov	r3, #1442840576	; 0x56000000
300034a8:	e2833054 	add	r3, r3, #84	; 0x54
300034ac:	e5933000 	ldr	r3, [r3]
300034b0:	e3833040 	orr	r3, r3, #64	; 0x40
300034b4:	e5823000 	str	r3, [r2]
300034b8:	e3a03456 	mov	r3, #1442840576	; 0x56000000
300034bc:	e28330a8 	add	r3, r3, #168	; 0xa8
300034c0:	e51b2010 	ldr	r2, [fp, #-16]
300034c4:	e5832000 	str	r2, [r3]
300034c8:	e89da808 	ldmia	sp, {r3, fp, sp, pc}
Disassembly of section .text.S3C2440_TIMER0_Init:

300034cc <S3C2440_TIMER0_Init>:
300034cc:	e1a0c00d 	mov	ip, sp
300034d0:	e92dd800 	stmdb	sp!, {fp, ip, lr, pc}
300034d4:	e24cb004 	sub	fp, ip, #4	; 0x4
300034d8:	e3a02451 	mov	r2, #1358954496	; 0x51000000
300034dc:	e3a03451 	mov	r3, #1358954496	; 0x51000000
300034e0:	e5933000 	ldr	r3, [r3]
300034e4:	e3c330ff 	bic	r3, r3, #255	; 0xff
300034e8:	e5823000 	str	r3, [r2]
300034ec:	e3a02451 	mov	r2, #1358954496	; 0x51000000
300034f0:	e3a03451 	mov	r3, #1358954496	; 0x51000000
300034f4:	e5933000 	ldr	r3, [r3]
300034f8:	e3833031 	orr	r3, r3, #49	; 0x31
300034fc:	e5823000 	str	r3, [r2]
30003500:	e3a02451 	mov	r2, #1358954496	; 0x51000000
30003504:	e2822004 	add	r2, r2, #4	; 0x4
30003508:	e3a03451 	mov	r3, #1358954496	; 0x51000000
3000350c:	e2833004 	add	r3, r3, #4	; 0x4
30003510:	e5933000 	ldr	r3, [r3]
30003514:	e3c3300f 	bic	r3, r3, #15	; 0xf
30003518:	e5823000 	str	r3, [r2]
3000351c:	e3a02451 	mov	r2, #1358954496	; 0x51000000
30003520:	e2822004 	add	r2, r2, #4	; 0x4
30003524:	e3a03451 	mov	r3, #1358954496	; 0x51000000
30003528:	e2833004 	add	r3, r3, #4	; 0x4
3000352c:	e5933000 	ldr	r3, [r3]
30003530:	e3833003 	orr	r3, r3, #3	; 0x3
30003534:	e5823000 	str	r3, [r2]
30003538:	e3a02451 	mov	r2, #1358954496	; 0x51000000
3000353c:	e282200c 	add	r2, r2, #12	; 0xc
30003540:	e3a03e27 	mov	r3, #624	; 0x270
30003544:	e2833001 	add	r3, r3, #1	; 0x1
30003548:	e5823000 	str	r3, [r2]
3000354c:	e3a02451 	mov	r2, #1358954496	; 0x51000000
30003550:	e2822008 	add	r2, r2, #8	; 0x8
30003554:	e3a03451 	mov	r3, #1358954496	; 0x51000000
30003558:	e2833008 	add	r3, r3, #8	; 0x8
3000355c:	e5933000 	ldr	r3, [r3]
30003560:	e3833002 	orr	r3, r3, #2	; 0x2
30003564:	e5823000 	str	r3, [r2]
30003568:	e3a02451 	mov	r2, #1358954496	; 0x51000000
3000356c:	e2822008 	add	r2, r2, #8	; 0x8
30003570:	e3a03451 	mov	r3, #1358954496	; 0x51000000
30003574:	e2833008 	add	r3, r3, #8	; 0x8
30003578:	e5933000 	ldr	r3, [r3]
3000357c:	e3c33002 	bic	r3, r3, #2	; 0x2
30003580:	e5823000 	str	r3, [r2]
30003584:	e3a02451 	mov	r2, #1358954496	; 0x51000000
30003588:	e2822008 	add	r2, r2, #8	; 0x8
3000358c:	e3a03451 	mov	r3, #1358954496	; 0x51000000
30003590:	e2833008 	add	r3, r3, #8	; 0x8
30003594:	e5933000 	ldr	r3, [r3]
30003598:	e3833009 	orr	r3, r3, #9	; 0x9
3000359c:	e5823000 	str	r3, [r2]
300035a0:	e3a0000a 	mov	r0, #10	; 0xa
300035a4:	e59f1004 	ldr	r1, [pc, #4]	; 300035b0 <.text.S3C2440_TIMER0_Init+0xe4>
300035a8:	ebfff363 	bl	3000033c <S3C2440_IRQRegister>
300035ac:	e89da800 	ldmia	sp, {fp, sp, pc}
300035b0:	300037b0 	strcch	r3, [r0], -r0
Disassembly of section .text.S3C2440_TIMER1_Init:

300035b4 <S3C2440_TIMER1_Init>:
300035b4:	e1a0c00d 	mov	ip, sp
300035b8:	e92dd800 	stmdb	sp!, {fp, ip, lr, pc}
300035bc:	e24cb004 	sub	fp, ip, #4	; 0x4
300035c0:	e3a02451 	mov	r2, #1358954496	; 0x51000000
300035c4:	e3a03451 	mov	r3, #1358954496	; 0x51000000
300035c8:	e5933000 	ldr	r3, [r3]
300035cc:	e3c330ff 	bic	r3, r3, #255	; 0xff
300035d0:	e5823000 	str	r3, [r2]
300035d4:	e3a02451 	mov	r2, #1358954496	; 0x51000000
300035d8:	e3a03451 	mov	r3, #1358954496	; 0x51000000
300035dc:	e5933000 	ldr	r3, [r3]
300035e0:	e3833031 	orr	r3, r3, #49	; 0x31
300035e4:	e5823000 	str	r3, [r2]
300035e8:	e3a02451 	mov	r2, #1358954496	; 0x51000000
300035ec:	e2822004 	add	r2, r2, #4	; 0x4
300035f0:	e3a03451 	mov	r3, #1358954496	; 0x51000000
300035f4:	e2833004 	add	r3, r3, #4	; 0x4
300035f8:	e5933000 	ldr	r3, [r3]
300035fc:	e3c330f0 	bic	r3, r3, #240	; 0xf0
30003600:	e5823000 	str	r3, [r2]
30003604:	e3a02451 	mov	r2, #1358954496	; 0x51000000
30003608:	e2822004 	add	r2, r2, #4	; 0x4
3000360c:	e3a03451 	mov	r3, #1358954496	; 0x51000000
30003610:	e2833004 	add	r3, r3, #4	; 0x4
30003614:	e5933000 	ldr	r3, [r3]
30003618:	e3833030 	orr	r3, r3, #48	; 0x30
3000361c:	e5823000 	str	r3, [r2]
30003620:	e3a02451 	mov	r2, #1358954496	; 0x51000000
30003624:	e2822018 	add	r2, r2, #24	; 0x18
30003628:	e3a03d61 	mov	r3, #6208	; 0x1840
3000362c:	e283302a 	add	r3, r3, #42	; 0x2a
30003630:	e5823000 	str	r3, [r2]
30003634:	e3a02451 	mov	r2, #1358954496	; 0x51000000
30003638:	e2822008 	add	r2, r2, #8	; 0x8
3000363c:	e3a03451 	mov	r3, #1358954496	; 0x51000000
30003640:	e2833008 	add	r3, r3, #8	; 0x8
30003644:	e5933000 	ldr	r3, [r3]
30003648:	e3833c02 	orr	r3, r3, #512	; 0x200
3000364c:	e5823000 	str	r3, [r2]
30003650:	e3a02451 	mov	r2, #1358954496	; 0x51000000
30003654:	e2822008 	add	r2, r2, #8	; 0x8
30003658:	e3a03451 	mov	r3, #1358954496	; 0x51000000
3000365c:	e2833008 	add	r3, r3, #8	; 0x8
30003660:	e5933000 	ldr	r3, [r3]
30003664:	e3c33c02 	bic	r3, r3, #512	; 0x200
30003668:	e5823000 	str	r3, [r2]
3000366c:	e3a02451 	mov	r2, #1358954496	; 0x51000000
30003670:	e2822008 	add	r2, r2, #8	; 0x8
30003674:	e3a03451 	mov	r3, #1358954496	; 0x51000000
30003678:	e2833008 	add	r3, r3, #8	; 0x8
3000367c:	e5933000 	ldr	r3, [r3]
30003680:	e3833c09 	orr	r3, r3, #2304	; 0x900
30003684:	e5823000 	str	r3, [r2]
30003688:	e3a0000b 	mov	r0, #11	; 0xb
3000368c:	e59f1004 	ldr	r1, [pc, #4]	; 30003698 <.text.S3C2440_TIMER1_Init+0xe4>
30003690:	ebfff329 	bl	3000033c <S3C2440_IRQRegister>
30003694:	e89da800 	ldmia	sp, {fp, sp, pc}
30003698:	300037b0 	strcch	r3, [r0], -r0
Disassembly of section .text.S3C2440_TIMER_Register:

3000369c <S3C2440_TIMER_Register>:
3000369c:	e1a0c00d 	mov	ip, sp
300036a0:	e92dd800 	stmdb	sp!, {fp, ip, lr, pc}
300036a4:	e24cb004 	sub	fp, ip, #4	; 0x4
300036a8:	e24dd014 	sub	sp, sp, #20	; 0x14
300036ac:	e50b0010 	str	r0, [fp, #-16]
300036b0:	e1a03001 	mov	r3, r1
300036b4:	e50b2018 	str	r2, [fp, #-24]
300036b8:	e54b3011 	strb	r3, [fp, #-17]
300036bc:	e3a03000 	mov	r3, #0	; 0x0
300036c0:	e50b301c 	str	r3, [fp, #-28]
300036c4:	e51b301c 	ldr	r3, [fp, #-28]
300036c8:	e353001f 	cmp	r3, #31	; 0x1f
300036cc:	ca000031 	bgt	30003798 <S3C2440_TIMER_Register+0xfc>
300036d0:	e59f10d4 	ldr	r1, [pc, #212]	; 300037ac <.text.S3C2440_TIMER_Register+0x110>
300036d4:	e51b201c 	ldr	r2, [fp, #-28]
300036d8:	e3a00008 	mov	r0, #8	; 0x8
300036dc:	e1a03002 	mov	r3, r2
300036e0:	e1a03083 	mov	r3, r3, lsl #1
300036e4:	e0833002 	add	r3, r3, r2
300036e8:	e1a03103 	mov	r3, r3, lsl #2
300036ec:	e0833001 	add	r3, r3, r1
300036f0:	e0833000 	add	r3, r3, r0
300036f4:	e5933000 	ldr	r3, [r3]
300036f8:	e3530000 	cmp	r3, #0	; 0x0
300036fc:	1a000021 	bne	30003788 <S3C2440_TIMER_Register+0xec>
30003700:	e59f10a4 	ldr	r1, [pc, #164]	; 300037ac <.text.S3C2440_TIMER_Register+0x110>
30003704:	e51b201c 	ldr	r2, [fp, #-28]
30003708:	e1a03002 	mov	r3, r2
3000370c:	e1a03083 	mov	r3, r3, lsl #1
30003710:	e0833002 	add	r3, r3, r2
30003714:	e1a03103 	mov	r3, r3, lsl #2
30003718:	e0832001 	add	r2, r3, r1
3000371c:	e51b3010 	ldr	r3, [fp, #-16]
30003720:	e5823000 	str	r3, [r2]
30003724:	e59f1080 	ldr	r1, [pc, #128]	; 300037ac <.text.S3C2440_TIMER_Register+0x110>
30003728:	e51b201c 	ldr	r2, [fp, #-28]
3000372c:	e3a00004 	mov	r0, #4	; 0x4
30003730:	e1a03002 	mov	r3, r2
30003734:	e1a03083 	mov	r3, r3, lsl #1
30003738:	e0833002 	add	r3, r3, r2
3000373c:	e1a03103 	mov	r3, r3, lsl #2
30003740:	e0833001 	add	r3, r3, r1
30003744:	e0832000 	add	r2, r3, r0
30003748:	e55b3011 	ldrb	r3, [fp, #-17]
3000374c:	e5c23000 	strb	r3, [r2]
30003750:	e59f1054 	ldr	r1, [pc, #84]	; 300037ac <.text.S3C2440_TIMER_Register+0x110>
30003754:	e51b201c 	ldr	r2, [fp, #-28]
30003758:	e3a00008 	mov	r0, #8	; 0x8
3000375c:	e1a03002 	mov	r3, r2
30003760:	e1a03083 	mov	r3, r3, lsl #1
30003764:	e0833002 	add	r3, r3, r2
30003768:	e1a03103 	mov	r3, r3, lsl #2
3000376c:	e0833001 	add	r3, r3, r1
30003770:	e0832000 	add	r2, r3, r0
30003774:	e51b3018 	ldr	r3, [fp, #-24]
30003778:	e5823000 	str	r3, [r2]
3000377c:	e3a03000 	mov	r3, #0	; 0x0
30003780:	e50b3020 	str	r3, [fp, #-32]
30003784:	ea000005 	b	300037a0 <S3C2440_TIMER_Register+0x104>
30003788:	e51b301c 	ldr	r3, [fp, #-28]
3000378c:	e2833001 	add	r3, r3, #1	; 0x1
30003790:	e50b301c 	str	r3, [fp, #-28]
30003794:	eaffffca 	b	300036c4 <S3C2440_TIMER_Register+0x28>
30003798:	e3e03000 	mvn	r3, #0	; 0x0
3000379c:	e50b3020 	str	r3, [fp, #-32]
300037a0:	e51b0020 	ldr	r0, [fp, #-32]
300037a4:	e24bd00c 	sub	sp, fp, #12	; 0xc
300037a8:	e89da800 	ldmia	sp, {fp, sp, pc}
300037ac:	30006e88 	andcc	r6, r0, r8, lsl #29
Disassembly of section .text.S3C2440_TIMER_Irq:

300037b0 <S3C2440_TIMER_Irq>:
300037b0:	e1a0c00d 	mov	ip, sp
300037b4:	e92dd800 	stmdb	sp!, {fp, ip, lr, pc}
300037b8:	e24cb004 	sub	fp, ip, #4	; 0x4
300037bc:	e24dd008 	sub	sp, sp, #8	; 0x8
300037c0:	e50b0010 	str	r0, [fp, #-16]
300037c4:	e3a03000 	mov	r3, #0	; 0x0
300037c8:	e50b3014 	str	r3, [fp, #-20]
300037cc:	e51b3014 	ldr	r3, [fp, #-20]
300037d0:	e353001f 	cmp	r3, #31	; 0x1f
300037d4:	ca000028 	bgt	3000387c <S3C2440_TIMER_Irq+0xcc>
300037d8:	e59f10a4 	ldr	r1, [pc, #164]	; 30003884 <.text.S3C2440_TIMER_Irq+0xd4>
300037dc:	e51b2014 	ldr	r2, [fp, #-20]
300037e0:	e3a00008 	mov	r0, #8	; 0x8
300037e4:	e1a03002 	mov	r3, r2
300037e8:	e1a03083 	mov	r3, r3, lsl #1
300037ec:	e0833002 	add	r3, r3, r2
300037f0:	e1a03103 	mov	r3, r3, lsl #2
300037f4:	e0833001 	add	r3, r3, r1
300037f8:	e0833000 	add	r3, r3, r0
300037fc:	e5933000 	ldr	r3, [r3]
30003800:	e3530000 	cmp	r3, #0	; 0x0
30003804:	0a000018 	beq	3000386c <S3C2440_TIMER_Irq+0xbc>
30003808:	e59f1074 	ldr	r1, [pc, #116]	; 30003884 <.text.S3C2440_TIMER_Irq+0xd4>
3000380c:	e51b2014 	ldr	r2, [fp, #-20]
30003810:	e3a00004 	mov	r0, #4	; 0x4
30003814:	e1a03002 	mov	r3, r2
30003818:	e1a03083 	mov	r3, r3, lsl #1
3000381c:	e0833002 	add	r3, r3, r2
30003820:	e1a03103 	mov	r3, r3, lsl #2
30003824:	e0833001 	add	r3, r3, r1
30003828:	e0833000 	add	r3, r3, r0
3000382c:	e5d32000 	ldrb	r2, [r3]
30003830:	e51b3010 	ldr	r3, [fp, #-16]
30003834:	e1520003 	cmp	r2, r3
30003838:	1a00000b 	bne	3000386c <S3C2440_TIMER_Irq+0xbc>
3000383c:	e59f1040 	ldr	r1, [pc, #64]	; 30003884 <.text.S3C2440_TIMER_Irq+0xd4>
30003840:	e51b2014 	ldr	r2, [fp, #-20]
30003844:	e3a00008 	mov	r0, #8	; 0x8
30003848:	e1a03002 	mov	r3, r2
3000384c:	e1a03083 	mov	r3, r3, lsl #1
30003850:	e0833002 	add	r3, r3, r2
30003854:	e1a03103 	mov	r3, r3, lsl #2
30003858:	e0833001 	add	r3, r3, r1
3000385c:	e0833000 	add	r3, r3, r0
30003860:	e5933000 	ldr	r3, [r3]
30003864:	e1a0e00f 	mov	lr, pc
30003868:	e1a0f003 	mov	pc, r3
3000386c:	e51b3014 	ldr	r3, [fp, #-20]
30003870:	e2833001 	add	r3, r3, #1	; 0x1
30003874:	e50b3014 	str	r3, [fp, #-20]
30003878:	eaffffd3 	b	300037cc <S3C2440_TIMER_Irq+0x1c>
3000387c:	e24bd00c 	sub	sp, fp, #12	; 0xc
30003880:	e89da800 	ldmia	sp, {fp, sp, pc}
30003884:	30006e88 	andcc	r6, r0, r8, lsl #29
Disassembly of section .text.S3C2440_TIMER0_LED_Irq_Demo:

30003888 <S3C2440_TIMER0_LED_Irq_Demo>:
30003888:	e1a0c00d 	mov	ip, sp
3000388c:	e92dd800 	stmdb	sp!, {fp, ip, lr, pc}
30003890:	e24cb004 	sub	fp, ip, #4	; 0x4
30003894:	e59f20dc 	ldr	r2, [pc, #220]	; 30003978 <.text.S3C2440_TIMER0_LED_Irq_Demo+0xf0>
30003898:	e5d21000 	ldrb	r1, [r2]
3000389c:	e2813001 	add	r3, r1, #1	; 0x1
300038a0:	e5c23000 	strb	r3, [r2]
300038a4:	e20130ff 	and	r3, r1, #255	; 0xff
300038a8:	e3530031 	cmp	r3, #49	; 0x31
300038ac:	8a000000 	bhi	300038b4 <S3C2440_TIMER0_LED_Irq_Demo+0x2c>
300038b0:	ea00002f 	b	30003974 <S3C2440_TIMER0_LED_Irq_Demo+0xec>
300038b4:	e59f20bc 	ldr	r2, [pc, #188]	; 30003978 <.text.S3C2440_TIMER0_LED_Irq_Demo+0xf0>
300038b8:	e3a03000 	mov	r3, #0	; 0x0
300038bc:	e5c23000 	strb	r3, [r2]
300038c0:	e59f20b4 	ldr	r2, [pc, #180]	; 3000397c <.text.S3C2440_TIMER0_LED_Irq_Demo+0xf4>
300038c4:	e59f30b0 	ldr	r3, [pc, #176]	; 3000397c <.text.S3C2440_TIMER0_LED_Irq_Demo+0xf4>
300038c8:	e5d33000 	ldrb	r3, [r3]
300038cc:	e2833001 	add	r3, r3, #1	; 0x1
300038d0:	e5c23000 	strb	r3, [r2]
300038d4:	e59f30a0 	ldr	r3, [pc, #160]	; 3000397c <.text.S3C2440_TIMER0_LED_Irq_Demo+0xf4>
300038d8:	e5d33000 	ldrb	r3, [r3]
300038dc:	e2033001 	and	r3, r3, #1	; 0x1
300038e0:	e3530000 	cmp	r3, #0	; 0x0
300038e4:	0a000007 	beq	30003908 <S3C2440_TIMER0_LED_Irq_Demo+0x80>
300038e8:	e3a02456 	mov	r2, #1442840576	; 0x56000000
300038ec:	e2822054 	add	r2, r2, #84	; 0x54
300038f0:	e3a03456 	mov	r3, #1442840576	; 0x56000000
300038f4:	e2833054 	add	r3, r3, #84	; 0x54
300038f8:	e5933000 	ldr	r3, [r3]
300038fc:	e3c33010 	bic	r3, r3, #16	; 0x10
30003900:	e5823000 	str	r3, [r2]
30003904:	ea000006 	b	30003924 <S3C2440_TIMER0_LED_Irq_Demo+0x9c>
30003908:	e3a02456 	mov	r2, #1442840576	; 0x56000000
3000390c:	e2822054 	add	r2, r2, #84	; 0x54
30003910:	e3a03456 	mov	r3, #1442840576	; 0x56000000
30003914:	e2833054 	add	r3, r3, #84	; 0x54
30003918:	e5933000 	ldr	r3, [r3]
3000391c:	e3833010 	orr	r3, r3, #16	; 0x10
30003920:	e5823000 	str	r3, [r2]
30003924:	e59f3050 	ldr	r3, [pc, #80]	; 3000397c <.text.S3C2440_TIMER0_LED_Irq_Demo+0xf4>
30003928:	e5d33000 	ldrb	r3, [r3]
3000392c:	e2033002 	and	r3, r3, #2	; 0x2
30003930:	e3530000 	cmp	r3, #0	; 0x0
30003934:	0a000007 	beq	30003958 <S3C2440_TIMER0_LED_Irq_Demo+0xd0>
30003938:	e3a02456 	mov	r2, #1442840576	; 0x56000000
3000393c:	e2822054 	add	r2, r2, #84	; 0x54
30003940:	e3a03456 	mov	r3, #1442840576	; 0x56000000
30003944:	e2833054 	add	r3, r3, #84	; 0x54
30003948:	e5933000 	ldr	r3, [r3]
3000394c:	e3c33020 	bic	r3, r3, #32	; 0x20
30003950:	e5823000 	str	r3, [r2]
30003954:	ea000006 	b	30003974 <S3C2440_TIMER0_LED_Irq_Demo+0xec>
30003958:	e3a02456 	mov	r2, #1442840576	; 0x56000000
3000395c:	e2822054 	add	r2, r2, #84	; 0x54
30003960:	e3a03456 	mov	r3, #1442840576	; 0x56000000
30003964:	e2833054 	add	r3, r3, #84	; 0x54
30003968:	e5933000 	ldr	r3, [r3]
3000396c:	e3833020 	orr	r3, r3, #32	; 0x20
30003970:	e5823000 	str	r3, [r2]
30003974:	e89da800 	ldmia	sp, {fp, sp, pc}
30003978:	30006c69 	andcc	r6, r0, r9, ror #24
3000397c:	30006c68 	andcc	r6, r0, r8, ror #24
Disassembly of section .text.S3C2440_TIMER1_LED_Irq_Demo:

30003980 <S3C2440_TIMER1_LED_Irq_Demo>:
30003980:	e1a0c00d 	mov	ip, sp
30003984:	e92dd800 	stmdb	sp!, {fp, ip, lr, pc}
30003988:	e24cb004 	sub	fp, ip, #4	; 0x4
3000398c:	e59f208c 	ldr	r2, [pc, #140]	; 30003a20 <.text.S3C2440_TIMER1_LED_Irq_Demo+0xa0>
30003990:	e5d21000 	ldrb	r1, [r2]
30003994:	e2813001 	add	r3, r1, #1	; 0x1
30003998:	e5c23000 	strb	r3, [r2]
3000399c:	e20130ff 	and	r3, r1, #255	; 0xff
300039a0:	e3530001 	cmp	r3, #1	; 0x1
300039a4:	8a000000 	bhi	300039ac <S3C2440_TIMER1_LED_Irq_Demo+0x2c>
300039a8:	ea00001b 	b	30003a1c <S3C2440_TIMER1_LED_Irq_Demo+0x9c>
300039ac:	e59f206c 	ldr	r2, [pc, #108]	; 30003a20 <.text.S3C2440_TIMER1_LED_Irq_Demo+0xa0>
300039b0:	e3a03000 	mov	r3, #0	; 0x0
300039b4:	e5c23000 	strb	r3, [r2]
300039b8:	e59f2064 	ldr	r2, [pc, #100]	; 30003a24 <.text.S3C2440_TIMER1_LED_Irq_Demo+0xa4>
300039bc:	e59f3060 	ldr	r3, [pc, #96]	; 30003a24 <.text.S3C2440_TIMER1_LED_Irq_Demo+0xa4>
300039c0:	e5d33000 	ldrb	r3, [r3]
300039c4:	e2833001 	add	r3, r3, #1	; 0x1
300039c8:	e5c23000 	strb	r3, [r2]
300039cc:	e59f3050 	ldr	r3, [pc, #80]	; 30003a24 <.text.S3C2440_TIMER1_LED_Irq_Demo+0xa4>
300039d0:	e5d33000 	ldrb	r3, [r3]
300039d4:	e2033001 	and	r3, r3, #1	; 0x1
300039d8:	e3530000 	cmp	r3, #0	; 0x0
300039dc:	0a000007 	beq	30003a00 <S3C2440_TIMER1_LED_Irq_Demo+0x80>
300039e0:	e3a02456 	mov	r2, #1442840576	; 0x56000000
300039e4:	e2822054 	add	r2, r2, #84	; 0x54
300039e8:	e3a03456 	mov	r3, #1442840576	; 0x56000000
300039ec:	e2833054 	add	r3, r3, #84	; 0x54
300039f0:	e5933000 	ldr	r3, [r3]
300039f4:	e3c33040 	bic	r3, r3, #64	; 0x40
300039f8:	e5823000 	str	r3, [r2]
300039fc:	ea000006 	b	30003a1c <S3C2440_TIMER1_LED_Irq_Demo+0x9c>
30003a00:	e3a02456 	mov	r2, #1442840576	; 0x56000000
30003a04:	e2822054 	add	r2, r2, #84	; 0x54
30003a08:	e3a03456 	mov	r3, #1442840576	; 0x56000000
30003a0c:	e2833054 	add	r3, r3, #84	; 0x54
30003a10:	e5933000 	ldr	r3, [r3]
30003a14:	e3833040 	orr	r3, r3, #64	; 0x40
30003a18:	e5823000 	str	r3, [r2]
30003a1c:	e89da800 	ldmia	sp, {fp, sp, pc}
30003a20:	30006c6b 	andcc	r6, r0, fp, ror #24
30003a24:	30006c6a 	andcc	r6, r0, sl, ror #24
Disassembly of section .text._atoi:

30003a28 <_atoi>:
30003a28:	e1a0c00d 	mov	ip, sp
30003a2c:	e92dd800 	stmdb	sp!, {fp, ip, lr, pc}
30003a30:	e24cb004 	sub	fp, ip, #4	; 0x4
30003a34:	e24dd008 	sub	sp, sp, #8	; 0x8
30003a38:	e50b0010 	str	r0, [fp, #-16]
30003a3c:	e3a03000 	mov	r3, #0	; 0x0
30003a40:	e50b3014 	str	r3, [fp, #-20]
30003a44:	e51b3010 	ldr	r3, [fp, #-16]
30003a48:	e5933000 	ldr	r3, [r3]
30003a4c:	e5d33000 	ldrb	r3, [r3]
30003a50:	e1a00003 	mov	r0, r3
30003a54:	eb000016 	bl	30003ab4 <_is_digit>
30003a58:	e1a03000 	mov	r3, r0
30003a5c:	e20330ff 	and	r3, r3, #255	; 0xff
30003a60:	e3530000 	cmp	r3, #0	; 0x0
30003a64:	0a00000e 	beq	30003aa4 <_atoi+0x7c>
30003a68:	e51b2014 	ldr	r2, [fp, #-20]
30003a6c:	e1a03002 	mov	r3, r2
30003a70:	e1a03103 	mov	r3, r3, lsl #2
30003a74:	e0833002 	add	r3, r3, r2
30003a78:	e1a01083 	mov	r1, r3, lsl #1
30003a7c:	e51b0010 	ldr	r0, [fp, #-16]
30003a80:	e5902000 	ldr	r2, [r0]
30003a84:	e1a03002 	mov	r3, r2
30003a88:	e5d33000 	ldrb	r3, [r3]
30003a8c:	e0813003 	add	r3, r1, r3
30003a90:	e2433030 	sub	r3, r3, #48	; 0x30
30003a94:	e2822001 	add	r2, r2, #1	; 0x1
30003a98:	e5802000 	str	r2, [r0]
30003a9c:	e50b3014 	str	r3, [fp, #-20]
30003aa0:	eaffffe7 	b	30003a44 <_atoi+0x1c>
30003aa4:	e51b3014 	ldr	r3, [fp, #-20]
30003aa8:	e1a00003 	mov	r0, r3
30003aac:	e24bd00c 	sub	sp, fp, #12	; 0xc
30003ab0:	e89da800 	ldmia	sp, {fp, sp, pc}
Disassembly of section .text._is_digit:

30003ab4 <_is_digit>:
30003ab4:	e1a0c00d 	mov	ip, sp
30003ab8:	e92dd800 	stmdb	sp!, {fp, ip, lr, pc}
30003abc:	e24cb004 	sub	fp, ip, #4	; 0x4
30003ac0:	e24dd008 	sub	sp, sp, #8	; 0x8
30003ac4:	e1a03000 	mov	r3, r0
30003ac8:	e54b300d 	strb	r3, [fp, #-13]
30003acc:	e3a03000 	mov	r3, #0	; 0x0
30003ad0:	e54b3014 	strb	r3, [fp, #-20]
30003ad4:	e55b300d 	ldrb	r3, [fp, #-13]
30003ad8:	e353002f 	cmp	r3, #47	; 0x2f
30003adc:	9a000004 	bls	30003af4 <_is_digit+0x40>
30003ae0:	e55b300d 	ldrb	r3, [fp, #-13]
30003ae4:	e3530039 	cmp	r3, #57	; 0x39
30003ae8:	8a000001 	bhi	30003af4 <_is_digit+0x40>
30003aec:	e3a03001 	mov	r3, #1	; 0x1
30003af0:	e54b3014 	strb	r3, [fp, #-20]
30003af4:	e55b2014 	ldrb	r2, [fp, #-20]
30003af8:	e20230ff 	and	r3, r2, #255	; 0xff
30003afc:	e1a00003 	mov	r0, r3
30003b00:	e24bd00c 	sub	sp, fp, #12	; 0xc
30003b04:	e89da800 	ldmia	sp, {fp, sp, pc}
Disassembly of section .text._out_rev:

30003b08 <_out_rev>:
30003b08:	e1a0c00d 	mov	ip, sp
30003b0c:	e92dd800 	stmdb	sp!, {fp, ip, lr, pc}
30003b10:	e24cb004 	sub	fp, ip, #4	; 0x4
30003b14:	e24dd018 	sub	sp, sp, #24	; 0x18
30003b18:	e50b0010 	str	r0, [fp, #-16]
30003b1c:	e50b1014 	str	r1, [fp, #-20]
30003b20:	e50b2018 	str	r2, [fp, #-24]
30003b24:	e50b301c 	str	r3, [fp, #-28]
30003b28:	e51b3018 	ldr	r3, [fp, #-24]
30003b2c:	e50b3020 	str	r3, [fp, #-32]
30003b30:	e59b3010 	ldr	r3, [fp, #16]
30003b34:	e2033002 	and	r3, r3, #2	; 0x2
30003b38:	e3530000 	cmp	r3, #0	; 0x0
30003b3c:	1a000019 	bne	30003ba8 <_out_rev+0xa0>
30003b40:	e59b3010 	ldr	r3, [fp, #16]
30003b44:	e2033001 	and	r3, r3, #1	; 0x1
30003b48:	e3530000 	cmp	r3, #0	; 0x0
30003b4c:	1a000015 	bne	30003ba8 <_out_rev+0xa0>
30003b50:	e59b3008 	ldr	r3, [fp, #8]
30003b54:	e50b3024 	str	r3, [fp, #-36]
30003b58:	e51b2024 	ldr	r2, [fp, #-36]
30003b5c:	e59b300c 	ldr	r3, [fp, #12]
30003b60:	e1520003 	cmp	r2, r3
30003b64:	2a00000f 	bcs	30003ba8 <_out_rev+0xa0>
30003b68:	e24b2018 	sub	r2, fp, #24	; 0x18
30003b6c:	e5923000 	ldr	r3, [r2]
30003b70:	e1a0e003 	mov	lr, r3
30003b74:	e2833001 	add	r3, r3, #1	; 0x1
30003b78:	e5823000 	str	r3, [r2]
30003b7c:	e51bc010 	ldr	ip, [fp, #-16]
30003b80:	e3a00020 	mov	r0, #32	; 0x20
30003b84:	e51b1014 	ldr	r1, [fp, #-20]
30003b88:	e1a0200e 	mov	r2, lr
30003b8c:	e51b301c 	ldr	r3, [fp, #-28]
30003b90:	e1a0e00f 	mov	lr, pc
30003b94:	e1a0f00c 	mov	pc, ip
30003b98:	e51b3024 	ldr	r3, [fp, #-36]
30003b9c:	e2833001 	add	r3, r3, #1	; 0x1
30003ba0:	e50b3024 	str	r3, [fp, #-36]
30003ba4:	eaffffeb 	b	30003b58 <_out_rev+0x50>
30003ba8:	e59b3008 	ldr	r3, [fp, #8]
30003bac:	e3530000 	cmp	r3, #0	; 0x0
30003bb0:	0a000013 	beq	30003c04 <_out_rev+0xfc>
30003bb4:	e59b3008 	ldr	r3, [fp, #8]
30003bb8:	e2433001 	sub	r3, r3, #1	; 0x1
30003bbc:	e1a02003 	mov	r2, r3
30003bc0:	e58b2008 	str	r2, [fp, #8]
30003bc4:	e59b3004 	ldr	r3, [fp, #4]
30003bc8:	e0823003 	add	r3, r2, r3
30003bcc:	e5d31000 	ldrb	r1, [r3]
30003bd0:	e24b2018 	sub	r2, fp, #24	; 0x18
30003bd4:	e5923000 	ldr	r3, [r2]
30003bd8:	e1a0e003 	mov	lr, r3
30003bdc:	e2833001 	add	r3, r3, #1	; 0x1
30003be0:	e5823000 	str	r3, [r2]
30003be4:	e51bc010 	ldr	ip, [fp, #-16]
30003be8:	e1a00001 	mov	r0, r1
30003bec:	e51b1014 	ldr	r1, [fp, #-20]
30003bf0:	e1a0200e 	mov	r2, lr
30003bf4:	e51b301c 	ldr	r3, [fp, #-28]
30003bf8:	e1a0e00f 	mov	lr, pc
30003bfc:	e1a0f00c 	mov	pc, ip
30003c00:	eaffffe8 	b	30003ba8 <_out_rev+0xa0>
30003c04:	e59b3010 	ldr	r3, [fp, #16]
30003c08:	e2033002 	and	r3, r3, #2	; 0x2
30003c0c:	e3530000 	cmp	r3, #0	; 0x0
30003c10:	0a000012 	beq	30003c60 <_out_rev+0x158>
30003c14:	e51b2018 	ldr	r2, [fp, #-24]
30003c18:	e51b3020 	ldr	r3, [fp, #-32]
30003c1c:	e0632002 	rsb	r2, r3, r2
30003c20:	e59b300c 	ldr	r3, [fp, #12]
30003c24:	e1520003 	cmp	r2, r3
30003c28:	2a00000c 	bcs	30003c60 <_out_rev+0x158>
30003c2c:	e24b2018 	sub	r2, fp, #24	; 0x18
30003c30:	e5923000 	ldr	r3, [r2]
30003c34:	e1a0e003 	mov	lr, r3
30003c38:	e2833001 	add	r3, r3, #1	; 0x1
30003c3c:	e5823000 	str	r3, [r2]
30003c40:	e51bc010 	ldr	ip, [fp, #-16]
30003c44:	e3a00020 	mov	r0, #32	; 0x20
30003c48:	e51b1014 	ldr	r1, [fp, #-20]
30003c4c:	e1a0200e 	mov	r2, lr
30003c50:	e51b301c 	ldr	r3, [fp, #-28]
30003c54:	e1a0e00f 	mov	lr, pc
30003c58:	e1a0f00c 	mov	pc, ip
30003c5c:	eaffffec 	b	30003c14 <_out_rev+0x10c>
30003c60:	e51b3018 	ldr	r3, [fp, #-24]
30003c64:	e1a00003 	mov	r0, r3
30003c68:	e24bd00c 	sub	sp, fp, #12	; 0xc
30003c6c:	e89da800 	ldmia	sp, {fp, sp, pc}
Disassembly of section .text._ntoa_format:

30003c70 <_ntoa_format>:
30003c70:	e1a0c00d 	mov	ip, sp
30003c74:	e92dd800 	stmdb	sp!, {fp, ip, lr, pc}
30003c78:	e24cb004 	sub	fp, ip, #4	; 0x4
30003c7c:	e24dd024 	sub	sp, sp, #36	; 0x24
30003c80:	e50b0010 	str	r0, [fp, #-16]
30003c84:	e50b1014 	str	r1, [fp, #-20]
30003c88:	e50b2018 	str	r2, [fp, #-24]
30003c8c:	e50b301c 	str	r3, [fp, #-28]
30003c90:	e59b300c 	ldr	r3, [fp, #12]
30003c94:	e54b301d 	strb	r3, [fp, #-29]
30003c98:	e59b301c 	ldr	r3, [fp, #28]
30003c9c:	e2033002 	and	r3, r3, #2	; 0x2
30003ca0:	e3530000 	cmp	r3, #0	; 0x0
30003ca4:	1a000037 	bne	30003d88 <_ntoa_format+0x118>
30003ca8:	e59b3018 	ldr	r3, [fp, #24]
30003cac:	e3530000 	cmp	r3, #0	; 0x0
30003cb0:	0a00000e 	beq	30003cf0 <_ntoa_format+0x80>
30003cb4:	e59b301c 	ldr	r3, [fp, #28]
30003cb8:	e2033001 	and	r3, r3, #1	; 0x1
30003cbc:	e3530000 	cmp	r3, #0	; 0x0
30003cc0:	0a00000a 	beq	30003cf0 <_ntoa_format+0x80>
30003cc4:	e55b301d 	ldrb	r3, [fp, #-29]
30003cc8:	e3530000 	cmp	r3, #0	; 0x0
30003ccc:	1a000004 	bne	30003ce4 <_ntoa_format+0x74>
30003cd0:	e59b301c 	ldr	r3, [fp, #28]
30003cd4:	e203300c 	and	r3, r3, #12	; 0xc
30003cd8:	e3530000 	cmp	r3, #0	; 0x0
30003cdc:	1a000000 	bne	30003ce4 <_ntoa_format+0x74>
30003ce0:	ea000002 	b	30003cf0 <_ntoa_format+0x80>
30003ce4:	e59b3018 	ldr	r3, [fp, #24]
30003ce8:	e2433001 	sub	r3, r3, #1	; 0x1
30003cec:	e58b3018 	str	r3, [fp, #24]
30003cf0:	e59b2008 	ldr	r2, [fp, #8]
30003cf4:	e59b3014 	ldr	r3, [fp, #20]
30003cf8:	e1520003 	cmp	r2, r3
30003cfc:	2a00000c 	bcs	30003d34 <_ntoa_format+0xc4>
30003d00:	e59b3008 	ldr	r3, [fp, #8]
30003d04:	e353001f 	cmp	r3, #31	; 0x1f
30003d08:	8a000009 	bhi	30003d34 <_ntoa_format+0xc4>
30003d0c:	e28b0008 	add	r0, fp, #8	; 0x8
30003d10:	e5902000 	ldr	r2, [r0]
30003d14:	e1a01002 	mov	r1, r2
30003d18:	e59b3004 	ldr	r3, [fp, #4]
30003d1c:	e0811003 	add	r1, r1, r3
30003d20:	e3a03030 	mov	r3, #48	; 0x30
30003d24:	e5c13000 	strb	r3, [r1]
30003d28:	e2822001 	add	r2, r2, #1	; 0x1
30003d2c:	e5802000 	str	r2, [r0]
30003d30:	eaffffee 	b	30003cf0 <_ntoa_format+0x80>
30003d34:	e59b301c 	ldr	r3, [fp, #28]
30003d38:	e2033001 	and	r3, r3, #1	; 0x1
30003d3c:	e3530000 	cmp	r3, #0	; 0x0
30003d40:	0a000010 	beq	30003d88 <_ntoa_format+0x118>
30003d44:	e59b2008 	ldr	r2, [fp, #8]
30003d48:	e59b3018 	ldr	r3, [fp, #24]
30003d4c:	e1520003 	cmp	r2, r3
30003d50:	2a00000c 	bcs	30003d88 <_ntoa_format+0x118>
30003d54:	e59b3008 	ldr	r3, [fp, #8]
30003d58:	e353001f 	cmp	r3, #31	; 0x1f
30003d5c:	8a000009 	bhi	30003d88 <_ntoa_format+0x118>
30003d60:	e28b0008 	add	r0, fp, #8	; 0x8
30003d64:	e5902000 	ldr	r2, [r0]
30003d68:	e1a01002 	mov	r1, r2
30003d6c:	e59b3004 	ldr	r3, [fp, #4]
30003d70:	e0811003 	add	r1, r1, r3
30003d74:	e3a03030 	mov	r3, #48	; 0x30
30003d78:	e5c13000 	strb	r3, [r1]
30003d7c:	e2822001 	add	r2, r2, #1	; 0x1
30003d80:	e5802000 	str	r2, [r0]
30003d84:	eaffffea 	b	30003d34 <_ntoa_format+0xc4>
30003d88:	e59b301c 	ldr	r3, [fp, #28]
30003d8c:	e2033010 	and	r3, r3, #16	; 0x10
30003d90:	e3530000 	cmp	r3, #0	; 0x0
30003d94:	0a00005e 	beq	30003f14 <_ntoa_format+0x2a4>
30003d98:	e59b301c 	ldr	r3, [fp, #28]
30003d9c:	e2033b01 	and	r3, r3, #1024	; 0x400
30003da0:	e3530000 	cmp	r3, #0	; 0x0
30003da4:	1a000017 	bne	30003e08 <_ntoa_format+0x198>
30003da8:	e59b3008 	ldr	r3, [fp, #8]
30003dac:	e3530000 	cmp	r3, #0	; 0x0
30003db0:	0a000014 	beq	30003e08 <_ntoa_format+0x198>
30003db4:	e59b2008 	ldr	r2, [fp, #8]
30003db8:	e59b3014 	ldr	r3, [fp, #20]
30003dbc:	e1520003 	cmp	r2, r3
30003dc0:	0a000004 	beq	30003dd8 <_ntoa_format+0x168>
30003dc4:	e59b2008 	ldr	r2, [fp, #8]
30003dc8:	e59b3018 	ldr	r3, [fp, #24]
30003dcc:	e1520003 	cmp	r2, r3
30003dd0:	0a000000 	beq	30003dd8 <_ntoa_format+0x168>
30003dd4:	ea00000b 	b	30003e08 <_ntoa_format+0x198>
30003dd8:	e59b3008 	ldr	r3, [fp, #8]
30003ddc:	e2433001 	sub	r3, r3, #1	; 0x1
30003de0:	e58b3008 	str	r3, [fp, #8]
30003de4:	e59b3008 	ldr	r3, [fp, #8]
30003de8:	e3530000 	cmp	r3, #0	; 0x0
30003dec:	0a000005 	beq	30003e08 <_ntoa_format+0x198>
30003df0:	e59b3010 	ldr	r3, [fp, #16]
30003df4:	e3530010 	cmp	r3, #16	; 0x10
30003df8:	1a000002 	bne	30003e08 <_ntoa_format+0x198>
30003dfc:	e59b3008 	ldr	r3, [fp, #8]
30003e00:	e2433001 	sub	r3, r3, #1	; 0x1
30003e04:	e58b3008 	str	r3, [fp, #8]
30003e08:	e59b3010 	ldr	r3, [fp, #16]
30003e0c:	e3530010 	cmp	r3, #16	; 0x10
30003e10:	1a000010 	bne	30003e58 <_ntoa_format+0x1e8>
30003e14:	e59b301c 	ldr	r3, [fp, #28]
30003e18:	e2033020 	and	r3, r3, #32	; 0x20
30003e1c:	e3530000 	cmp	r3, #0	; 0x0
30003e20:	1a00000c 	bne	30003e58 <_ntoa_format+0x1e8>
30003e24:	e59b3008 	ldr	r3, [fp, #8]
30003e28:	e353001f 	cmp	r3, #31	; 0x1f
30003e2c:	8a000009 	bhi	30003e58 <_ntoa_format+0x1e8>
30003e30:	e28b0008 	add	r0, fp, #8	; 0x8
30003e34:	e5902000 	ldr	r2, [r0]
30003e38:	e1a01002 	mov	r1, r2
30003e3c:	e59b3004 	ldr	r3, [fp, #4]
30003e40:	e0811003 	add	r1, r1, r3
30003e44:	e3a03078 	mov	r3, #120	; 0x78
30003e48:	e5c13000 	strb	r3, [r1]
30003e4c:	e2822001 	add	r2, r2, #1	; 0x1
30003e50:	e5802000 	str	r2, [r0]
30003e54:	ea000022 	b	30003ee4 <_ntoa_format+0x274>
30003e58:	e59b3010 	ldr	r3, [fp, #16]
30003e5c:	e3530010 	cmp	r3, #16	; 0x10
30003e60:	1a000010 	bne	30003ea8 <_ntoa_format+0x238>
30003e64:	e59b301c 	ldr	r3, [fp, #28]
30003e68:	e2033020 	and	r3, r3, #32	; 0x20
30003e6c:	e3530000 	cmp	r3, #0	; 0x0
30003e70:	0a00000c 	beq	30003ea8 <_ntoa_format+0x238>
30003e74:	e59b3008 	ldr	r3, [fp, #8]
30003e78:	e353001f 	cmp	r3, #31	; 0x1f
30003e7c:	8a000009 	bhi	30003ea8 <_ntoa_format+0x238>
30003e80:	e28b0008 	add	r0, fp, #8	; 0x8
30003e84:	e5902000 	ldr	r2, [r0]
30003e88:	e1a01002 	mov	r1, r2
30003e8c:	e59b3004 	ldr	r3, [fp, #4]
30003e90:	e0811003 	add	r1, r1, r3
30003e94:	e3a03058 	mov	r3, #88	; 0x58
30003e98:	e5c13000 	strb	r3, [r1]
30003e9c:	e2822001 	add	r2, r2, #1	; 0x1
30003ea0:	e5802000 	str	r2, [r0]
30003ea4:	ea00000e 	b	30003ee4 <_ntoa_format+0x274>
30003ea8:	e59b3010 	ldr	r3, [fp, #16]
30003eac:	e3530002 	cmp	r3, #2	; 0x2
30003eb0:	1a00000b 	bne	30003ee4 <_ntoa_format+0x274>
30003eb4:	e59b3008 	ldr	r3, [fp, #8]
30003eb8:	e353001f 	cmp	r3, #31	; 0x1f
30003ebc:	8a000008 	bhi	30003ee4 <_ntoa_format+0x274>
30003ec0:	e28b0008 	add	r0, fp, #8	; 0x8
30003ec4:	e5902000 	ldr	r2, [r0]
30003ec8:	e1a01002 	mov	r1, r2
30003ecc:	e59b3004 	ldr	r3, [fp, #4]
30003ed0:	e0811003 	add	r1, r1, r3
30003ed4:	e3a03062 	mov	r3, #98	; 0x62
30003ed8:	e5c13000 	strb	r3, [r1]
30003edc:	e2822001 	add	r2, r2, #1	; 0x1
30003ee0:	e5802000 	str	r2, [r0]
30003ee4:	e59b3008 	ldr	r3, [fp, #8]
30003ee8:	e353001f 	cmp	r3, #31	; 0x1f
30003eec:	8a000008 	bhi	30003f14 <_ntoa_format+0x2a4>
30003ef0:	e28b0008 	add	r0, fp, #8	; 0x8
30003ef4:	e5902000 	ldr	r2, [r0]
30003ef8:	e1a01002 	mov	r1, r2
30003efc:	e59b3004 	ldr	r3, [fp, #4]
30003f00:	e0811003 	add	r1, r1, r3
30003f04:	e3a03030 	mov	r3, #48	; 0x30
30003f08:	e5c13000 	strb	r3, [r1]
30003f0c:	e2822001 	add	r2, r2, #1	; 0x1
30003f10:	e5802000 	str	r2, [r0]
30003f14:	e59b3008 	ldr	r3, [fp, #8]
30003f18:	e353001f 	cmp	r3, #31	; 0x1f
30003f1c:	8a000027 	bhi	30003fc0 <_ntoa_format+0x350>
30003f20:	e55b301d 	ldrb	r3, [fp, #-29]
30003f24:	e3530000 	cmp	r3, #0	; 0x0
30003f28:	0a000009 	beq	30003f54 <_ntoa_format+0x2e4>
30003f2c:	e28b0008 	add	r0, fp, #8	; 0x8
30003f30:	e5902000 	ldr	r2, [r0]
30003f34:	e1a01002 	mov	r1, r2
30003f38:	e59b3004 	ldr	r3, [fp, #4]
30003f3c:	e0811003 	add	r1, r1, r3
30003f40:	e3a0302d 	mov	r3, #45	; 0x2d
30003f44:	e5c13000 	strb	r3, [r1]
30003f48:	e2822001 	add	r2, r2, #1	; 0x1
30003f4c:	e5802000 	str	r2, [r0]
30003f50:	ea00001a 	b	30003fc0 <_ntoa_format+0x350>
30003f54:	e59b301c 	ldr	r3, [fp, #28]
30003f58:	e2033004 	and	r3, r3, #4	; 0x4
30003f5c:	e3530000 	cmp	r3, #0	; 0x0
30003f60:	0a000009 	beq	30003f8c <_ntoa_format+0x31c>
30003f64:	e28b0008 	add	r0, fp, #8	; 0x8
30003f68:	e5902000 	ldr	r2, [r0]
30003f6c:	e1a01002 	mov	r1, r2
30003f70:	e59b3004 	ldr	r3, [fp, #4]
30003f74:	e0811003 	add	r1, r1, r3
30003f78:	e3a0302b 	mov	r3, #43	; 0x2b
30003f7c:	e5c13000 	strb	r3, [r1]
30003f80:	e2822001 	add	r2, r2, #1	; 0x1
30003f84:	e5802000 	str	r2, [r0]
30003f88:	ea00000c 	b	30003fc0 <_ntoa_format+0x350>
30003f8c:	e59b301c 	ldr	r3, [fp, #28]
30003f90:	e2033008 	and	r3, r3, #8	; 0x8
30003f94:	e3530000 	cmp	r3, #0	; 0x0
30003f98:	0a000008 	beq	30003fc0 <_ntoa_format+0x350>
30003f9c:	e28b0008 	add	r0, fp, #8	; 0x8
30003fa0:	e5902000 	ldr	r2, [r0]
30003fa4:	e1a01002 	mov	r1, r2
30003fa8:	e59b3004 	ldr	r3, [fp, #4]
30003fac:	e0811003 	add	r1, r1, r3
30003fb0:	e3a03020 	mov	r3, #32	; 0x20
30003fb4:	e5c13000 	strb	r3, [r1]
30003fb8:	e2822001 	add	r2, r2, #1	; 0x1
30003fbc:	e5802000 	str	r2, [r0]
30003fc0:	e59b3004 	ldr	r3, [fp, #4]
30003fc4:	e58d3000 	str	r3, [sp]
30003fc8:	e59b3008 	ldr	r3, [fp, #8]
30003fcc:	e58d3004 	str	r3, [sp, #4]
30003fd0:	e59b3018 	ldr	r3, [fp, #24]
30003fd4:	e58d3008 	str	r3, [sp, #8]
30003fd8:	e59b301c 	ldr	r3, [fp, #28]
30003fdc:	e58d300c 	str	r3, [sp, #12]
30003fe0:	e51b0010 	ldr	r0, [fp, #-16]
30003fe4:	e51b1014 	ldr	r1, [fp, #-20]
30003fe8:	e51b2018 	ldr	r2, [fp, #-24]
30003fec:	e51b301c 	ldr	r3, [fp, #-28]
30003ff0:	ebfffec4 	bl	30003b08 <_out_rev>
30003ff4:	e1a03000 	mov	r3, r0
30003ff8:	e1a00003 	mov	r0, r3
30003ffc:	e24bd00c 	sub	sp, fp, #12	; 0xc
30004000:	e89da800 	ldmia	sp, {fp, sp, pc}
Disassembly of section .text._ntoa_long:

30004004 <_ntoa_long>:
30004004:	e1a0c00d 	mov	ip, sp
30004008:	e92dd800 	stmdb	sp!, {fp, ip, lr, pc}
3000400c:	e24cb004 	sub	fp, ip, #4	; 0x4
30004010:	e24dd060 	sub	sp, sp, #96	; 0x60
30004014:	e50b0010 	str	r0, [fp, #-16]
30004018:	e50b1014 	str	r1, [fp, #-20]
3000401c:	e50b2018 	str	r2, [fp, #-24]
30004020:	e50b301c 	str	r3, [fp, #-28]
30004024:	e59b3008 	ldr	r3, [fp, #8]
30004028:	e54b301d 	strb	r3, [fp, #-29]
3000402c:	e3a03000 	mov	r3, #0	; 0x0
30004030:	e50b3044 	str	r3, [fp, #-68]
30004034:	e59b3004 	ldr	r3, [fp, #4]
30004038:	e3530000 	cmp	r3, #0	; 0x0
3000403c:	1a000002 	bne	3000404c <_ntoa_long+0x48>
30004040:	e59b3018 	ldr	r3, [fp, #24]
30004044:	e3c33010 	bic	r3, r3, #16	; 0x10
30004048:	e58b3018 	str	r3, [fp, #24]
3000404c:	e59b3018 	ldr	r3, [fp, #24]
30004050:	e2033b01 	and	r3, r3, #1024	; 0x400
30004054:	e3530000 	cmp	r3, #0	; 0x0
30004058:	0a000003 	beq	3000406c <_ntoa_long+0x68>
3000405c:	e59b3004 	ldr	r3, [fp, #4]
30004060:	e3530000 	cmp	r3, #0	; 0x0
30004064:	1a000000 	bne	3000406c <_ntoa_long+0x68>
30004068:	ea000030 	b	30004130 <_ntoa_long+0x12c>
3000406c:	e59b3004 	ldr	r3, [fp, #4]
30004070:	e1a00003 	mov	r0, r3
30004074:	e59b100c 	ldr	r1, [fp, #12]
30004078:	ebfff4b4 	bl	30001350 <__umodsi3>
3000407c:	e1a03000 	mov	r3, r0
30004080:	e54b3045 	strb	r3, [fp, #-69]
30004084:	e24b0044 	sub	r0, fp, #68	; 0x44
30004088:	e5902000 	ldr	r2, [r0]
3000408c:	e3e01033 	mvn	r1, #51	; 0x33
30004090:	e1a03002 	mov	r3, r2
30004094:	e24bc00c 	sub	ip, fp, #12	; 0xc
30004098:	e083300c 	add	r3, r3, ip
3000409c:	e0833001 	add	r3, r3, r1
300040a0:	e50b304c 	str	r3, [fp, #-76]
300040a4:	e2822001 	add	r2, r2, #1	; 0x1
300040a8:	e5802000 	str	r2, [r0]
300040ac:	e55b3045 	ldrb	r3, [fp, #-69]
300040b0:	e3530009 	cmp	r3, #9	; 0x9
300040b4:	8a000003 	bhi	300040c8 <_ntoa_long+0xc4>
300040b8:	e55b3045 	ldrb	r3, [fp, #-69]
300040bc:	e2833030 	add	r3, r3, #48	; 0x30
300040c0:	e54b304d 	strb	r3, [fp, #-77]
300040c4:	ea00000a 	b	300040f4 <_ntoa_long+0xf0>
300040c8:	e59b3018 	ldr	r3, [fp, #24]
300040cc:	e2033020 	and	r3, r3, #32	; 0x20
300040d0:	e3530000 	cmp	r3, #0	; 0x0
300040d4:	0a000003 	beq	300040e8 <_ntoa_long+0xe4>
300040d8:	e55b3045 	ldrb	r3, [fp, #-69]
300040dc:	e2833037 	add	r3, r3, #55	; 0x37
300040e0:	e54b304d 	strb	r3, [fp, #-77]
300040e4:	ea000002 	b	300040f4 <_ntoa_long+0xf0>
300040e8:	e55b3045 	ldrb	r3, [fp, #-69]
300040ec:	e2833057 	add	r3, r3, #87	; 0x57
300040f0:	e54b304d 	strb	r3, [fp, #-77]
300040f4:	e55b304d 	ldrb	r3, [fp, #-77]
300040f8:	e51b204c 	ldr	r2, [fp, #-76]
300040fc:	e5c23000 	strb	r3, [r2]
30004100:	e59b0004 	ldr	r0, [fp, #4]
30004104:	e59b100c 	ldr	r1, [fp, #12]
30004108:	ebfff454 	bl	30001260 <__udivsi3>
3000410c:	e1a03000 	mov	r3, r0
30004110:	e58b3004 	str	r3, [fp, #4]
30004114:	e59b3004 	ldr	r3, [fp, #4]
30004118:	e3530000 	cmp	r3, #0	; 0x0
3000411c:	0a000003 	beq	30004130 <_ntoa_long+0x12c>
30004120:	e51b3044 	ldr	r3, [fp, #-68]
30004124:	e353001f 	cmp	r3, #31	; 0x1f
30004128:	8a000000 	bhi	30004130 <_ntoa_long+0x12c>
3000412c:	eaffffce 	b	3000406c <_ntoa_long+0x68>
30004130:	e24b3040 	sub	r3, fp, #64	; 0x40
30004134:	e58d3000 	str	r3, [sp]
30004138:	e51b3044 	ldr	r3, [fp, #-68]
3000413c:	e58d3004 	str	r3, [sp, #4]
30004140:	e55b301d 	ldrb	r3, [fp, #-29]
30004144:	e58d3008 	str	r3, [sp, #8]
30004148:	e59b300c 	ldr	r3, [fp, #12]
3000414c:	e58d300c 	str	r3, [sp, #12]
30004150:	e59b3010 	ldr	r3, [fp, #16]
30004154:	e58d3010 	str	r3, [sp, #16]
30004158:	e59b3014 	ldr	r3, [fp, #20]
3000415c:	e58d3014 	str	r3, [sp, #20]
30004160:	e59b3018 	ldr	r3, [fp, #24]
30004164:	e58d3018 	str	r3, [sp, #24]
30004168:	e51b0010 	ldr	r0, [fp, #-16]
3000416c:	e51b1014 	ldr	r1, [fp, #-20]
30004170:	e51b2018 	ldr	r2, [fp, #-24]
30004174:	e51b301c 	ldr	r3, [fp, #-28]
30004178:	ebfffebc 	bl	30003c70 <_ntoa_format>
3000417c:	e1a03000 	mov	r3, r0
30004180:	e1a00003 	mov	r0, r3
30004184:	e24bd00c 	sub	sp, fp, #12	; 0xc
30004188:	e89da800 	ldmia	sp, {fp, sp, pc}
Disassembly of section .text._ntoa_long_long:

3000418c <_ntoa_long_long>:
3000418c:	e1a0c00d 	mov	ip, sp
30004190:	e92dd810 	stmdb	sp!, {r4, fp, ip, lr, pc}
30004194:	e24cb004 	sub	fp, ip, #4	; 0x4
30004198:	e24dd060 	sub	sp, sp, #96	; 0x60
3000419c:	e50b0014 	str	r0, [fp, #-20]
300041a0:	e50b1018 	str	r1, [fp, #-24]
300041a4:	e50b201c 	str	r2, [fp, #-28]
300041a8:	e50b3020 	str	r3, [fp, #-32]
300041ac:	e59b300c 	ldr	r3, [fp, #12]
300041b0:	e54b3021 	strb	r3, [fp, #-33]
300041b4:	e3a03000 	mov	r3, #0	; 0x0
300041b8:	e50b3048 	str	r3, [fp, #-72]
300041bc:	e59b3004 	ldr	r3, [fp, #4]
300041c0:	e59b2008 	ldr	r2, [fp, #8]
300041c4:	e1833002 	orr	r3, r3, r2
300041c8:	e3530000 	cmp	r3, #0	; 0x0
300041cc:	1a000002 	bne	300041dc <_ntoa_long_long+0x50>
300041d0:	e59b3020 	ldr	r3, [fp, #32]
300041d4:	e3c33010 	bic	r3, r3, #16	; 0x10
300041d8:	e58b3020 	str	r3, [fp, #32]
300041dc:	e59b3020 	ldr	r3, [fp, #32]
300041e0:	e2033b01 	and	r3, r3, #1024	; 0x400
300041e4:	e3530000 	cmp	r3, #0	; 0x0
300041e8:	0a000004 	beq	30004200 <_ntoa_long_long+0x74>
300041ec:	e59b3004 	ldr	r3, [fp, #4]
300041f0:	e59b2008 	ldr	r2, [fp, #8]
300041f4:	e1833002 	orr	r3, r3, r2
300041f8:	e3530000 	cmp	r3, #0	; 0x0
300041fc:	0a00003b 	beq	300042f0 <_ntoa_long_long+0x164>
30004200:	e3a0200c 	mov	r2, #12	; 0xc
30004204:	e28b3004 	add	r3, fp, #4	; 0x4
30004208:	e0832002 	add	r2, r3, r2
3000420c:	e99b0018 	ldmib	fp, {r3, r4}
30004210:	e1a01004 	mov	r1, r4
30004214:	e1a00003 	mov	r0, r3
30004218:	e892000c 	ldmia	r2, {r2, r3}
3000421c:	ebfff8f4 	bl	300025f4 <__umoddi3>
30004220:	e1a04001 	mov	r4, r1
30004224:	e1a03000 	mov	r3, r0
30004228:	e54b3049 	strb	r3, [fp, #-73]
3000422c:	e24b0048 	sub	r0, fp, #72	; 0x48
30004230:	e5902000 	ldr	r2, [r0]
30004234:	e3e01033 	mvn	r1, #51	; 0x33
30004238:	e1a03002 	mov	r3, r2
3000423c:	e24bc010 	sub	ip, fp, #16	; 0x10
30004240:	e083300c 	add	r3, r3, ip
30004244:	e0833001 	add	r3, r3, r1
30004248:	e50b3050 	str	r3, [fp, #-80]
3000424c:	e2822001 	add	r2, r2, #1	; 0x1
30004250:	e5802000 	str	r2, [r0]
30004254:	e55b3049 	ldrb	r3, [fp, #-73]
30004258:	e3530009 	cmp	r3, #9	; 0x9
3000425c:	8a000003 	bhi	30004270 <_ntoa_long_long+0xe4>
30004260:	e55b3049 	ldrb	r3, [fp, #-73]
30004264:	e2833030 	add	r3, r3, #48	; 0x30
30004268:	e54b3051 	strb	r3, [fp, #-81]
3000426c:	ea00000a 	b	3000429c <_ntoa_long_long+0x110>
30004270:	e59b3020 	ldr	r3, [fp, #32]
30004274:	e2033020 	and	r3, r3, #32	; 0x20
30004278:	e3530000 	cmp	r3, #0	; 0x0
3000427c:	0a000003 	beq	30004290 <_ntoa_long_long+0x104>
30004280:	e55b3049 	ldrb	r3, [fp, #-73]
30004284:	e2833037 	add	r3, r3, #55	; 0x37
30004288:	e54b3051 	strb	r3, [fp, #-81]
3000428c:	ea000002 	b	3000429c <_ntoa_long_long+0x110>
30004290:	e55b3049 	ldrb	r3, [fp, #-73]
30004294:	e2833057 	add	r3, r3, #87	; 0x57
30004298:	e54b3051 	strb	r3, [fp, #-81]
3000429c:	e55b3051 	ldrb	r3, [fp, #-81]
300042a0:	e51b2050 	ldr	r2, [fp, #-80]
300042a4:	e5c23000 	strb	r3, [r2]
300042a8:	e3a0200c 	mov	r2, #12	; 0xc
300042ac:	e28b3004 	add	r3, fp, #4	; 0x4
300042b0:	e0833002 	add	r3, r3, r2
300042b4:	e99b0003 	ldmib	fp, {r0, r1}
300042b8:	e893000c 	ldmia	r3, {r2, r3}
300042bc:	ebfff77b 	bl	300020b0 <__udivdi3>
300042c0:	e1a04001 	mov	r4, r1
300042c4:	e1a03000 	mov	r3, r0
300042c8:	e98b0018 	stmib	fp, {r3, r4}
300042cc:	e59b3004 	ldr	r3, [fp, #4]
300042d0:	e59b2008 	ldr	r2, [fp, #8]
300042d4:	e1833002 	orr	r3, r3, r2
300042d8:	e3530000 	cmp	r3, #0	; 0x0
300042dc:	0a000003 	beq	300042f0 <_ntoa_long_long+0x164>
300042e0:	e51b3048 	ldr	r3, [fp, #-72]
300042e4:	e353001f 	cmp	r3, #31	; 0x1f
300042e8:	8a000000 	bhi	300042f0 <_ntoa_long_long+0x164>
300042ec:	eaffffc3 	b	30004200 <_ntoa_long_long+0x74>
300042f0:	e24b3044 	sub	r3, fp, #68	; 0x44
300042f4:	e58d3000 	str	r3, [sp]
300042f8:	e51b3048 	ldr	r3, [fp, #-72]
300042fc:	e58d3004 	str	r3, [sp, #4]
30004300:	e55b3021 	ldrb	r3, [fp, #-33]
30004304:	e58d3008 	str	r3, [sp, #8]
30004308:	e3a0200c 	mov	r2, #12	; 0xc
3000430c:	e28b3004 	add	r3, fp, #4	; 0x4
30004310:	e0833002 	add	r3, r3, r2
30004314:	e5933000 	ldr	r3, [r3]
30004318:	e58d300c 	str	r3, [sp, #12]
3000431c:	e59b3018 	ldr	r3, [fp, #24]
30004320:	e58d3010 	str	r3, [sp, #16]
30004324:	e59b301c 	ldr	r3, [fp, #28]
30004328:	e58d3014 	str	r3, [sp, #20]
3000432c:	e59b3020 	ldr	r3, [fp, #32]
30004330:	e58d3018 	str	r3, [sp, #24]
30004334:	e51b0014 	ldr	r0, [fp, #-20]
30004338:	e51b1018 	ldr	r1, [fp, #-24]
3000433c:	e51b201c 	ldr	r2, [fp, #-28]
30004340:	e51b3020 	ldr	r3, [fp, #-32]
30004344:	ebfffe49 	bl	30003c70 <_ntoa_format>
30004348:	e1a03000 	mov	r3, r0
3000434c:	e1a00003 	mov	r0, r3
30004350:	e24bd010 	sub	sp, fp, #16	; 0x10
30004354:	e89da810 	ldmia	sp, {r4, fp, sp, pc}
Disassembly of section .text._ftoa:

30004358 <_ftoa>:
30004358:	e1a0c00d 	mov	ip, sp
3000435c:	e92dd830 	stmdb	sp!, {r4, r5, fp, ip, lr, pc}
30004360:	e24cb004 	sub	fp, ip, #4	; 0x4
30004364:	e24dd08c 	sub	sp, sp, #140	; 0x8c
30004368:	e50b0018 	str	r0, [fp, #-24]
3000436c:	e50b101c 	str	r1, [fp, #-28]
30004370:	e50b2020 	str	r2, [fp, #-32]
30004374:	e50b3024 	str	r3, [fp, #-36]
30004378:	e3a03000 	mov	r3, #0	; 0x0
3000437c:	e50b3048 	str	r3, [fp, #-72]
30004380:	e3e0303b 	mvn	r3, #59	; 0x3b
30004384:	e24b0014 	sub	r0, fp, #20	; 0x14
30004388:	e0802003 	add	r2, r0, r3
3000438c:	e28f3fa7 	add	r3, pc, #668	; 0x29c
30004390:	e8930018 	ldmia	r3, {r3, r4}
30004394:	e8820018 	stmia	r2, {r3, r4}
30004398:	e99b0003 	ldmib	fp, {r0, r1}
3000439c:	e99b000c 	ldmib	fp, {r2, r3}
300043a0:	ebfff6e0 	bl	30001f28 <__cmpdf2>
300043a4:	e1a03000 	mov	r3, r0
300043a8:	e3530000 	cmp	r3, #0	; 0x0
300043ac:	1a000000 	bne	300043b4 <_ftoa+0x5c>
300043b0:	ea00000f 	b	300043f4 <_ftoa+0x9c>
300043b4:	e59f329c 	ldr	r3, [pc, #668]	; 30004658 <.text._ftoa+0x300>
300043b8:	e58d3000 	str	r3, [sp]
300043bc:	e3a03003 	mov	r3, #3	; 0x3
300043c0:	e58d3004 	str	r3, [sp, #4]
300043c4:	e59b3010 	ldr	r3, [fp, #16]
300043c8:	e58d3008 	str	r3, [sp, #8]
300043cc:	e59b3014 	ldr	r3, [fp, #20]
300043d0:	e58d300c 	str	r3, [sp, #12]
300043d4:	e51b0018 	ldr	r0, [fp, #-24]
300043d8:	e51b101c 	ldr	r1, [fp, #-28]
300043dc:	e51b2020 	ldr	r2, [fp, #-32]
300043e0:	e51b3024 	ldr	r3, [fp, #-36]
300043e4:	ebfffdc7 	bl	30003b08 <_out_rev>
300043e8:	e1a03000 	mov	r3, r0
300043ec:	e50b306c 	str	r3, [fp, #-108]
300043f0:	ea00022b 	b	30004ca4 <.text._ftoa+0x94c>
300043f4:	e99b0003 	ldmib	fp, {r0, r1}
300043f8:	e28f2f8e 	add	r2, pc, #568	; 0x238
300043fc:	e892000c 	ldmia	r2, {r2, r3}
30004400:	ebfff6c6 	bl	30001f20 <__ledf2>
30004404:	e1a03000 	mov	r3, r0
30004408:	e3530000 	cmp	r3, #0	; 0x0
3000440c:	ba000000 	blt	30004414 <_ftoa+0xbc>
30004410:	ea00000f 	b	30004454 <_ftoa+0xfc>
30004414:	e59f3240 	ldr	r3, [pc, #576]	; 3000465c <.text._ftoa+0x304>
30004418:	e58d3000 	str	r3, [sp]
3000441c:	e3a03004 	mov	r3, #4	; 0x4
30004420:	e58d3004 	str	r3, [sp, #4]
30004424:	e59b3010 	ldr	r3, [fp, #16]
30004428:	e58d3008 	str	r3, [sp, #8]
3000442c:	e59b3014 	ldr	r3, [fp, #20]
30004430:	e58d300c 	str	r3, [sp, #12]
30004434:	e51b0018 	ldr	r0, [fp, #-24]
30004438:	e51b101c 	ldr	r1, [fp, #-28]
3000443c:	e51b2020 	ldr	r2, [fp, #-32]
30004440:	e51b3024 	ldr	r3, [fp, #-36]
30004444:	ebfffdaf 	bl	30003b08 <_out_rev>
30004448:	e1a03000 	mov	r3, r0
3000444c:	e50b306c 	str	r3, [fp, #-108]
30004450:	ea000213 	b	30004ca4 <.text._ftoa+0x94c>
30004454:	e99b0003 	ldmib	fp, {r0, r1}
30004458:	e28f2e1e 	add	r2, pc, #480	; 0x1e0
3000445c:	e892000c 	ldmia	r2, {r2, r3}
30004460:	ebfff6ac 	bl	30001f18 <__gedf2>
30004464:	e1a03000 	mov	r3, r0
30004468:	e3530000 	cmp	r3, #0	; 0x0
3000446c:	ca000000 	bgt	30004474 <_ftoa+0x11c>
30004470:	ea000021 	b	300044fc <_ftoa+0x1a4>
30004474:	e59b3014 	ldr	r3, [fp, #20]
30004478:	e2033004 	and	r3, r3, #4	; 0x4
3000447c:	e3530000 	cmp	r3, #0	; 0x0
30004480:	0a000002 	beq	30004490 <_ftoa+0x138>
30004484:	e59f11d4 	ldr	r1, [pc, #468]	; 30004660 <.text._ftoa+0x308>
30004488:	e50b1070 	str	r1, [fp, #-112]
3000448c:	ea000001 	b	30004498 <_ftoa+0x140>
30004490:	e59f21cc 	ldr	r2, [pc, #460]	; 30004664 <.text._ftoa+0x30c>
30004494:	e50b2070 	str	r2, [fp, #-112]
30004498:	e51b3070 	ldr	r3, [fp, #-112]
3000449c:	e58d3000 	str	r3, [sp]
300044a0:	e59b3014 	ldr	r3, [fp, #20]
300044a4:	e2033004 	and	r3, r3, #4	; 0x4
300044a8:	e3530000 	cmp	r3, #0	; 0x0
300044ac:	0a000002 	beq	300044bc <_ftoa+0x164>
300044b0:	e3a0c004 	mov	ip, #4	; 0x4
300044b4:	e50bc074 	str	ip, [fp, #-116]
300044b8:	ea000001 	b	300044c4 <_ftoa+0x16c>
300044bc:	e3a00003 	mov	r0, #3	; 0x3
300044c0:	e50b0074 	str	r0, [fp, #-116]
300044c4:	e51b1074 	ldr	r1, [fp, #-116]
300044c8:	e58d1004 	str	r1, [sp, #4]
300044cc:	e59b3010 	ldr	r3, [fp, #16]
300044d0:	e58d3008 	str	r3, [sp, #8]
300044d4:	e59b3014 	ldr	r3, [fp, #20]
300044d8:	e58d300c 	str	r3, [sp, #12]
300044dc:	e51b0018 	ldr	r0, [fp, #-24]
300044e0:	e51b101c 	ldr	r1, [fp, #-28]
300044e4:	e51b2020 	ldr	r2, [fp, #-32]
300044e8:	e51b3024 	ldr	r3, [fp, #-36]
300044ec:	ebfffd85 	bl	30003b08 <_out_rev>
300044f0:	e1a03000 	mov	r3, r0
300044f4:	e50b306c 	str	r3, [fp, #-108]
300044f8:	ea0001e9 	b	30004ca4 <.text._ftoa+0x94c>
300044fc:	e99b0003 	ldmib	fp, {r0, r1}
30004500:	e28f2d05 	add	r2, pc, #320	; 0x140
30004504:	e892000c 	ldmia	r2, {r2, r3}
30004508:	ebfff682 	bl	30001f18 <__gedf2>
3000450c:	e1a03000 	mov	r3, r0
30004510:	e3530000 	cmp	r3, #0	; 0x0
30004514:	ca000007 	bgt	30004538 <_ftoa+0x1e0>
30004518:	e99b0003 	ldmib	fp, {r0, r1}
3000451c:	e28f2f4b 	add	r2, pc, #300	; 0x12c
30004520:	e892000c 	ldmia	r2, {r2, r3}
30004524:	ebfff67d 	bl	30001f20 <__ledf2>
30004528:	e1a03000 	mov	r3, r0
3000452c:	e3530000 	cmp	r3, #0	; 0x0
30004530:	ba000000 	blt	30004538 <_ftoa+0x1e0>
30004534:	ea00000f 	b	30004578 <_ftoa+0x220>
30004538:	e99b0018 	ldmib	fp, {r3, r4}
3000453c:	e88d0018 	stmia	sp, {r3, r4}
30004540:	e59b300c 	ldr	r3, [fp, #12]
30004544:	e58d3008 	str	r3, [sp, #8]
30004548:	e59b3010 	ldr	r3, [fp, #16]
3000454c:	e58d300c 	str	r3, [sp, #12]
30004550:	e59b3014 	ldr	r3, [fp, #20]
30004554:	e58d3010 	str	r3, [sp, #16]
30004558:	e51b0018 	ldr	r0, [fp, #-24]
3000455c:	e51b101c 	ldr	r1, [fp, #-28]
30004560:	e51b2020 	ldr	r2, [fp, #-32]
30004564:	e51b3024 	ldr	r3, [fp, #-36]
30004568:	eb0001d0 	bl	30004cb0 <_etoa>
3000456c:	e1a03000 	mov	r3, r0
30004570:	e50b306c 	str	r3, [fp, #-108]
30004574:	ea0001ca 	b	30004ca4 <.text._ftoa+0x94c>
30004578:	e3a03000 	mov	r3, #0	; 0x0
3000457c:	e54b3051 	strb	r3, [fp, #-81]
30004580:	e99b0003 	ldmib	fp, {r0, r1}
30004584:	e28f20a4 	add	r2, pc, #164	; 0xa4
30004588:	e892000c 	ldmia	r2, {r2, r3}
3000458c:	ebfff663 	bl	30001f20 <__ledf2>
30004590:	e1a03000 	mov	r3, r0
30004594:	e3530000 	cmp	r3, #0	; 0x0
30004598:	ba000000 	blt	300045a0 <_ftoa+0x248>
3000459c:	ea000008 	b	300045c4 <_ftoa+0x26c>
300045a0:	e3a03001 	mov	r3, #1	; 0x1
300045a4:	e54b3051 	strb	r3, [fp, #-81]
300045a8:	e28f0080 	add	r0, pc, #128	; 0x80
300045ac:	e8900003 	ldmia	r0, {r0, r1}
300045b0:	e99b000c 	ldmib	fp, {r2, r3}
300045b4:	ebfff415 	bl	30001610 <__subdf3>
300045b8:	e1a04001 	mov	r4, r1
300045bc:	e1a03000 	mov	r3, r0
300045c0:	e98b0018 	stmib	fp, {r3, r4}
300045c4:	e59b3014 	ldr	r3, [fp, #20]
300045c8:	e2033b01 	and	r3, r3, #1024	; 0x400
300045cc:	e3530000 	cmp	r3, #0	; 0x0
300045d0:	1a000001 	bne	300045dc <_ftoa+0x284>
300045d4:	e3a03006 	mov	r3, #6	; 0x6
300045d8:	e58b300c 	str	r3, [fp, #12]
300045dc:	e51b3048 	ldr	r3, [fp, #-72]
300045e0:	e353001f 	cmp	r3, #31	; 0x1f
300045e4:	8a000026 	bhi	30004684 <.text._ftoa+0x32c>
300045e8:	e59b300c 	ldr	r3, [fp, #12]
300045ec:	e3530009 	cmp	r3, #9	; 0x9
300045f0:	9a000023 	bls	30004684 <.text._ftoa+0x32c>
300045f4:	e24b0048 	sub	r0, fp, #72	; 0x48
300045f8:	e5902000 	ldr	r2, [r0]
300045fc:	e3e0102f 	mvn	r1, #47	; 0x2f
30004600:	e1a03002 	mov	r3, r2
30004604:	e24bc014 	sub	ip, fp, #20	; 0x14
30004608:	e083300c 	add	r3, r3, ip
3000460c:	e0831001 	add	r1, r3, r1
30004610:	e3a03030 	mov	r3, #48	; 0x30
30004614:	e5c13000 	strb	r3, [r1]
30004618:	e2822001 	add	r2, r2, #1	; 0x1
3000461c:	e5802000 	str	r2, [r0]
30004620:	e59b300c 	ldr	r3, [fp, #12]
30004624:	e2433001 	sub	r3, r3, #1	; 0x1
30004628:	e58b300c 	str	r3, [fp, #12]
3000462c:	eaffffea 	b	300045dc <_ftoa+0x284>
	...
30004638:	ffefffff 	swinv	0x00efffff
3000463c:	ffffffff 	swinv	0x00ffffff
30004640:	7fefffff 	swivc	0x00efffff
30004644:	ffffffff 	swinv	0x00ffffff
30004648:	41cdcd65 	bicmi	ip, sp, r5, ror #26
3000464c:	00000000 	andeq	r0, r0, r0
30004650:	c1cdcd65 	bicgt	ip, sp, r5, ror #26
30004654:	00000000 	andeq	r0, r0, r0
30004658:	30006afc 	strccd	r6, [r0], -ip
3000465c:	30006b00 	andcc	r6, r0, r0, lsl #22
30004660:	30006b08 	andcc	r6, r0, r8, lsl #22
30004664:	30006b10 	andcc	r6, r0, r0, lsl fp
30004668:	30006c14 	andcc	r6, r0, r4, lsl ip
3000466c:	cccccccd 	stcgtl	12, cr12, [ip], {205}
30004670:	66666667 	strvsbt	r6, [r6], -r7, ror #12
30004674:	41f00000 	mvnmis	r0, r0
30004678:	00000000 	andeq	r0, r0, r0
3000467c:	3fe00000 	swicc	0x00e00000
30004680:	00000000 	andeq	r0, r0, r0
30004684:	e99b0003 	ldmib	fp, {r0, r1}
30004688:	ebfff64b 	bl	30001fbc <__fixdfsi>
3000468c:	e1a03000 	mov	r3, r0
30004690:	e50b3058 	str	r3, [fp, #-88]
30004694:	e3e0304b 	mvn	r3, #75	; 0x4b
30004698:	e24b0014 	sub	r0, fp, #20	; 0x14
3000469c:	e0805003 	add	r5, r0, r3
300046a0:	e51b0058 	ldr	r0, [fp, #-88]
300046a4:	ebfff49d 	bl	30001920 <__floatsidf>
300046a8:	e1a04001 	mov	r4, r1
300046ac:	e1a03000 	mov	r3, r0
300046b0:	e99b0003 	ldmib	fp, {r0, r1}
300046b4:	e1a02003 	mov	r2, r3
300046b8:	e1a03004 	mov	r3, r4
300046bc:	ebfff3d3 	bl	30001610 <__subdf3>
300046c0:	e1a02001 	mov	r2, r1
300046c4:	e1a01000 	mov	r1, r0
300046c8:	e51f0068 	ldr	r0, [pc, #-104]	; 30004668 <.text._ftoa+0x310>
300046cc:	e59b300c 	ldr	r3, [fp, #12]
300046d0:	e1a03183 	mov	r3, r3, lsl #3
300046d4:	e0833000 	add	r3, r3, r0
300046d8:	e1a00001 	mov	r0, r1
300046dc:	e1a01002 	mov	r1, r2
300046e0:	e893000c 	ldmia	r3, {r2, r3}
300046e4:	ebfff4ab 	bl	30001998 <__muldf3>
300046e8:	e1a04001 	mov	r4, r1
300046ec:	e1a03000 	mov	r3, r0
300046f0:	e8850018 	stmia	r5, {r3, r4}
300046f4:	e3e0304b 	mvn	r3, #75	; 0x4b
300046f8:	e24b1014 	sub	r1, fp, #20	; 0x14
300046fc:	e0813003 	add	r3, r1, r3
30004700:	e8930003 	ldmia	r3, {r0, r1}
30004704:	ebfff64c 	bl	3000203c <__fixunsdfsi>
30004708:	e1a03000 	mov	r3, r0
3000470c:	e50b3064 	str	r3, [fp, #-100]
30004710:	e3e0303b 	mvn	r3, #59	; 0x3b
30004714:	e24b2014 	sub	r2, fp, #20	; 0x14
30004718:	e0822003 	add	r2, r2, r3
3000471c:	e50b2078 	str	r2, [fp, #-120]
30004720:	e3e0304b 	mvn	r3, #75	; 0x4b
30004724:	e24bc014 	sub	ip, fp, #20	; 0x14
30004728:	e08cc003 	add	ip, ip, r3
3000472c:	e50bc07c 	str	ip, [fp, #-124]
30004730:	e51b0064 	ldr	r0, [fp, #-100]
30004734:	ebfff479 	bl	30001920 <__floatsidf>
30004738:	e24b2080 	sub	r2, fp, #128	; 0x80
3000473c:	e8020003 	stmda	r2, {r0, r1}
30004740:	e51b3064 	ldr	r3, [fp, #-100]
30004744:	e3530000 	cmp	r3, #0	; 0x0
30004748:	aa000008 	bge	30004770 <.text._ftoa+0x418>
3000474c:	e24b3080 	sub	r3, fp, #128	; 0x80
30004750:	e8130003 	ldmda	r3, {r0, r1}
30004754:	e24f20e8 	sub	r2, pc, #232	; 0xe8
30004758:	e892000c 	ldmia	r2, {r2, r3}
3000475c:	ebfff3ac 	bl	30001614 <__adddf3>
30004760:	e1a04001 	mov	r4, r1
30004764:	e1a03000 	mov	r3, r0
30004768:	e24bc080 	sub	ip, fp, #128	; 0x80
3000476c:	e80c0018 	stmda	ip, {r3, r4}
30004770:	e51b207c 	ldr	r2, [fp, #-124]
30004774:	e8920003 	ldmia	r2, {r0, r1}
30004778:	e24bc080 	sub	ip, fp, #128	; 0x80
3000477c:	e81c000c 	ldmda	ip, {r2, r3}
30004780:	ebfff3a2 	bl	30001610 <__subdf3>
30004784:	e1a04001 	mov	r4, r1
30004788:	e1a03000 	mov	r3, r0
3000478c:	e51b0078 	ldr	r0, [fp, #-120]
30004790:	e8800018 	stmia	r0, {r3, r4}
30004794:	e3e0303b 	mvn	r3, #59	; 0x3b
30004798:	e24b1014 	sub	r1, fp, #20	; 0x14
3000479c:	e0813003 	add	r3, r1, r3
300047a0:	e8930003 	ldmia	r3, {r0, r1}
300047a4:	e24f2e13 	sub	r2, pc, #304	; 0x130
300047a8:	e892000c 	ldmia	r2, {r2, r3}
300047ac:	ebfff5d9 	bl	30001f18 <__gedf2>
300047b0:	e1a03000 	mov	r3, r0
300047b4:	e3530000 	cmp	r3, #0	; 0x0
300047b8:	ca000000 	bgt	300047c0 <.text._ftoa+0x468>
300047bc:	ea000024 	b	30004854 <.text._ftoa+0x4fc>
300047c0:	e51b3064 	ldr	r3, [fp, #-100]
300047c4:	e2833001 	add	r3, r3, #1	; 0x1
300047c8:	e50b3064 	str	r3, [fp, #-100]
300047cc:	e51b0064 	ldr	r0, [fp, #-100]
300047d0:	ebfff452 	bl	30001920 <__floatsidf>
300047d4:	e24b2090 	sub	r2, fp, #144	; 0x90
300047d8:	e9820003 	stmib	r2, {r0, r1}
300047dc:	e51b3064 	ldr	r3, [fp, #-100]
300047e0:	e3530000 	cmp	r3, #0	; 0x0
300047e4:	aa000008 	bge	3000480c <.text._ftoa+0x4b4>
300047e8:	e24b3090 	sub	r3, fp, #144	; 0x90
300047ec:	e9930003 	ldmib	r3, {r0, r1}
300047f0:	e24f2f61 	sub	r2, pc, #388	; 0x184
300047f4:	e892000c 	ldmia	r2, {r2, r3}
300047f8:	ebfff385 	bl	30001614 <__adddf3>
300047fc:	e1a04001 	mov	r4, r1
30004800:	e1a03000 	mov	r3, r0
30004804:	e24bc090 	sub	ip, fp, #144	; 0x90
30004808:	e98c0018 	stmib	ip, {r3, r4}
3000480c:	e51f21ac 	ldr	r2, [pc, #-428]	; 30004668 <.text._ftoa+0x310>
30004810:	e59b300c 	ldr	r3, [fp, #12]
30004814:	e1a03183 	mov	r3, r3, lsl #3
30004818:	e0833002 	add	r3, r3, r2
3000481c:	e24b2090 	sub	r2, fp, #144	; 0x90
30004820:	e9920003 	ldmib	r2, {r0, r1}
30004824:	e893000c 	ldmia	r3, {r2, r3}
30004828:	ebfff5ba 	bl	30001f18 <__gedf2>
3000482c:	e1a03000 	mov	r3, r0
30004830:	e3530000 	cmp	r3, #0	; 0x0
30004834:	aa000000 	bge	3000483c <.text._ftoa+0x4e4>
30004838:	ea00001a 	b	300048a8 <.text._ftoa+0x550>
3000483c:	e3a03000 	mov	r3, #0	; 0x0
30004840:	e50b3064 	str	r3, [fp, #-100]
30004844:	e51b3058 	ldr	r3, [fp, #-88]
30004848:	e2833001 	add	r3, r3, #1	; 0x1
3000484c:	e50b3058 	str	r3, [fp, #-88]
30004850:	ea000014 	b	300048a8 <.text._ftoa+0x550>
30004854:	e3e0303b 	mvn	r3, #59	; 0x3b
30004858:	e24bc014 	sub	ip, fp, #20	; 0x14
3000485c:	e08c3003 	add	r3, ip, r3
30004860:	e8930003 	ldmia	r3, {r0, r1}
30004864:	e24f2e1f 	sub	r2, pc, #496	; 0x1f0
30004868:	e892000c 	ldmia	r2, {r2, r3}
3000486c:	ebfff5ab 	bl	30001f20 <__ledf2>
30004870:	e1a03000 	mov	r3, r0
30004874:	e3530000 	cmp	r3, #0	; 0x0
30004878:	ba00000a 	blt	300048a8 <.text._ftoa+0x550>
3000487c:	e51b3064 	ldr	r3, [fp, #-100]
30004880:	e3530000 	cmp	r3, #0	; 0x0
30004884:	0a000004 	beq	3000489c <.text._ftoa+0x544>
30004888:	e51b3064 	ldr	r3, [fp, #-100]
3000488c:	e2033001 	and	r3, r3, #1	; 0x1
30004890:	e3530000 	cmp	r3, #0	; 0x0
30004894:	1a000000 	bne	3000489c <.text._ftoa+0x544>
30004898:	ea000002 	b	300048a8 <.text._ftoa+0x550>
3000489c:	e51b3064 	ldr	r3, [fp, #-100]
300048a0:	e2833001 	add	r3, r3, #1	; 0x1
300048a4:	e50b3064 	str	r3, [fp, #-100]
300048a8:	e59b300c 	ldr	r3, [fp, #12]
300048ac:	e3530000 	cmp	r3, #0	; 0x0
300048b0:	1a00002b 	bne	30004964 <.text._ftoa+0x60c>
300048b4:	e3e0303b 	mvn	r3, #59	; 0x3b
300048b8:	e24b0014 	sub	r0, fp, #20	; 0x14
300048bc:	e0805003 	add	r5, r0, r3
300048c0:	e51b0058 	ldr	r0, [fp, #-88]
300048c4:	ebfff415 	bl	30001920 <__floatsidf>
300048c8:	e1a04001 	mov	r4, r1
300048cc:	e1a03000 	mov	r3, r0
300048d0:	e99b0003 	ldmib	fp, {r0, r1}
300048d4:	e1a02003 	mov	r2, r3
300048d8:	e1a03004 	mov	r3, r4
300048dc:	ebfff34b 	bl	30001610 <__subdf3>
300048e0:	e1a04001 	mov	r4, r1
300048e4:	e1a03000 	mov	r3, r0
300048e8:	e8850018 	stmia	r5, {r3, r4}
300048ec:	e3e0303b 	mvn	r3, #59	; 0x3b
300048f0:	e24b1014 	sub	r1, fp, #20	; 0x14
300048f4:	e0813003 	add	r3, r1, r3
300048f8:	e8930003 	ldmia	r3, {r0, r1}
300048fc:	e24f2fa2 	sub	r2, pc, #648	; 0x288
30004900:	e892000c 	ldmia	r2, {r2, r3}
30004904:	ebfff585 	bl	30001f20 <__ledf2>
30004908:	e1a03000 	mov	r3, r0
3000490c:	e3530000 	cmp	r3, #0	; 0x0
30004910:	ba000000 	blt	30004918 <.text._ftoa+0x5c0>
30004914:	ea00000a 	b	30004944 <.text._ftoa+0x5ec>
30004918:	e3e0303b 	mvn	r3, #59	; 0x3b
3000491c:	e24b2014 	sub	r2, fp, #20	; 0x14
30004920:	e0823003 	add	r3, r2, r3
30004924:	e8930003 	ldmia	r3, {r0, r1}
30004928:	e24f2fad 	sub	r2, pc, #692	; 0x2b4
3000492c:	e892000c 	ldmia	r2, {r2, r3}
30004930:	ebfff578 	bl	30001f18 <__gedf2>
30004934:	e1a03000 	mov	r3, r0
30004938:	e3530000 	cmp	r3, #0	; 0x0
3000493c:	ca000000 	bgt	30004944 <.text._ftoa+0x5ec>
30004940:	ea00004c 	b	30004a78 <.text._ftoa+0x720>
30004944:	e51b3058 	ldr	r3, [fp, #-88]
30004948:	e2033001 	and	r3, r3, #1	; 0x1
3000494c:	e3530000 	cmp	r3, #0	; 0x0
30004950:	0a000048 	beq	30004a78 <.text._ftoa+0x720>
30004954:	e51b3058 	ldr	r3, [fp, #-88]
30004958:	e2833001 	add	r3, r3, #1	; 0x1
3000495c:	e50b3058 	str	r3, [fp, #-88]
30004960:	ea000044 	b	30004a78 <.text._ftoa+0x720>
30004964:	e59b300c 	ldr	r3, [fp, #12]
30004968:	e50b3068 	str	r3, [fp, #-104]
3000496c:	e51b3048 	ldr	r3, [fp, #-72]
30004970:	e353001f 	cmp	r3, #31	; 0x1f
30004974:	8a00001d 	bhi	300049f0 <.text._ftoa+0x698>
30004978:	e51b3068 	ldr	r3, [fp, #-104]
3000497c:	e2433001 	sub	r3, r3, #1	; 0x1
30004980:	e50b3068 	str	r3, [fp, #-104]
30004984:	e24bc048 	sub	ip, fp, #72	; 0x48
30004988:	e59c1000 	ldr	r1, [ip]
3000498c:	e3e0202f 	mvn	r2, #47	; 0x2f
30004990:	e1a03001 	mov	r3, r1
30004994:	e24b0014 	sub	r0, fp, #20	; 0x14
30004998:	e0833000 	add	r3, r3, r0
3000499c:	e083e002 	add	lr, r3, r2
300049a0:	e51b0064 	ldr	r0, [fp, #-100]
300049a4:	e51f3340 	ldr	r3, [pc, #-832]	; 3000466c <.text._ftoa+0x314>
300049a8:	e0832390 	umull	r2, r3, r0, r3
300049ac:	e1a021a3 	mov	r2, r3, lsr #3
300049b0:	e1a03002 	mov	r3, r2
300049b4:	e1a03103 	mov	r3, r3, lsl #2
300049b8:	e0833002 	add	r3, r3, r2
300049bc:	e1a03083 	mov	r3, r3, lsl #1
300049c0:	e0633000 	rsb	r3, r3, r0
300049c4:	e2833030 	add	r3, r3, #48	; 0x30
300049c8:	e5ce3000 	strb	r3, [lr]
300049cc:	e2811001 	add	r1, r1, #1	; 0x1
300049d0:	e58c1000 	str	r1, [ip]
300049d4:	e51b2064 	ldr	r2, [fp, #-100]
300049d8:	e51f3374 	ldr	r3, [pc, #-884]	; 3000466c <.text._ftoa+0x314>
300049dc:	e083c392 	umull	ip, r3, r2, r3
300049e0:	e1a031a3 	mov	r3, r3, lsr #3
300049e4:	e50b3064 	str	r3, [fp, #-100]
300049e8:	e3530000 	cmp	r3, #0	; 0x0
300049ec:	1affffde 	bne	3000496c <.text._ftoa+0x614>
300049f0:	e51b3048 	ldr	r3, [fp, #-72]
300049f4:	e353001f 	cmp	r3, #31	; 0x1f
300049f8:	8a000010 	bhi	30004a40 <.text._ftoa+0x6e8>
300049fc:	e51b3068 	ldr	r3, [fp, #-104]
30004a00:	e2433001 	sub	r3, r3, #1	; 0x1
30004a04:	e50b3068 	str	r3, [fp, #-104]
30004a08:	e3730001 	cmn	r3, #1	; 0x1
30004a0c:	0a00000b 	beq	30004a40 <.text._ftoa+0x6e8>
30004a10:	e24b0048 	sub	r0, fp, #72	; 0x48
30004a14:	e5902000 	ldr	r2, [r0]
30004a18:	e3e0102f 	mvn	r1, #47	; 0x2f
30004a1c:	e1a03002 	mov	r3, r2
30004a20:	e24bc014 	sub	ip, fp, #20	; 0x14
30004a24:	e083300c 	add	r3, r3, ip
30004a28:	e0831001 	add	r1, r3, r1
30004a2c:	e3a03030 	mov	r3, #48	; 0x30
30004a30:	e5c13000 	strb	r3, [r1]
30004a34:	e2822001 	add	r2, r2, #1	; 0x1
30004a38:	e5802000 	str	r2, [r0]
30004a3c:	eaffffeb 	b	300049f0 <.text._ftoa+0x698>
30004a40:	e51b3048 	ldr	r3, [fp, #-72]
30004a44:	e353001f 	cmp	r3, #31	; 0x1f
30004a48:	8a00000a 	bhi	30004a78 <.text._ftoa+0x720>
30004a4c:	e24b0048 	sub	r0, fp, #72	; 0x48
30004a50:	e5902000 	ldr	r2, [r0]
30004a54:	e3e0102f 	mvn	r1, #47	; 0x2f
30004a58:	e1a03002 	mov	r3, r2
30004a5c:	e24bc014 	sub	ip, fp, #20	; 0x14
30004a60:	e083300c 	add	r3, r3, ip
30004a64:	e0831001 	add	r1, r3, r1
30004a68:	e3a0302e 	mov	r3, #46	; 0x2e
30004a6c:	e5c13000 	strb	r3, [r1]
30004a70:	e2822001 	add	r2, r2, #1	; 0x1
30004a74:	e5802000 	str	r2, [r0]
30004a78:	e51b3048 	ldr	r3, [fp, #-72]
30004a7c:	e353001f 	cmp	r3, #31	; 0x1f
30004a80:	8a00001e 	bhi	30004b00 <.text._ftoa+0x7a8>
30004a84:	e24bc048 	sub	ip, fp, #72	; 0x48
30004a88:	e59c0000 	ldr	r0, [ip]
30004a8c:	e3e0202f 	mvn	r2, #47	; 0x2f
30004a90:	e1a03000 	mov	r3, r0
30004a94:	e24b1014 	sub	r1, fp, #20	; 0x14
30004a98:	e0833001 	add	r3, r3, r1
30004a9c:	e083e002 	add	lr, r3, r2
30004aa0:	e51b1058 	ldr	r1, [fp, #-88]
30004aa4:	e51f343c 	ldr	r3, [pc, #-1084]	; 30004670 <.text._ftoa+0x318>
30004aa8:	e0c32391 	smull	r2, r3, r1, r3
30004aac:	e1a02143 	mov	r2, r3, asr #2
30004ab0:	e1a03fc1 	mov	r3, r1, asr #31
30004ab4:	e0632002 	rsb	r2, r3, r2
30004ab8:	e1a03002 	mov	r3, r2
30004abc:	e1a03103 	mov	r3, r3, lsl #2
30004ac0:	e0833002 	add	r3, r3, r2
30004ac4:	e1a03083 	mov	r3, r3, lsl #1
30004ac8:	e0633001 	rsb	r3, r3, r1
30004acc:	e2833030 	add	r3, r3, #48	; 0x30
30004ad0:	e5ce3000 	strb	r3, [lr]
30004ad4:	e2800001 	add	r0, r0, #1	; 0x1
30004ad8:	e58c0000 	str	r0, [ip]
30004adc:	e51b1058 	ldr	r1, [fp, #-88]
30004ae0:	e51f3478 	ldr	r3, [pc, #-1144]	; 30004670 <.text._ftoa+0x318>
30004ae4:	e0c3c391 	smull	ip, r3, r1, r3
30004ae8:	e1a02143 	mov	r2, r3, asr #2
30004aec:	e1a03fc1 	mov	r3, r1, asr #31
30004af0:	e0633002 	rsb	r3, r3, r2
30004af4:	e50b3058 	str	r3, [fp, #-88]
30004af8:	e3530000 	cmp	r3, #0	; 0x0
30004afc:	1affffdd 	bne	30004a78 <.text._ftoa+0x720>
30004b00:	e59b3014 	ldr	r3, [fp, #20]
30004b04:	e2033002 	and	r3, r3, #2	; 0x2
30004b08:	e3530000 	cmp	r3, #0	; 0x0
30004b0c:	1a000024 	bne	30004ba4 <.text._ftoa+0x84c>
30004b10:	e59b3014 	ldr	r3, [fp, #20]
30004b14:	e2033001 	and	r3, r3, #1	; 0x1
30004b18:	e3530000 	cmp	r3, #0	; 0x0
30004b1c:	0a000020 	beq	30004ba4 <.text._ftoa+0x84c>
30004b20:	e59b3010 	ldr	r3, [fp, #16]
30004b24:	e3530000 	cmp	r3, #0	; 0x0
30004b28:	0a00000a 	beq	30004b58 <.text._ftoa+0x800>
30004b2c:	e55b3051 	ldrb	r3, [fp, #-81]
30004b30:	e3530000 	cmp	r3, #0	; 0x0
30004b34:	1a000004 	bne	30004b4c <.text._ftoa+0x7f4>
30004b38:	e59b3014 	ldr	r3, [fp, #20]
30004b3c:	e203300c 	and	r3, r3, #12	; 0xc
30004b40:	e3530000 	cmp	r3, #0	; 0x0
30004b44:	1a000000 	bne	30004b4c <.text._ftoa+0x7f4>
30004b48:	ea000002 	b	30004b58 <.text._ftoa+0x800>
30004b4c:	e59b3010 	ldr	r3, [fp, #16]
30004b50:	e2433001 	sub	r3, r3, #1	; 0x1
30004b54:	e58b3010 	str	r3, [fp, #16]
30004b58:	e51b2048 	ldr	r2, [fp, #-72]
30004b5c:	e59b3010 	ldr	r3, [fp, #16]
30004b60:	e1520003 	cmp	r2, r3
30004b64:	2a00000e 	bcs	30004ba4 <.text._ftoa+0x84c>
30004b68:	e51b3048 	ldr	r3, [fp, #-72]
30004b6c:	e353001f 	cmp	r3, #31	; 0x1f
30004b70:	8a00000b 	bhi	30004ba4 <.text._ftoa+0x84c>
30004b74:	e24b0048 	sub	r0, fp, #72	; 0x48
30004b78:	e5902000 	ldr	r2, [r0]
30004b7c:	e3e0102f 	mvn	r1, #47	; 0x2f
30004b80:	e1a03002 	mov	r3, r2
30004b84:	e24bc014 	sub	ip, fp, #20	; 0x14
30004b88:	e083300c 	add	r3, r3, ip
30004b8c:	e0831001 	add	r1, r3, r1
30004b90:	e3a03030 	mov	r3, #48	; 0x30
30004b94:	e5c13000 	strb	r3, [r1]
30004b98:	e2822001 	add	r2, r2, #1	; 0x1
30004b9c:	e5802000 	str	r2, [r0]
30004ba0:	eaffffec 	b	30004b58 <.text._ftoa+0x800>
30004ba4:	e51b3048 	ldr	r3, [fp, #-72]
30004ba8:	e353001f 	cmp	r3, #31	; 0x1f
30004bac:	8a00002d 	bhi	30004c68 <.text._ftoa+0x910>
30004bb0:	e55b3051 	ldrb	r3, [fp, #-81]
30004bb4:	e3530000 	cmp	r3, #0	; 0x0
30004bb8:	0a00000b 	beq	30004bec <.text._ftoa+0x894>
30004bbc:	e24b0048 	sub	r0, fp, #72	; 0x48
30004bc0:	e5902000 	ldr	r2, [r0]
30004bc4:	e3e0102f 	mvn	r1, #47	; 0x2f
30004bc8:	e1a03002 	mov	r3, r2
30004bcc:	e24bc014 	sub	ip, fp, #20	; 0x14
30004bd0:	e083300c 	add	r3, r3, ip
30004bd4:	e0831001 	add	r1, r3, r1
30004bd8:	e3a0302d 	mov	r3, #45	; 0x2d
30004bdc:	e5c13000 	strb	r3, [r1]
30004be0:	e2822001 	add	r2, r2, #1	; 0x1
30004be4:	e5802000 	str	r2, [r0]
30004be8:	ea00001e 	b	30004c68 <.text._ftoa+0x910>
30004bec:	e59b3014 	ldr	r3, [fp, #20]
30004bf0:	e2033004 	and	r3, r3, #4	; 0x4
30004bf4:	e3530000 	cmp	r3, #0	; 0x0
30004bf8:	0a00000b 	beq	30004c2c <.text._ftoa+0x8d4>
30004bfc:	e24b0048 	sub	r0, fp, #72	; 0x48
30004c00:	e5902000 	ldr	r2, [r0]
30004c04:	e3e0102f 	mvn	r1, #47	; 0x2f
30004c08:	e1a03002 	mov	r3, r2
30004c0c:	e24bc014 	sub	ip, fp, #20	; 0x14
30004c10:	e083300c 	add	r3, r3, ip
30004c14:	e0831001 	add	r1, r3, r1
30004c18:	e3a0302b 	mov	r3, #43	; 0x2b
30004c1c:	e5c13000 	strb	r3, [r1]
30004c20:	e2822001 	add	r2, r2, #1	; 0x1
30004c24:	e5802000 	str	r2, [r0]
30004c28:	ea00000e 	b	30004c68 <.text._ftoa+0x910>
30004c2c:	e59b3014 	ldr	r3, [fp, #20]
30004c30:	e2033008 	and	r3, r3, #8	; 0x8
30004c34:	e3530000 	cmp	r3, #0	; 0x0
30004c38:	0a00000a 	beq	30004c68 <.text._ftoa+0x910>
30004c3c:	e24b0048 	sub	r0, fp, #72	; 0x48
30004c40:	e5902000 	ldr	r2, [r0]
30004c44:	e3e0102f 	mvn	r1, #47	; 0x2f
30004c48:	e1a03002 	mov	r3, r2
30004c4c:	e24bc014 	sub	ip, fp, #20	; 0x14
30004c50:	e083300c 	add	r3, r3, ip
30004c54:	e0831001 	add	r1, r3, r1
30004c58:	e3a03020 	mov	r3, #32	; 0x20
30004c5c:	e5c13000 	strb	r3, [r1]
30004c60:	e2822001 	add	r2, r2, #1	; 0x1
30004c64:	e5802000 	str	r2, [r0]
30004c68:	e24b3044 	sub	r3, fp, #68	; 0x44
30004c6c:	e58d3000 	str	r3, [sp]
30004c70:	e51b3048 	ldr	r3, [fp, #-72]
30004c74:	e58d3004 	str	r3, [sp, #4]
30004c78:	e59b3010 	ldr	r3, [fp, #16]
30004c7c:	e58d3008 	str	r3, [sp, #8]
30004c80:	e59b3014 	ldr	r3, [fp, #20]
30004c84:	e58d300c 	str	r3, [sp, #12]
30004c88:	e51b0018 	ldr	r0, [fp, #-24]
30004c8c:	e51b101c 	ldr	r1, [fp, #-28]
30004c90:	e51b2020 	ldr	r2, [fp, #-32]
30004c94:	e51b3024 	ldr	r3, [fp, #-36]
30004c98:	ebfffb9a 	bl	30003b08 <_out_rev>
30004c9c:	e1a03000 	mov	r3, r0
30004ca0:	e50b306c 	str	r3, [fp, #-108]
30004ca4:	e51b006c 	ldr	r0, [fp, #-108]
30004ca8:	e24bd014 	sub	sp, fp, #20	; 0x14
30004cac:	e89da830 	ldmia	sp, {r4, r5, fp, sp, pc}
Disassembly of section .text._etoa:

30004cb0 <_etoa>:
30004cb0:	e1a0c00d 	mov	ip, sp
30004cb4:	e92ddff0 	stmdb	sp!, {r4, r5, r6, r7, r8, r9, sl, fp, ip, lr, pc}
30004cb8:	e24cb004 	sub	fp, ip, #4	; 0x4
30004cbc:	e24dd07c 	sub	sp, sp, #124	; 0x7c
30004cc0:	e50b002c 	str	r0, [fp, #-44]
30004cc4:	e50b1030 	str	r1, [fp, #-48]
30004cc8:	e50b2034 	str	r2, [fp, #-52]
30004ccc:	e50b3038 	str	r3, [fp, #-56]
30004cd0:	e99b0003 	ldmib	fp, {r0, r1}
30004cd4:	e99b000c 	ldmib	fp, {r2, r3}
30004cd8:	ebfff492 	bl	30001f28 <__cmpdf2>
30004cdc:	e1a03000 	mov	r3, r0
30004ce0:	e3530000 	cmp	r3, #0	; 0x0
30004ce4:	1a00000e 	bne	30004d24 <_etoa+0x74>
30004ce8:	e99b0003 	ldmib	fp, {r0, r1}
30004cec:	e28f2098 	add	r2, pc, #152	; 0x98
30004cf0:	e892000c 	ldmia	r2, {r2, r3}
30004cf4:	ebfff487 	bl	30001f18 <__gedf2>
30004cf8:	e1a03000 	mov	r3, r0
30004cfc:	e3530000 	cmp	r3, #0	; 0x0
30004d00:	ca000007 	bgt	30004d24 <_etoa+0x74>
30004d04:	e99b0003 	ldmib	fp, {r0, r1}
30004d08:	e28f2084 	add	r2, pc, #132	; 0x84
30004d0c:	e892000c 	ldmia	r2, {r2, r3}
30004d10:	ebfff482 	bl	30001f20 <__ledf2>
30004d14:	e1a03000 	mov	r3, r0
30004d18:	e3530000 	cmp	r3, #0	; 0x0
30004d1c:	ba000000 	blt	30004d24 <_etoa+0x74>
30004d20:	ea00000f 	b	30004d64 <_etoa+0xb4>
30004d24:	e99b0018 	ldmib	fp, {r3, r4}
30004d28:	e88d0018 	stmia	sp, {r3, r4}
30004d2c:	e59b300c 	ldr	r3, [fp, #12]
30004d30:	e58d3008 	str	r3, [sp, #8]
30004d34:	e59b3010 	ldr	r3, [fp, #16]
30004d38:	e58d300c 	str	r3, [sp, #12]
30004d3c:	e59b3014 	ldr	r3, [fp, #20]
30004d40:	e58d3010 	str	r3, [sp, #16]
30004d44:	e51b002c 	ldr	r0, [fp, #-44]
30004d48:	e51b1030 	ldr	r1, [fp, #-48]
30004d4c:	e51b2034 	ldr	r2, [fp, #-52]
30004d50:	e51b3038 	ldr	r3, [fp, #-56]
30004d54:	ebfffd7f 	bl	30004358 <_ftoa>
30004d58:	e1a03000 	mov	r3, r0
30004d5c:	e50b306c 	str	r3, [fp, #-108]
30004d60:	ea000234 	b	30005638 <.text._etoa+0x988>
30004d64:	e3a03000 	mov	r3, #0	; 0x0
30004d68:	e54b306d 	strb	r3, [fp, #-109]
30004d6c:	e99b0003 	ldmib	fp, {r0, r1}
30004d70:	e28f2024 	add	r2, pc, #36	; 0x24
30004d74:	e892000c 	ldmia	r2, {r2, r3}
30004d78:	ebfff468 	bl	30001f20 <__ledf2>
30004d7c:	e1a03000 	mov	r3, r0
30004d80:	e3530000 	cmp	r3, #0	; 0x0
30004d84:	ba000022 	blt	30004e14 <.text._etoa+0x164>
30004d88:	ea000023 	b	30004e1c <.text._etoa+0x16c>
30004d8c:	7fefffff 	swivc	0x00efffff
30004d90:	ffffffff 	swinv	0x00ffffff
30004d94:	ffefffff 	swinv	0x00efffff
30004d98:	ffffffff 	swinv	0x00ffffff
	...
30004da4:	80000000 	andhi	r0, r0, r0
30004da8:	00000000 	andeq	r0, r0, r0
30004dac:	ffffffff 	swinv	0x00ffffff
30004db0:	000fffff 	streqd	pc, [pc], -pc
30004db4:	00000000 	andeq	r0, r0, r0
30004db8:	3ff00000 	swicc	0x00f00000	; IMB
30004dbc:	3fd34413 	swicc	0x00d34413
30004dc0:	509f79fb 	ldrplsh	r7, [pc], fp
30004dc4:	3fc68a28 	swicc	0x00c68a28
30004dc8:	8b60c8b3 	blhi	3183709c <__bss_end+0x1830094>
30004dcc:	3ff80000 	swicc	0x00f80000
30004dd0:	00000000 	andeq	r0, r0, r0
30004dd4:	3fd287a7 	swicc	0x00d287a7
30004dd8:	636f4361 	cmnvs	pc, #-2080374783	; 0x84000001
30004ddc:	400a934f 	andmi	r9, sl, pc, asr #6
30004de0:	0979a371 	ldmeqdb	r9!, {r0, r4, r5, r6, r8, r9, sp, pc}^
30004de4:	3fe00000 	swicc	0x00e00000
30004de8:	00000000 	andeq	r0, r0, r0
30004dec:	40026bb1 	strmih	r6, [r2], -r1
30004df0:	bbb55516 	bllt	2ed5a250 <__code_start-0x12a5db0>
30004df4:	3fe62e42 	swicc	0x00e62e42
30004df8:	fefa39ef 	cdp2	9, 15, cr3, cr10, cr15, {7}
30004dfc:	40000000 	andmi	r0, r0, r0
30004e00:	00000000 	andeq	r0, r0, r0
30004e04:	402c0000 	eormi	r0, ip, r0
30004e08:	00000000 	andeq	r0, r0, r0
30004e0c:	40240000 	eormi	r0, r4, r0
30004e10:	00000000 	andeq	r0, r0, r0
30004e14:	e3a03001 	mov	r3, #1	; 0x1
30004e18:	e54b306d 	strb	r3, [fp, #-109]
30004e1c:	e55b106d 	ldrb	r1, [fp, #-109]
30004e20:	e54b1039 	strb	r1, [fp, #-57]
30004e24:	e55b3039 	ldrb	r3, [fp, #-57]
30004e28:	e3530000 	cmp	r3, #0	; 0x0
30004e2c:	0a000005 	beq	30004e48 <.text._etoa+0x198>
30004e30:	e99b0006 	ldmib	fp, {r1, r2}
30004e34:	e24f3098 	sub	r3, pc, #152	; 0x98
30004e38:	e8930018 	ldmia	r3, {r3, r4}
30004e3c:	e0233001 	eor	r3, r3, r1
30004e40:	e0244002 	eor	r4, r4, r2
30004e44:	e98b0018 	stmib	fp, {r3, r4}
30004e48:	e59b3014 	ldr	r3, [fp, #20]
30004e4c:	e2033b01 	and	r3, r3, #1024	; 0x400
30004e50:	e3530000 	cmp	r3, #0	; 0x0
30004e54:	1a000001 	bne	30004e60 <.text._etoa+0x1b0>
30004e58:	e3a03006 	mov	r3, #6	; 0x6
30004e5c:	e58b300c 	str	r3, [fp, #12]
30004e60:	e3e0301b 	mvn	r3, #27	; 0x1b
30004e64:	e24b4028 	sub	r4, fp, #40	; 0x28
30004e68:	e0842003 	add	r2, r4, r3
30004e6c:	e99b0018 	ldmib	fp, {r3, r4}
30004e70:	e8820018 	stmia	r2, {r3, r4}
30004e74:	e3e0301b 	mvn	r3, #27	; 0x1b
30004e78:	e24b1028 	sub	r1, fp, #40	; 0x28
30004e7c:	e0813003 	add	r3, r1, r3
30004e80:	e5932004 	ldr	r2, [r3, #4]
30004e84:	e1a03a22 	mov	r3, r2, lsr #20
30004e88:	e3a04000 	mov	r4, #0	; 0x0
30004e8c:	e1a03a83 	mov	r3, r3, lsl #21
30004e90:	e1a03aa3 	mov	r3, r3, lsr #21
30004e94:	e2433fff 	sub	r3, r3, #1020	; 0x3fc
30004e98:	e2433003 	sub	r3, r3, #3	; 0x3
30004e9c:	e50b3048 	str	r3, [fp, #-72]
30004ea0:	e3e0301b 	mvn	r3, #27	; 0x1b
30004ea4:	e24b2028 	sub	r2, fp, #40	; 0x28
30004ea8:	e0820003 	add	r0, r2, r3
30004eac:	e3e0301b 	mvn	r3, #27	; 0x1b
30004eb0:	e24b4028 	sub	r4, fp, #40	; 0x28
30004eb4:	e0843003 	add	r3, r4, r3
30004eb8:	e8930006 	ldmia	r3, {r1, r2}
30004ebc:	e24f3f46 	sub	r3, pc, #280	; 0x118
30004ec0:	e8930018 	ldmia	r3, {r3, r4}
30004ec4:	e0011003 	and	r1, r1, r3
30004ec8:	e0022004 	and	r2, r2, r4
30004ecc:	e24f3e12 	sub	r3, pc, #288	; 0x120
30004ed0:	e8930018 	ldmia	r3, {r3, r4}
30004ed4:	e1833001 	orr	r3, r3, r1
30004ed8:	e1844002 	orr	r4, r4, r2
30004edc:	e8800018 	stmia	r0, {r3, r4}
30004ee0:	e51b0048 	ldr	r0, [fp, #-72]
30004ee4:	ebfff28d 	bl	30001920 <__floatsidf>
30004ee8:	e1a04001 	mov	r4, r1
30004eec:	e1a03000 	mov	r3, r0
30004ef0:	e1a01004 	mov	r1, r4
30004ef4:	e1a00003 	mov	r0, r3
30004ef8:	e24f2f51 	sub	r2, pc, #324	; 0x144
30004efc:	e892000c 	ldmia	r2, {r2, r3}
30004f00:	ebfff2a4 	bl	30001998 <__muldf3>
30004f04:	e1a04001 	mov	r4, r1
30004f08:	e1a03000 	mov	r3, r0
30004f0c:	e1a01004 	mov	r1, r4
30004f10:	e1a00003 	mov	r0, r3
30004f14:	e24f2f56 	sub	r2, pc, #344	; 0x158
30004f18:	e892000c 	ldmia	r2, {r2, r3}
30004f1c:	ebfff1bc 	bl	30001614 <__adddf3>
30004f20:	e1a06001 	mov	r6, r1
30004f24:	e1a05000 	mov	r5, r0
30004f28:	e3e0301b 	mvn	r3, #27	; 0x1b
30004f2c:	e24b1028 	sub	r1, fp, #40	; 0x28
30004f30:	e0813003 	add	r3, r1, r3
30004f34:	e8930003 	ldmia	r3, {r0, r1}
30004f38:	e24f2f5d 	sub	r2, pc, #372	; 0x174
30004f3c:	e892000c 	ldmia	r2, {r2, r3}
30004f40:	ebfff1b2 	bl	30001610 <__subdf3>
30004f44:	e1a04001 	mov	r4, r1
30004f48:	e1a03000 	mov	r3, r0
30004f4c:	e1a01004 	mov	r1, r4
30004f50:	e1a00003 	mov	r0, r3
30004f54:	e24f2f62 	sub	r2, pc, #392	; 0x188
30004f58:	e892000c 	ldmia	r2, {r2, r3}
30004f5c:	ebfff28d 	bl	30001998 <__muldf3>
30004f60:	e1a04001 	mov	r4, r1
30004f64:	e1a03000 	mov	r3, r0
30004f68:	e1a01006 	mov	r1, r6
30004f6c:	e1a00005 	mov	r0, r5
30004f70:	e1a02003 	mov	r2, r3
30004f74:	e1a03004 	mov	r3, r4
30004f78:	ebfff1a5 	bl	30001614 <__adddf3>
30004f7c:	e1a04001 	mov	r4, r1
30004f80:	e1a03000 	mov	r3, r0
30004f84:	e1a01004 	mov	r1, r4
30004f88:	e1a00003 	mov	r0, r3
30004f8c:	ebfff40a 	bl	30001fbc <__fixdfsi>
30004f90:	e1a03000 	mov	r3, r0
30004f94:	e50b304c 	str	r3, [fp, #-76]
30004f98:	e51b004c 	ldr	r0, [fp, #-76]
30004f9c:	ebfff25f 	bl	30001920 <__floatsidf>
30004fa0:	e1a04001 	mov	r4, r1
30004fa4:	e1a03000 	mov	r3, r0
30004fa8:	e1a01004 	mov	r1, r4
30004fac:	e1a00003 	mov	r0, r3
30004fb0:	e24f2f77 	sub	r2, pc, #476	; 0x1dc
30004fb4:	e892000c 	ldmia	r2, {r2, r3}
30004fb8:	ebfff276 	bl	30001998 <__muldf3>
30004fbc:	e1a04001 	mov	r4, r1
30004fc0:	e1a03000 	mov	r3, r0
30004fc4:	e1a01004 	mov	r1, r4
30004fc8:	e1a00003 	mov	r0, r3
30004fcc:	e24f2e1f 	sub	r2, pc, #496	; 0x1f0
30004fd0:	e892000c 	ldmia	r2, {r2, r3}
30004fd4:	ebfff18e 	bl	30001614 <__adddf3>
30004fd8:	e1a04001 	mov	r4, r1
30004fdc:	e1a03000 	mov	r3, r0
30004fe0:	e1a01004 	mov	r1, r4
30004fe4:	e1a00003 	mov	r0, r3
30004fe8:	ebfff3f3 	bl	30001fbc <__fixdfsi>
30004fec:	e1a03000 	mov	r3, r0
30004ff0:	e50b3048 	str	r3, [fp, #-72]
30004ff4:	e3e0302b 	mvn	r3, #43	; 0x2b
30004ff8:	e24b2028 	sub	r2, fp, #40	; 0x28
30004ffc:	e0827003 	add	r7, r2, r3
30005000:	e51b004c 	ldr	r0, [fp, #-76]
30005004:	ebfff245 	bl	30001920 <__floatsidf>
30005008:	e1a04001 	mov	r4, r1
3000500c:	e1a03000 	mov	r3, r0
30005010:	e1a01004 	mov	r1, r4
30005014:	e1a00003 	mov	r0, r3
30005018:	e24f2f8d 	sub	r2, pc, #564	; 0x234
3000501c:	e892000c 	ldmia	r2, {r2, r3}
30005020:	ebfff25c 	bl	30001998 <__muldf3>
30005024:	e1a06001 	mov	r6, r1
30005028:	e1a05000 	mov	r5, r0
3000502c:	e51b0048 	ldr	r0, [fp, #-72]
30005030:	ebfff23a 	bl	30001920 <__floatsidf>
30005034:	e1a04001 	mov	r4, r1
30005038:	e1a03000 	mov	r3, r0
3000503c:	e1a01004 	mov	r1, r4
30005040:	e1a00003 	mov	r0, r3
30005044:	e24f2f96 	sub	r2, pc, #600	; 0x258
30005048:	e892000c 	ldmia	r2, {r2, r3}
3000504c:	ebfff251 	bl	30001998 <__muldf3>
30005050:	e1a04001 	mov	r4, r1
30005054:	e1a03000 	mov	r3, r0
30005058:	e1a01006 	mov	r1, r6
3000505c:	e1a00005 	mov	r0, r5
30005060:	e1a02003 	mov	r2, r3
30005064:	e1a03004 	mov	r3, r4
30005068:	ebfff168 	bl	30001610 <__subdf3>
3000506c:	e1a04001 	mov	r4, r1
30005070:	e1a03000 	mov	r3, r0
30005074:	e8870018 	stmia	r7, {r3, r4}
30005078:	e3e03033 	mvn	r3, #51	; 0x33
3000507c:	e24b4028 	sub	r4, fp, #40	; 0x28
30005080:	e0845003 	add	r5, r4, r3
30005084:	e3e0302b 	mvn	r3, #43	; 0x2b
30005088:	e24b1028 	sub	r1, fp, #40	; 0x28
3000508c:	e0813003 	add	r3, r1, r3
30005090:	e8930003 	ldmia	r3, {r0, r1}
30005094:	e893000c 	ldmia	r3, {r2, r3}
30005098:	ebfff23e 	bl	30001998 <__muldf3>
3000509c:	e1a04001 	mov	r4, r1
300050a0:	e1a03000 	mov	r3, r0
300050a4:	e8850018 	stmia	r5, {r3, r4}
300050a8:	e3e0301b 	mvn	r3, #27	; 0x1b
300050ac:	e24b4028 	sub	r4, fp, #40	; 0x28
300050b0:	e0842003 	add	r2, r4, r3
300050b4:	e51b3048 	ldr	r3, [fp, #-72]
300050b8:	e2833fff 	add	r3, r3, #1020	; 0x3fc
300050bc:	e2833003 	add	r3, r3, #3	; 0x3
300050c0:	e1a04fc3 	mov	r4, r3, asr #31
300050c4:	e1a03a03 	mov	r3, r3, lsl #20
300050c8:	e5823004 	str	r3, [r2, #4]
300050cc:	e3a03000 	mov	r3, #0	; 0x0
300050d0:	e5823000 	str	r3, [r2]
300050d4:	e3e0301b 	mvn	r3, #27	; 0x1b
300050d8:	e24b1028 	sub	r1, fp, #40	; 0x28
300050dc:	e0815003 	add	r5, r1, r3
300050e0:	e3e0301b 	mvn	r3, #27	; 0x1b
300050e4:	e24b2028 	sub	r2, fp, #40	; 0x28
300050e8:	e0826003 	add	r6, r2, r3
300050ec:	e3e0302b 	mvn	r3, #43	; 0x2b
300050f0:	e24b4028 	sub	r4, fp, #40	; 0x28
300050f4:	e0843003 	add	r3, r4, r3
300050f8:	e8930018 	ldmia	r3, {r3, r4}
300050fc:	e1a01004 	mov	r1, r4
30005100:	e1a00003 	mov	r0, r3
30005104:	e1a02003 	mov	r2, r3
30005108:	e1a03004 	mov	r3, r4
3000510c:	ebfff140 	bl	30001614 <__adddf3>
30005110:	e1a08001 	mov	r8, r1
30005114:	e1a07000 	mov	r7, r0
30005118:	e3e0302b 	mvn	r3, #43	; 0x2b
3000511c:	e24b1028 	sub	r1, fp, #40	; 0x28
30005120:	e0813003 	add	r3, r1, r3
30005124:	e24f0e33 	sub	r0, pc, #816	; 0x330
30005128:	e8900003 	ldmia	r0, {r0, r1}
3000512c:	e893000c 	ldmia	r3, {r2, r3}
30005130:	ebfff136 	bl	30001610 <__subdf3>
30005134:	e1a0a001 	mov	sl, r1
30005138:	e1a09000 	mov	r9, r0
3000513c:	e3e03033 	mvn	r3, #51	; 0x33
30005140:	e24b2028 	sub	r2, fp, #40	; 0x28
30005144:	e0822003 	add	r2, r2, r3
30005148:	e50b2074 	str	r2, [fp, #-116]
3000514c:	e3e03033 	mvn	r3, #51	; 0x33
30005150:	e24b4028 	sub	r4, fp, #40	; 0x28
30005154:	e0844003 	add	r4, r4, r3
30005158:	e50b4078 	str	r4, [fp, #-120]
3000515c:	e3e03033 	mvn	r3, #51	; 0x33
30005160:	e24b1028 	sub	r1, fp, #40	; 0x28
30005164:	e0813003 	add	r3, r1, r3
30005168:	e8930003 	ldmia	r3, {r0, r1}
3000516c:	e24f2e37 	sub	r2, pc, #880	; 0x370
30005170:	e892000c 	ldmia	r2, {r2, r3}
30005174:	ebfff2cc 	bl	30001cac <__divdf3>
30005178:	e1a04001 	mov	r4, r1
3000517c:	e1a03000 	mov	r3, r0
30005180:	e1a01004 	mov	r1, r4
30005184:	e1a00003 	mov	r0, r3
30005188:	e24f2fe1 	sub	r2, pc, #900	; 0x384
3000518c:	e892000c 	ldmia	r2, {r2, r3}
30005190:	ebfff11f 	bl	30001614 <__adddf3>
30005194:	e1a04001 	mov	r4, r1
30005198:	e1a03000 	mov	r3, r0
3000519c:	e51b2078 	ldr	r2, [fp, #-120]
300051a0:	e8920003 	ldmia	r2, {r0, r1}
300051a4:	e1a02003 	mov	r2, r3
300051a8:	e1a03004 	mov	r3, r4
300051ac:	ebfff2be 	bl	30001cac <__divdf3>
300051b0:	e1a04001 	mov	r4, r1
300051b4:	e1a03000 	mov	r3, r0
300051b8:	e1a01004 	mov	r1, r4
300051bc:	e1a00003 	mov	r0, r3
300051c0:	e28f2e33 	add	r2, pc, #816	; 0x330
300051c4:	e892000c 	ldmia	r2, {r2, r3}
300051c8:	ebfff111 	bl	30001614 <__adddf3>
300051cc:	e1a04001 	mov	r4, r1
300051d0:	e1a03000 	mov	r3, r0
300051d4:	e51b2074 	ldr	r2, [fp, #-116]
300051d8:	e8920003 	ldmia	r2, {r0, r1}
300051dc:	e1a02003 	mov	r2, r3
300051e0:	e1a03004 	mov	r3, r4
300051e4:	ebfff2b0 	bl	30001cac <__divdf3>
300051e8:	e1a04001 	mov	r4, r1
300051ec:	e1a03000 	mov	r3, r0
300051f0:	e1a0100a 	mov	r1, sl
300051f4:	e1a00009 	mov	r0, r9
300051f8:	e1a02003 	mov	r2, r3
300051fc:	e1a03004 	mov	r3, r4
30005200:	ebfff103 	bl	30001614 <__adddf3>
30005204:	e1a04001 	mov	r4, r1
30005208:	e1a03000 	mov	r3, r0
3000520c:	e1a01008 	mov	r1, r8
30005210:	e1a00007 	mov	r0, r7
30005214:	e1a02003 	mov	r2, r3
30005218:	e1a03004 	mov	r3, r4
3000521c:	ebfff2a2 	bl	30001cac <__divdf3>
30005220:	e1a04001 	mov	r4, r1
30005224:	e1a03000 	mov	r3, r0
30005228:	e1a01004 	mov	r1, r4
3000522c:	e1a00003 	mov	r0, r3
30005230:	e28f2fb2 	add	r2, pc, #712	; 0x2c8
30005234:	e892000c 	ldmia	r2, {r2, r3}
30005238:	ebfff0f5 	bl	30001614 <__adddf3>
3000523c:	e1a04001 	mov	r4, r1
30005240:	e1a03000 	mov	r3, r0
30005244:	e8960003 	ldmia	r6, {r0, r1}
30005248:	e1a02003 	mov	r2, r3
3000524c:	e1a03004 	mov	r3, r4
30005250:	ebfff1d0 	bl	30001998 <__muldf3>
30005254:	e1a04001 	mov	r4, r1
30005258:	e1a03000 	mov	r3, r0
3000525c:	e8850018 	stmia	r5, {r3, r4}
30005260:	e3e0301b 	mvn	r3, #27	; 0x1b
30005264:	e24b4028 	sub	r4, fp, #40	; 0x28
30005268:	e0843003 	add	r3, r4, r3
3000526c:	e8930003 	ldmia	r3, {r0, r1}
30005270:	e99b000c 	ldmib	fp, {r2, r3}
30005274:	ebfff327 	bl	30001f18 <__gedf2>
30005278:	e1a03000 	mov	r3, r0
3000527c:	e3530000 	cmp	r3, #0	; 0x0
30005280:	ca000000 	bgt	30005288 <.text._etoa+0x5d8>
30005284:	ea00000f 	b	300052c8 <.text._etoa+0x618>
30005288:	e51b304c 	ldr	r3, [fp, #-76]
3000528c:	e2433001 	sub	r3, r3, #1	; 0x1
30005290:	e50b304c 	str	r3, [fp, #-76]
30005294:	e3e0301b 	mvn	r3, #27	; 0x1b
30005298:	e24b1028 	sub	r1, fp, #40	; 0x28
3000529c:	e0815003 	add	r5, r1, r3
300052a0:	e3e0301b 	mvn	r3, #27	; 0x1b
300052a4:	e24b2028 	sub	r2, fp, #40	; 0x28
300052a8:	e0823003 	add	r3, r2, r3
300052ac:	e8930003 	ldmia	r3, {r0, r1}
300052b0:	e28f2e25 	add	r2, pc, #592	; 0x250
300052b4:	e892000c 	ldmia	r2, {r2, r3}
300052b8:	ebfff27b 	bl	30001cac <__divdf3>
300052bc:	e1a04001 	mov	r4, r1
300052c0:	e1a03000 	mov	r3, r0
300052c4:	e8850018 	stmia	r5, {r3, r4}
300052c8:	e51b304c 	ldr	r3, [fp, #-76]
300052cc:	e3530063 	cmp	r3, #99	; 0x63
300052d0:	ca000005 	bgt	300052ec <.text._etoa+0x63c>
300052d4:	e51b304c 	ldr	r3, [fp, #-76]
300052d8:	e3730064 	cmn	r3, #100	; 0x64
300052dc:	da000002 	ble	300052ec <.text._etoa+0x63c>
300052e0:	e3a03004 	mov	r3, #4	; 0x4
300052e4:	e50b307c 	str	r3, [fp, #-124]
300052e8:	ea000001 	b	300052f4 <.text._etoa+0x644>
300052ec:	e3a04005 	mov	r4, #5	; 0x5
300052f0:	e50b407c 	str	r4, [fp, #-124]
300052f4:	e51b107c 	ldr	r1, [fp, #-124]
300052f8:	e50b1060 	str	r1, [fp, #-96]
300052fc:	e59b3014 	ldr	r3, [fp, #20]
30005300:	e2033b02 	and	r3, r3, #2048	; 0x800
30005304:	e3530000 	cmp	r3, #0	; 0x0
30005308:	0a00002d 	beq	300053c4 <.text._etoa+0x714>
3000530c:	e99b0003 	ldmib	fp, {r0, r1}
30005310:	e28f2f7e 	add	r2, pc, #504	; 0x1f8
30005314:	e892000c 	ldmia	r2, {r2, r3}
30005318:	ebfff2fe 	bl	30001f18 <__gedf2>
3000531c:	e1a03000 	mov	r3, r0
30005320:	e3530000 	cmp	r3, #0	; 0x0
30005324:	aa000000 	bge	3000532c <.text._etoa+0x67c>
30005328:	ea00001b 	b	3000539c <.text._etoa+0x6ec>
3000532c:	e99b0003 	ldmib	fp, {r0, r1}
30005330:	e28f2e1e 	add	r2, pc, #480	; 0x1e0
30005334:	e892000c 	ldmia	r2, {r2, r3}
30005338:	ebfff2f8 	bl	30001f20 <__ledf2>
3000533c:	e1a03000 	mov	r3, r0
30005340:	e3530000 	cmp	r3, #0	; 0x0
30005344:	ba000000 	blt	3000534c <.text._etoa+0x69c>
30005348:	ea000013 	b	3000539c <.text._etoa+0x6ec>
3000534c:	e59b200c 	ldr	r2, [fp, #12]
30005350:	e51b304c 	ldr	r3, [fp, #-76]
30005354:	e1520003 	cmp	r2, r3
30005358:	da000005 	ble	30005374 <.text._etoa+0x6c4>
3000535c:	e59b200c 	ldr	r2, [fp, #12]
30005360:	e51b304c 	ldr	r3, [fp, #-76]
30005364:	e0633002 	rsb	r3, r3, r2
30005368:	e2433001 	sub	r3, r3, #1	; 0x1
3000536c:	e58b300c 	str	r3, [fp, #12]
30005370:	ea000001 	b	3000537c <.text._etoa+0x6cc>
30005374:	e3a03000 	mov	r3, #0	; 0x0
30005378:	e58b300c 	str	r3, [fp, #12]
3000537c:	e59b3014 	ldr	r3, [fp, #20]
30005380:	e3833b01 	orr	r3, r3, #1024	; 0x400
30005384:	e58b3014 	str	r3, [fp, #20]
30005388:	e3a03000 	mov	r3, #0	; 0x0
3000538c:	e50b3060 	str	r3, [fp, #-96]
30005390:	e3a03000 	mov	r3, #0	; 0x0
30005394:	e50b304c 	str	r3, [fp, #-76]
30005398:	ea000009 	b	300053c4 <.text._etoa+0x714>
3000539c:	e59b300c 	ldr	r3, [fp, #12]
300053a0:	e3530000 	cmp	r3, #0	; 0x0
300053a4:	0a000006 	beq	300053c4 <.text._etoa+0x714>
300053a8:	e59b3014 	ldr	r3, [fp, #20]
300053ac:	e2033b01 	and	r3, r3, #1024	; 0x400
300053b0:	e3530000 	cmp	r3, #0	; 0x0
300053b4:	0a000002 	beq	300053c4 <.text._etoa+0x714>
300053b8:	e59b300c 	ldr	r3, [fp, #12]
300053bc:	e2433001 	sub	r3, r3, #1	; 0x1
300053c0:	e58b300c 	str	r3, [fp, #12]
300053c4:	e59b3010 	ldr	r3, [fp, #16]
300053c8:	e50b3064 	str	r3, [fp, #-100]
300053cc:	e59b2010 	ldr	r2, [fp, #16]
300053d0:	e51b3060 	ldr	r3, [fp, #-96]
300053d4:	e1520003 	cmp	r2, r3
300053d8:	9a000004 	bls	300053f0 <.text._etoa+0x740>
300053dc:	e51b3064 	ldr	r3, [fp, #-100]
300053e0:	e51b2060 	ldr	r2, [fp, #-96]
300053e4:	e0623003 	rsb	r3, r2, r3
300053e8:	e50b3064 	str	r3, [fp, #-100]
300053ec:	ea000001 	b	300053f8 <.text._etoa+0x748>
300053f0:	e3a03000 	mov	r3, #0	; 0x0
300053f4:	e50b3064 	str	r3, [fp, #-100]
300053f8:	e59b3014 	ldr	r3, [fp, #20]
300053fc:	e2033002 	and	r3, r3, #2	; 0x2
30005400:	e3530000 	cmp	r3, #0	; 0x0
30005404:	0a000004 	beq	3000541c <.text._etoa+0x76c>
30005408:	e51b3060 	ldr	r3, [fp, #-96]
3000540c:	e3530000 	cmp	r3, #0	; 0x0
30005410:	0a000001 	beq	3000541c <.text._etoa+0x76c>
30005414:	e3a03000 	mov	r3, #0	; 0x0
30005418:	e50b3064 	str	r3, [fp, #-100]
3000541c:	e51b304c 	ldr	r3, [fp, #-76]
30005420:	e3530000 	cmp	r3, #0	; 0x0
30005424:	0a000008 	beq	3000544c <.text._etoa+0x79c>
30005428:	e3e0301b 	mvn	r3, #27	; 0x1b
3000542c:	e24b2028 	sub	r2, fp, #40	; 0x28
30005430:	e0823003 	add	r3, r2, r3
30005434:	e99b0003 	ldmib	fp, {r0, r1}
30005438:	e893000c 	ldmia	r3, {r2, r3}
3000543c:	ebfff21a 	bl	30001cac <__divdf3>
30005440:	e1a04001 	mov	r4, r1
30005444:	e1a03000 	mov	r3, r0
30005448:	e98b0018 	stmib	fp, {r3, r4}
3000544c:	e51b3034 	ldr	r3, [fp, #-52]
30005450:	e50b3068 	str	r3, [fp, #-104]
30005454:	e99b0018 	ldmib	fp, {r3, r4}
30005458:	e24b1080 	sub	r1, fp, #128	; 0x80
3000545c:	e8010018 	stmda	r1, {r3, r4}
30005460:	e55b3039 	ldrb	r3, [fp, #-57]
30005464:	e3530000 	cmp	r3, #0	; 0x0
30005468:	0a000007 	beq	3000548c <.text._etoa+0x7dc>
3000546c:	e28f30ac 	add	r3, pc, #172	; 0xac
30005470:	e8930018 	ldmia	r3, {r3, r4}
30005474:	e24b2080 	sub	r2, fp, #128	; 0x80
30005478:	e8120006 	ldmda	r2, {r1, r2}
3000547c:	e0233001 	eor	r3, r3, r1
30005480:	e0244002 	eor	r4, r4, r2
30005484:	e24b1080 	sub	r1, fp, #128	; 0x80
30005488:	e8010018 	stmda	r1, {r3, r4}
3000548c:	e24b3080 	sub	r3, fp, #128	; 0x80
30005490:	e813000c 	ldmda	r3, {r2, r3}
30005494:	e88d000c 	stmia	sp, {r2, r3}
30005498:	e59b300c 	ldr	r3, [fp, #12]
3000549c:	e58d3008 	str	r3, [sp, #8]
300054a0:	e51b3064 	ldr	r3, [fp, #-100]
300054a4:	e58d300c 	str	r3, [sp, #12]
300054a8:	e59b3014 	ldr	r3, [fp, #20]
300054ac:	e3c33b02 	bic	r3, r3, #2048	; 0x800
300054b0:	e58d3010 	str	r3, [sp, #16]
300054b4:	e51b002c 	ldr	r0, [fp, #-44]
300054b8:	e51b1030 	ldr	r1, [fp, #-48]
300054bc:	e51b2034 	ldr	r2, [fp, #-52]
300054c0:	e51b3038 	ldr	r3, [fp, #-56]
300054c4:	ebfffba3 	bl	30004358 <_ftoa>
300054c8:	e1a03000 	mov	r3, r0
300054cc:	e50b3034 	str	r3, [fp, #-52]
300054d0:	e51b3060 	ldr	r3, [fp, #-96]
300054d4:	e3530000 	cmp	r3, #0	; 0x0
300054d8:	0a000054 	beq	30005630 <.text._etoa+0x980>
300054dc:	e59b3014 	ldr	r3, [fp, #20]
300054e0:	e2033020 	and	r3, r3, #32	; 0x20
300054e4:	e3530000 	cmp	r3, #0	; 0x0
300054e8:	0a00000e 	beq	30005528 <.text._etoa+0x878>
300054ec:	e3a04045 	mov	r4, #69	; 0x45
300054f0:	e50b4088 	str	r4, [fp, #-136]
300054f4:	ea00000d 	b	30005530 <.text._etoa+0x880>
300054f8:	40180000 	andmis	r0, r8, r0
300054fc:	00000000 	andeq	r0, r0, r0
30005500:	3ff00000 	swicc	0x00f00000	; IMB
30005504:	00000000 	andeq	r0, r0, r0
30005508:	40240000 	eormi	r0, r4, r0
3000550c:	00000000 	andeq	r0, r0, r0
30005510:	3f1a36e2 	swicc	0x001a36e2
30005514:	eb1c432d 	bl	307161d0 <__bss_end+0x70f1c8>
30005518:	412e8480 	smlawbmi	lr, r0, r4, r8
3000551c:	00000000 	andeq	r0, r0, r0
30005520:	80000000 	andhi	r0, r0, r0
30005524:	00000000 	andeq	r0, r0, r0
30005528:	e3a01065 	mov	r1, #101	; 0x65
3000552c:	e50b1088 	str	r1, [fp, #-136]
30005530:	e24b2034 	sub	r2, fp, #52	; 0x34
30005534:	e5923000 	ldr	r3, [r2]
30005538:	e1a0e003 	mov	lr, r3
3000553c:	e2833001 	add	r3, r3, #1	; 0x1
30005540:	e5823000 	str	r3, [r2]
30005544:	e51bc02c 	ldr	ip, [fp, #-44]
30005548:	e51b0088 	ldr	r0, [fp, #-136]
3000554c:	e51b1030 	ldr	r1, [fp, #-48]
30005550:	e1a0200e 	mov	r2, lr
30005554:	e51b3038 	ldr	r3, [fp, #-56]
30005558:	e1a0e00f 	mov	lr, pc
3000555c:	e1a0f00c 	mov	pc, ip
30005560:	e51b204c 	ldr	r2, [fp, #-76]
30005564:	e50b208c 	str	r2, [fp, #-140]
30005568:	e51b304c 	ldr	r3, [fp, #-76]
3000556c:	e3530000 	cmp	r3, #0	; 0x0
30005570:	aa000002 	bge	30005580 <.text._etoa+0x8d0>
30005574:	e51b408c 	ldr	r4, [fp, #-140]
30005578:	e2643000 	rsb	r3, r4, #0	; 0x0
3000557c:	e50b308c 	str	r3, [fp, #-140]
30005580:	e51b108c 	ldr	r1, [fp, #-140]
30005584:	e58d1000 	str	r1, [sp]
30005588:	e51b304c 	ldr	r3, [fp, #-76]
3000558c:	e1a03fa3 	mov	r3, r3, lsr #31
30005590:	e58d3004 	str	r3, [sp, #4]
30005594:	e3a0300a 	mov	r3, #10	; 0xa
30005598:	e58d3008 	str	r3, [sp, #8]
3000559c:	e3a03000 	mov	r3, #0	; 0x0
300055a0:	e58d300c 	str	r3, [sp, #12]
300055a4:	e51b3060 	ldr	r3, [fp, #-96]
300055a8:	e2433001 	sub	r3, r3, #1	; 0x1
300055ac:	e58d3010 	str	r3, [sp, #16]
300055b0:	e3a03005 	mov	r3, #5	; 0x5
300055b4:	e58d3014 	str	r3, [sp, #20]
300055b8:	e51b002c 	ldr	r0, [fp, #-44]
300055bc:	e51b1030 	ldr	r1, [fp, #-48]
300055c0:	e51b2034 	ldr	r2, [fp, #-52]
300055c4:	e51b3038 	ldr	r3, [fp, #-56]
300055c8:	ebfffa8d 	bl	30004004 <_ntoa_long>
300055cc:	e1a03000 	mov	r3, r0
300055d0:	e50b3034 	str	r3, [fp, #-52]
300055d4:	e59b3014 	ldr	r3, [fp, #20]
300055d8:	e2033002 	and	r3, r3, #2	; 0x2
300055dc:	e3530000 	cmp	r3, #0	; 0x0
300055e0:	0a000012 	beq	30005630 <.text._etoa+0x980>
300055e4:	e51b2034 	ldr	r2, [fp, #-52]
300055e8:	e51b3068 	ldr	r3, [fp, #-104]
300055ec:	e0632002 	rsb	r2, r3, r2
300055f0:	e59b3010 	ldr	r3, [fp, #16]
300055f4:	e1520003 	cmp	r2, r3
300055f8:	2a00000c 	bcs	30005630 <.text._etoa+0x980>
300055fc:	e24b2034 	sub	r2, fp, #52	; 0x34
30005600:	e5923000 	ldr	r3, [r2]
30005604:	e1a0e003 	mov	lr, r3
30005608:	e2833001 	add	r3, r3, #1	; 0x1
3000560c:	e5823000 	str	r3, [r2]
30005610:	e51bc02c 	ldr	ip, [fp, #-44]
30005614:	e3a00020 	mov	r0, #32	; 0x20
30005618:	e51b1030 	ldr	r1, [fp, #-48]
3000561c:	e1a0200e 	mov	r2, lr
30005620:	e51b3038 	ldr	r3, [fp, #-56]
30005624:	e1a0e00f 	mov	lr, pc
30005628:	e1a0f00c 	mov	pc, ip
3000562c:	eaffffec 	b	300055e4 <.text._etoa+0x934>
30005630:	e51b3034 	ldr	r3, [fp, #-52]
30005634:	e50b306c 	str	r3, [fp, #-108]
30005638:	e51b006c 	ldr	r0, [fp, #-108]
3000563c:	e24bd028 	sub	sp, fp, #40	; 0x28
30005640:	e89daff0 	ldmia	sp, {r4, r5, r6, r7, r8, r9, sl, fp, sp, pc}
Disassembly of section .text._vsnprintf:

30005644 <_vsnprintf>:
30005644:	e1a0c00d 	mov	ip, sp
30005648:	e92dd810 	stmdb	sp!, {r4, fp, ip, lr, pc}
3000564c:	e24cb004 	sub	fp, ip, #4	; 0x4
30005650:	e24dd074 	sub	sp, sp, #116	; 0x74
30005654:	e50b0014 	str	r0, [fp, #-20]
30005658:	e50b1018 	str	r1, [fp, #-24]
3000565c:	e50b201c 	str	r2, [fp, #-28]
30005660:	e50b3020 	str	r3, [fp, #-32]
30005664:	e3a03000 	mov	r3, #0	; 0x0
30005668:	e50b3034 	str	r3, [fp, #-52]
3000566c:	e51b3018 	ldr	r3, [fp, #-24]
30005670:	e3530000 	cmp	r3, #0	; 0x0
30005674:	1a000001 	bne	30005680 <_vsnprintf+0x3c>
30005678:	e59f3f0c 	ldr	r3, [pc, #3852]	; 3000658c <.text._vsnprintf+0xf48>
3000567c:	e50b3014 	str	r3, [fp, #-20]
30005680:	e51b3020 	ldr	r3, [fp, #-32]
30005684:	e5d33000 	ldrb	r3, [r3]
30005688:	e3530000 	cmp	r3, #0	; 0x0
3000568c:	0a000422 	beq	3000671c <.text._vsnprintf+0x10d8>
30005690:	e51b3020 	ldr	r3, [fp, #-32]
30005694:	e5d33000 	ldrb	r3, [r3]
30005698:	e3530025 	cmp	r3, #37	; 0x25
3000569c:	0a000011 	beq	300056e8 <_vsnprintf+0xa4>
300056a0:	e51b3020 	ldr	r3, [fp, #-32]
300056a4:	e5d31000 	ldrb	r1, [r3]
300056a8:	e24b2034 	sub	r2, fp, #52	; 0x34
300056ac:	e5923000 	ldr	r3, [r2]
300056b0:	e1a0e003 	mov	lr, r3
300056b4:	e2833001 	add	r3, r3, #1	; 0x1
300056b8:	e5823000 	str	r3, [r2]
300056bc:	e51bc014 	ldr	ip, [fp, #-20]
300056c0:	e1a00001 	mov	r0, r1
300056c4:	e51b1018 	ldr	r1, [fp, #-24]
300056c8:	e1a0200e 	mov	r2, lr
300056cc:	e51b301c 	ldr	r3, [fp, #-28]
300056d0:	e1a0e00f 	mov	lr, pc
300056d4:	e1a0f00c 	mov	pc, ip
300056d8:	e51b3020 	ldr	r3, [fp, #-32]
300056dc:	e2833001 	add	r3, r3, #1	; 0x1
300056e0:	e50b3020 	str	r3, [fp, #-32]
300056e4:	eaffffe5 	b	30005680 <_vsnprintf+0x3c>
300056e8:	e51b3020 	ldr	r3, [fp, #-32]
300056ec:	e2833001 	add	r3, r3, #1	; 0x1
300056f0:	e50b3020 	str	r3, [fp, #-32]
300056f4:	e3a03000 	mov	r3, #0	; 0x0
300056f8:	e50b3024 	str	r3, [fp, #-36]
300056fc:	e51b3020 	ldr	r3, [fp, #-32]
30005700:	e5d33000 	ldrb	r3, [r3]
30005704:	e2433020 	sub	r3, r3, #32	; 0x20
30005708:	e3530010 	cmp	r3, #16	; 0x10
3000570c:	979ff103 	ldrls	pc, [pc, r3, lsl #2]
30005710:	ea00003d 	b	3000580c <.text._vsnprintf+0x1c8>
30005714:	300057c4 	andcc	r5, r0, r4, asr #15
30005718:	3000580c 	andcc	r5, r0, ip, lsl #16
3000571c:	3000580c 	andcc	r5, r0, ip, lsl #16
30005720:	300057e8 	andcc	r5, r0, r8, ror #15
30005724:	3000580c 	andcc	r5, r0, ip, lsl #16
30005728:	3000580c 	andcc	r5, r0, ip, lsl #16
3000572c:	3000580c 	andcc	r5, r0, ip, lsl #16
30005730:	3000580c 	andcc	r5, r0, ip, lsl #16
30005734:	3000580c 	andcc	r5, r0, ip, lsl #16
30005738:	3000580c 	andcc	r5, r0, ip, lsl #16
3000573c:	3000580c 	andcc	r5, r0, ip, lsl #16
30005740:	300057a0 	andcc	r5, r0, r0, lsr #15
30005744:	3000580c 	andcc	r5, r0, ip, lsl #16
30005748:	3000577c 	andcc	r5, r0, ip, ror r7
3000574c:	3000580c 	andcc	r5, r0, ip, lsl #16
30005750:	3000580c 	andcc	r5, r0, ip, lsl #16
30005754:	30005758 	andcc	r5, r0, r8, asr r7
30005758:	e51b3024 	ldr	r3, [fp, #-36]
3000575c:	e3833001 	orr	r3, r3, #1	; 0x1
30005760:	e50b3024 	str	r3, [fp, #-36]
30005764:	e51b3020 	ldr	r3, [fp, #-32]
30005768:	e2833001 	add	r3, r3, #1	; 0x1
3000576c:	e50b3020 	str	r3, [fp, #-32]
30005770:	e3a03001 	mov	r3, #1	; 0x1
30005774:	e50b3030 	str	r3, [fp, #-48]
30005778:	ea000025 	b	30005814 <.text._vsnprintf+0x1d0>
3000577c:	e51b3024 	ldr	r3, [fp, #-36]
30005780:	e3833002 	orr	r3, r3, #2	; 0x2
30005784:	e50b3024 	str	r3, [fp, #-36]
30005788:	e51b3020 	ldr	r3, [fp, #-32]
3000578c:	e2833001 	add	r3, r3, #1	; 0x1
30005790:	e50b3020 	str	r3, [fp, #-32]
30005794:	e3a03001 	mov	r3, #1	; 0x1
30005798:	e50b3030 	str	r3, [fp, #-48]
3000579c:	ea00001c 	b	30005814 <.text._vsnprintf+0x1d0>
300057a0:	e51b3024 	ldr	r3, [fp, #-36]
300057a4:	e3833004 	orr	r3, r3, #4	; 0x4
300057a8:	e50b3024 	str	r3, [fp, #-36]
300057ac:	e51b3020 	ldr	r3, [fp, #-32]
300057b0:	e2833001 	add	r3, r3, #1	; 0x1
300057b4:	e50b3020 	str	r3, [fp, #-32]
300057b8:	e3a03001 	mov	r3, #1	; 0x1
300057bc:	e50b3030 	str	r3, [fp, #-48]
300057c0:	ea000013 	b	30005814 <.text._vsnprintf+0x1d0>
300057c4:	e51b3024 	ldr	r3, [fp, #-36]
300057c8:	e3833008 	orr	r3, r3, #8	; 0x8
300057cc:	e50b3024 	str	r3, [fp, #-36]
300057d0:	e51b3020 	ldr	r3, [fp, #-32]
300057d4:	e2833001 	add	r3, r3, #1	; 0x1
300057d8:	e50b3020 	str	r3, [fp, #-32]
300057dc:	e3a03001 	mov	r3, #1	; 0x1
300057e0:	e50b3030 	str	r3, [fp, #-48]
300057e4:	ea00000a 	b	30005814 <.text._vsnprintf+0x1d0>
300057e8:	e51b3024 	ldr	r3, [fp, #-36]
300057ec:	e3833010 	orr	r3, r3, #16	; 0x10
300057f0:	e50b3024 	str	r3, [fp, #-36]
300057f4:	e51b3020 	ldr	r3, [fp, #-32]
300057f8:	e2833001 	add	r3, r3, #1	; 0x1
300057fc:	e50b3020 	str	r3, [fp, #-32]
30005800:	e3a03001 	mov	r3, #1	; 0x1
30005804:	e50b3030 	str	r3, [fp, #-48]
30005808:	ea000001 	b	30005814 <.text._vsnprintf+0x1d0>
3000580c:	e3a03000 	mov	r3, #0	; 0x0
30005810:	e50b3030 	str	r3, [fp, #-48]
30005814:	e51b3030 	ldr	r3, [fp, #-48]
30005818:	e3530000 	cmp	r3, #0	; 0x0
3000581c:	0a000000 	beq	30005824 <.text._vsnprintf+0x1e0>
30005820:	eaffffb5 	b	300056fc <_vsnprintf+0xb8>
30005824:	e3a03000 	mov	r3, #0	; 0x0
30005828:	e50b3028 	str	r3, [fp, #-40]
3000582c:	e51b3020 	ldr	r3, [fp, #-32]
30005830:	e5d33000 	ldrb	r3, [r3]
30005834:	e1a00003 	mov	r0, r3
30005838:	ebfff89d 	bl	30003ab4 <_is_digit>
3000583c:	e1a03000 	mov	r3, r0
30005840:	e20330ff 	and	r3, r3, #255	; 0xff
30005844:	e3530000 	cmp	r3, #0	; 0x0
30005848:	0a000005 	beq	30005864 <.text._vsnprintf+0x220>
3000584c:	e24b3020 	sub	r3, fp, #32	; 0x20
30005850:	e1a00003 	mov	r0, r3
30005854:	ebfff873 	bl	30003a28 <_atoi>
30005858:	e1a03000 	mov	r3, r0
3000585c:	e50b3028 	str	r3, [fp, #-40]
30005860:	ea000018 	b	300058c8 <.text._vsnprintf+0x284>
30005864:	e51b3020 	ldr	r3, [fp, #-32]
30005868:	e5d33000 	ldrb	r3, [r3]
3000586c:	e353002a 	cmp	r3, #42	; 0x2a
30005870:	1a000014 	bne	300058c8 <.text._vsnprintf+0x284>
30005874:	e59b2004 	ldr	r2, [fp, #4]
30005878:	e59b3004 	ldr	r3, [fp, #4]
3000587c:	e2833004 	add	r3, r3, #4	; 0x4
30005880:	e58b3004 	str	r3, [fp, #4]
30005884:	e5923000 	ldr	r3, [r2]
30005888:	e50b3038 	str	r3, [fp, #-56]
3000588c:	e51b3038 	ldr	r3, [fp, #-56]
30005890:	e3530000 	cmp	r3, #0	; 0x0
30005894:	aa000006 	bge	300058b4 <.text._vsnprintf+0x270>
30005898:	e51b3024 	ldr	r3, [fp, #-36]
3000589c:	e3833002 	orr	r3, r3, #2	; 0x2
300058a0:	e50b3024 	str	r3, [fp, #-36]
300058a4:	e51b3038 	ldr	r3, [fp, #-56]
300058a8:	e2633000 	rsb	r3, r3, #0	; 0x0
300058ac:	e50b3028 	str	r3, [fp, #-40]
300058b0:	ea000001 	b	300058bc <.text._vsnprintf+0x278>
300058b4:	e51b3038 	ldr	r3, [fp, #-56]
300058b8:	e50b3028 	str	r3, [fp, #-40]
300058bc:	e51b3020 	ldr	r3, [fp, #-32]
300058c0:	e2833001 	add	r3, r3, #1	; 0x1
300058c4:	e50b3020 	str	r3, [fp, #-32]
300058c8:	e3a03000 	mov	r3, #0	; 0x0
300058cc:	e50b302c 	str	r3, [fp, #-44]
300058d0:	e51b3020 	ldr	r3, [fp, #-32]
300058d4:	e5d33000 	ldrb	r3, [r3]
300058d8:	e353002e 	cmp	r3, #46	; 0x2e
300058dc:	1a00002a 	bne	3000598c <.text._vsnprintf+0x348>
300058e0:	e51b3024 	ldr	r3, [fp, #-36]
300058e4:	e3833b01 	orr	r3, r3, #1024	; 0x400
300058e8:	e50b3024 	str	r3, [fp, #-36]
300058ec:	e51b3020 	ldr	r3, [fp, #-32]
300058f0:	e2833001 	add	r3, r3, #1	; 0x1
300058f4:	e50b3020 	str	r3, [fp, #-32]
300058f8:	e51b3020 	ldr	r3, [fp, #-32]
300058fc:	e5d33000 	ldrb	r3, [r3]
30005900:	e1a00003 	mov	r0, r3
30005904:	ebfff86a 	bl	30003ab4 <_is_digit>
30005908:	e1a03000 	mov	r3, r0
3000590c:	e20330ff 	and	r3, r3, #255	; 0xff
30005910:	e3530000 	cmp	r3, #0	; 0x0
30005914:	0a000005 	beq	30005930 <.text._vsnprintf+0x2ec>
30005918:	e24b3020 	sub	r3, fp, #32	; 0x20
3000591c:	e1a00003 	mov	r0, r3
30005920:	ebfff840 	bl	30003a28 <_atoi>
30005924:	e1a03000 	mov	r3, r0
30005928:	e50b302c 	str	r3, [fp, #-44]
3000592c:	ea000016 	b	3000598c <.text._vsnprintf+0x348>
30005930:	e51b3020 	ldr	r3, [fp, #-32]
30005934:	e5d33000 	ldrb	r3, [r3]
30005938:	e353002a 	cmp	r3, #42	; 0x2a
3000593c:	1a000012 	bne	3000598c <.text._vsnprintf+0x348>
30005940:	e59b2004 	ldr	r2, [fp, #4]
30005944:	e59b3004 	ldr	r3, [fp, #4]
30005948:	e2833004 	add	r3, r3, #4	; 0x4
3000594c:	e58b3004 	str	r3, [fp, #4]
30005950:	e5923000 	ldr	r3, [r2]
30005954:	e50b3038 	str	r3, [fp, #-56]
30005958:	e51b3038 	ldr	r3, [fp, #-56]
3000595c:	e3530000 	cmp	r3, #0	; 0x0
30005960:	da000002 	ble	30005970 <.text._vsnprintf+0x32c>
30005964:	e51b1038 	ldr	r1, [fp, #-56]
30005968:	e50b104c 	str	r1, [fp, #-76]
3000596c:	ea000001 	b	30005978 <.text._vsnprintf+0x334>
30005970:	e3a02000 	mov	r2, #0	; 0x0
30005974:	e50b204c 	str	r2, [fp, #-76]
30005978:	e51b304c 	ldr	r3, [fp, #-76]
3000597c:	e50b302c 	str	r3, [fp, #-44]
30005980:	e51b3020 	ldr	r3, [fp, #-32]
30005984:	e2833001 	add	r3, r3, #1	; 0x1
30005988:	e50b3020 	str	r3, [fp, #-32]
3000598c:	e51b3020 	ldr	r3, [fp, #-32]
30005990:	e5d33000 	ldrb	r3, [r3]
30005994:	e2433068 	sub	r3, r3, #104	; 0x68
30005998:	e3530012 	cmp	r3, #18	; 0x12
3000599c:	979ff103 	ldrls	pc, [pc, r3, lsl #2]
300059a0:	ea000048 	b	30005ac8 <.text._vsnprintf+0x484>
300059a4:	30005a34 	andcc	r5, r0, r4, lsr sl
300059a8:	30005ac8 	andcc	r5, r0, r8, asr #21
300059ac:	30005a94 	mulcc	r0, r4, sl
300059b0:	30005ac8 	andcc	r5, r0, r8, asr #21
300059b4:	300059f0 	strccd	r5, [r0], -r0
300059b8:	30005ac8 	andcc	r5, r0, r8, asr #21
300059bc:	30005ac8 	andcc	r5, r0, r8, asr #21
300059c0:	30005ac8 	andcc	r5, r0, r8, asr #21
300059c4:	30005ac8 	andcc	r5, r0, r8, asr #21
300059c8:	30005ac8 	andcc	r5, r0, r8, asr #21
300059cc:	30005ac8 	andcc	r5, r0, r8, asr #21
300059d0:	30005ac8 	andcc	r5, r0, r8, asr #21
300059d4:	30005a78 	andcc	r5, r0, r8, ror sl
300059d8:	30005ac8 	andcc	r5, r0, r8, asr #21
300059dc:	30005ac8 	andcc	r5, r0, r8, asr #21
300059e0:	30005ac8 	andcc	r5, r0, r8, asr #21
300059e4:	30005ac8 	andcc	r5, r0, r8, asr #21
300059e8:	30005ac8 	andcc	r5, r0, r8, asr #21
300059ec:	30005ab0 	strcch	r5, [r0], -r0
300059f0:	e51b3024 	ldr	r3, [fp, #-36]
300059f4:	e3833c01 	orr	r3, r3, #256	; 0x100
300059f8:	e50b3024 	str	r3, [fp, #-36]
300059fc:	e51b3020 	ldr	r3, [fp, #-32]
30005a00:	e2833001 	add	r3, r3, #1	; 0x1
30005a04:	e50b3020 	str	r3, [fp, #-32]
30005a08:	e51b3020 	ldr	r3, [fp, #-32]
30005a0c:	e5d33000 	ldrb	r3, [r3]
30005a10:	e353006c 	cmp	r3, #108	; 0x6c
30005a14:	1a00002b 	bne	30005ac8 <.text._vsnprintf+0x484>
30005a18:	e51b3024 	ldr	r3, [fp, #-36]
30005a1c:	e3833c02 	orr	r3, r3, #512	; 0x200
30005a20:	e50b3024 	str	r3, [fp, #-36]
30005a24:	e51b3020 	ldr	r3, [fp, #-32]
30005a28:	e2833001 	add	r3, r3, #1	; 0x1
30005a2c:	e50b3020 	str	r3, [fp, #-32]
30005a30:	ea000024 	b	30005ac8 <.text._vsnprintf+0x484>
30005a34:	e51b3024 	ldr	r3, [fp, #-36]
30005a38:	e3833080 	orr	r3, r3, #128	; 0x80
30005a3c:	e50b3024 	str	r3, [fp, #-36]
30005a40:	e51b3020 	ldr	r3, [fp, #-32]
30005a44:	e2833001 	add	r3, r3, #1	; 0x1
30005a48:	e50b3020 	str	r3, [fp, #-32]
30005a4c:	e51b3020 	ldr	r3, [fp, #-32]
30005a50:	e5d33000 	ldrb	r3, [r3]
30005a54:	e3530068 	cmp	r3, #104	; 0x68
30005a58:	1a00001a 	bne	30005ac8 <.text._vsnprintf+0x484>
30005a5c:	e51b3024 	ldr	r3, [fp, #-36]
30005a60:	e3833040 	orr	r3, r3, #64	; 0x40
30005a64:	e50b3024 	str	r3, [fp, #-36]
30005a68:	e51b3020 	ldr	r3, [fp, #-32]
30005a6c:	e2833001 	add	r3, r3, #1	; 0x1
30005a70:	e50b3020 	str	r3, [fp, #-32]
30005a74:	ea000013 	b	30005ac8 <.text._vsnprintf+0x484>
30005a78:	e51b3024 	ldr	r3, [fp, #-36]
30005a7c:	e3833c01 	orr	r3, r3, #256	; 0x100
30005a80:	e50b3024 	str	r3, [fp, #-36]
30005a84:	e51b3020 	ldr	r3, [fp, #-32]
30005a88:	e2833001 	add	r3, r3, #1	; 0x1
30005a8c:	e50b3020 	str	r3, [fp, #-32]
30005a90:	ea00000c 	b	30005ac8 <.text._vsnprintf+0x484>
30005a94:	e51b3024 	ldr	r3, [fp, #-36]
30005a98:	e3833c02 	orr	r3, r3, #512	; 0x200
30005a9c:	e50b3024 	str	r3, [fp, #-36]
30005aa0:	e51b3020 	ldr	r3, [fp, #-32]
30005aa4:	e2833001 	add	r3, r3, #1	; 0x1
30005aa8:	e50b3020 	str	r3, [fp, #-32]
30005aac:	ea000005 	b	30005ac8 <.text._vsnprintf+0x484>
30005ab0:	e51b3024 	ldr	r3, [fp, #-36]
30005ab4:	e3833c01 	orr	r3, r3, #256	; 0x100
30005ab8:	e50b3024 	str	r3, [fp, #-36]
30005abc:	e51b3020 	ldr	r3, [fp, #-32]
30005ac0:	e2833001 	add	r3, r3, #1	; 0x1
30005ac4:	e50b3020 	str	r3, [fp, #-32]
30005ac8:	e51b3020 	ldr	r3, [fp, #-32]
30005acc:	e5d33000 	ldrb	r3, [r3]
30005ad0:	e2433025 	sub	r3, r3, #37	; 0x25
30005ad4:	e3530053 	cmp	r3, #83	; 0x53
30005ad8:	979ff103 	ldrls	pc, [pc, r3, lsl #2]
30005adc:	ea0002fc 	b	300066d4 <.text._vsnprintf+0x1090>
30005ae0:	30006694 	mulcc	r0, r4, r6
30005ae4:	300066d4 	ldrccd	r6, [r0], -r4
30005ae8:	300066d4 	ldrccd	r6, [r0], -r4
30005aec:	300066d4 	ldrccd	r6, [r0], -r4
30005af0:	300066d4 	ldrccd	r6, [r0], -r4
30005af4:	300066d4 	ldrccd	r6, [r0], -r4
30005af8:	300066d4 	ldrccd	r6, [r0], -r4
30005afc:	300066d4 	ldrccd	r6, [r0], -r4
30005b00:	300066d4 	ldrccd	r6, [r0], -r4
30005b04:	300066d4 	ldrccd	r6, [r0], -r4
30005b08:	300066d4 	ldrccd	r6, [r0], -r4
30005b0c:	300066d4 	ldrccd	r6, [r0], -r4
30005b10:	300066d4 	ldrccd	r6, [r0], -r4
30005b14:	300066d4 	ldrccd	r6, [r0], -r4
30005b18:	300066d4 	ldrccd	r6, [r0], -r4
30005b1c:	300066d4 	ldrccd	r6, [r0], -r4
30005b20:	300066d4 	ldrccd	r6, [r0], -r4
30005b24:	300066d4 	ldrccd	r6, [r0], -r4
30005b28:	300066d4 	ldrccd	r6, [r0], -r4
30005b2c:	300066d4 	ldrccd	r6, [r0], -r4
30005b30:	300066d4 	ldrccd	r6, [r0], -r4
30005b34:	300066d4 	ldrccd	r6, [r0], -r4
30005b38:	300066d4 	ldrccd	r6, [r0], -r4
30005b3c:	300066d4 	ldrccd	r6, [r0], -r4
30005b40:	300066d4 	ldrccd	r6, [r0], -r4
30005b44:	300066d4 	ldrccd	r6, [r0], -r4
30005b48:	300066d4 	ldrccd	r6, [r0], -r4
30005b4c:	300066d4 	ldrccd	r6, [r0], -r4
30005b50:	300066d4 	ldrccd	r6, [r0], -r4
30005b54:	300066d4 	ldrccd	r6, [r0], -r4
30005b58:	300066d4 	ldrccd	r6, [r0], -r4
30005b5c:	300066d4 	ldrccd	r6, [r0], -r4
30005b60:	300061e4 	andcc	r6, r0, r4, ror #3
30005b64:	3000616c 	andcc	r6, r0, ip, ror #2
30005b68:	300061e4 	andcc	r6, r0, r4, ror #3
30005b6c:	300066d4 	ldrccd	r6, [r0], -r4
30005b70:	300066d4 	ldrccd	r6, [r0], -r4
30005b74:	300066d4 	ldrccd	r6, [r0], -r4
30005b78:	300066d4 	ldrccd	r6, [r0], -r4
30005b7c:	300066d4 	ldrccd	r6, [r0], -r4
30005b80:	300066d4 	ldrccd	r6, [r0], -r4
30005b84:	300066d4 	ldrccd	r6, [r0], -r4
30005b88:	300066d4 	ldrccd	r6, [r0], -r4
30005b8c:	300066d4 	ldrccd	r6, [r0], -r4
30005b90:	300066d4 	ldrccd	r6, [r0], -r4
30005b94:	300066d4 	ldrccd	r6, [r0], -r4
30005b98:	300066d4 	ldrccd	r6, [r0], -r4
30005b9c:	300066d4 	ldrccd	r6, [r0], -r4
30005ba0:	300066d4 	ldrccd	r6, [r0], -r4
30005ba4:	300066d4 	ldrccd	r6, [r0], -r4
30005ba8:	300066d4 	ldrccd	r6, [r0], -r4
30005bac:	30005c30 	andcc	r5, r0, r0, lsr ip
30005bb0:	300066d4 	ldrccd	r6, [r0], -r4
30005bb4:	300066d4 	ldrccd	r6, [r0], -r4
30005bb8:	300066d4 	ldrccd	r6, [r0], -r4
30005bbc:	300066d4 	ldrccd	r6, [r0], -r4
30005bc0:	300066d4 	ldrccd	r6, [r0], -r4
30005bc4:	300066d4 	ldrccd	r6, [r0], -r4
30005bc8:	300066d4 	ldrccd	r6, [r0], -r4
30005bcc:	300066d4 	ldrccd	r6, [r0], -r4
30005bd0:	300066d4 	ldrccd	r6, [r0], -r4
30005bd4:	30005c30 	andcc	r5, r0, r0, lsr ip
30005bd8:	300062a0 	andcc	r6, r0, r0, lsr #5
30005bdc:	30005c30 	andcc	r5, r0, r0, lsr ip
30005be0:	300061e4 	andcc	r6, r0, r4, ror #3
30005be4:	3000616c 	andcc	r6, r0, ip, ror #2
30005be8:	300061e4 	andcc	r6, r0, r4, ror #3
30005bec:	300066d4 	ldrccd	r6, [r0], -r4
30005bf0:	30005c30 	andcc	r5, r0, r0, lsr ip
30005bf4:	300066d4 	ldrccd	r6, [r0], -r4
30005bf8:	300066d4 	ldrccd	r6, [r0], -r4
30005bfc:	300066d4 	ldrccd	r6, [r0], -r4
30005c00:	300066d4 	ldrccd	r6, [r0], -r4
30005c04:	300066d4 	ldrccd	r6, [r0], -r4
30005c08:	30005c30 	andcc	r5, r0, r0, lsr ip
30005c0c:	30006590 	mulcc	r0, r0, r5
30005c10:	300066d4 	ldrccd	r6, [r0], -r4
30005c14:	300066d4 	ldrccd	r6, [r0], -r4
30005c18:	300063c8 	andcc	r6, r0, r8, asr #7
30005c1c:	300066d4 	ldrccd	r6, [r0], -r4
30005c20:	30005c30 	andcc	r5, r0, r0, lsr ip
30005c24:	300066d4 	ldrccd	r6, [r0], -r4
30005c28:	300066d4 	ldrccd	r6, [r0], -r4
30005c2c:	30005c30 	andcc	r5, r0, r0, lsr ip
30005c30:	e51b3020 	ldr	r3, [fp, #-32]
30005c34:	e5d33000 	ldrb	r3, [r3]
30005c38:	e3530078 	cmp	r3, #120	; 0x78
30005c3c:	0a000004 	beq	30005c54 <.text._vsnprintf+0x610>
30005c40:	e51b3020 	ldr	r3, [fp, #-32]
30005c44:	e5d33000 	ldrb	r3, [r3]
30005c48:	e3530058 	cmp	r3, #88	; 0x58
30005c4c:	0a000000 	beq	30005c54 <.text._vsnprintf+0x610>
30005c50:	ea000002 	b	30005c60 <.text._vsnprintf+0x61c>
30005c54:	e3a03010 	mov	r3, #16	; 0x10
30005c58:	e50b3038 	str	r3, [fp, #-56]
30005c5c:	ea000012 	b	30005cac <.text._vsnprintf+0x668>
30005c60:	e51b3020 	ldr	r3, [fp, #-32]
30005c64:	e5d33000 	ldrb	r3, [r3]
30005c68:	e353006f 	cmp	r3, #111	; 0x6f
30005c6c:	1a000002 	bne	30005c7c <.text._vsnprintf+0x638>
30005c70:	e3a03008 	mov	r3, #8	; 0x8
30005c74:	e50b3038 	str	r3, [fp, #-56]
30005c78:	ea00000b 	b	30005cac <.text._vsnprintf+0x668>
30005c7c:	e51b3020 	ldr	r3, [fp, #-32]
30005c80:	e5d33000 	ldrb	r3, [r3]
30005c84:	e3530062 	cmp	r3, #98	; 0x62
30005c88:	1a000002 	bne	30005c98 <.text._vsnprintf+0x654>
30005c8c:	e3a03002 	mov	r3, #2	; 0x2
30005c90:	e50b3038 	str	r3, [fp, #-56]
30005c94:	ea000004 	b	30005cac <.text._vsnprintf+0x668>
30005c98:	e3a0300a 	mov	r3, #10	; 0xa
30005c9c:	e50b3038 	str	r3, [fp, #-56]
30005ca0:	e51b3024 	ldr	r3, [fp, #-36]
30005ca4:	e3c33010 	bic	r3, r3, #16	; 0x10
30005ca8:	e50b3024 	str	r3, [fp, #-36]
30005cac:	e51b3020 	ldr	r3, [fp, #-32]
30005cb0:	e5d33000 	ldrb	r3, [r3]
30005cb4:	e3530058 	cmp	r3, #88	; 0x58
30005cb8:	1a000002 	bne	30005cc8 <.text._vsnprintf+0x684>
30005cbc:	e51b3024 	ldr	r3, [fp, #-36]
30005cc0:	e3833020 	orr	r3, r3, #32	; 0x20
30005cc4:	e50b3024 	str	r3, [fp, #-36]
30005cc8:	e51b3020 	ldr	r3, [fp, #-32]
30005ccc:	e5d33000 	ldrb	r3, [r3]
30005cd0:	e3530069 	cmp	r3, #105	; 0x69
30005cd4:	0a000006 	beq	30005cf4 <.text._vsnprintf+0x6b0>
30005cd8:	e51b3020 	ldr	r3, [fp, #-32]
30005cdc:	e5d33000 	ldrb	r3, [r3]
30005ce0:	e3530064 	cmp	r3, #100	; 0x64
30005ce4:	0a000002 	beq	30005cf4 <.text._vsnprintf+0x6b0>
30005ce8:	e51b3024 	ldr	r3, [fp, #-36]
30005cec:	e3c3300c 	bic	r3, r3, #12	; 0xc
30005cf0:	e50b3024 	str	r3, [fp, #-36]
30005cf4:	e51b3024 	ldr	r3, [fp, #-36]
30005cf8:	e2033b01 	and	r3, r3, #1024	; 0x400
30005cfc:	e3530000 	cmp	r3, #0	; 0x0
30005d00:	0a000002 	beq	30005d10 <.text._vsnprintf+0x6cc>
30005d04:	e51b3024 	ldr	r3, [fp, #-36]
30005d08:	e3c33001 	bic	r3, r3, #1	; 0x1
30005d0c:	e50b3024 	str	r3, [fp, #-36]
30005d10:	e51b3020 	ldr	r3, [fp, #-32]
30005d14:	e5d33000 	ldrb	r3, [r3]
30005d18:	e3530069 	cmp	r3, #105	; 0x69
30005d1c:	0a000004 	beq	30005d34 <.text._vsnprintf+0x6f0>
30005d20:	e51b3020 	ldr	r3, [fp, #-32]
30005d24:	e5d33000 	ldrb	r3, [r3]
30005d28:	e3530064 	cmp	r3, #100	; 0x64
30005d2c:	0a000000 	beq	30005d34 <.text._vsnprintf+0x6f0>
30005d30:	ea000099 	b	30005f9c <.text._vsnprintf+0x958>
30005d34:	e51b3024 	ldr	r3, [fp, #-36]
30005d38:	e2033c02 	and	r3, r3, #512	; 0x200
30005d3c:	e3530000 	cmp	r3, #0	; 0x0
30005d40:	0a00003c 	beq	30005e38 <.text._vsnprintf+0x7f4>
30005d44:	e3e0302f 	mvn	r3, #47	; 0x2f
30005d48:	e24b4010 	sub	r4, fp, #16	; 0x10
30005d4c:	e0842003 	add	r2, r4, r3
30005d50:	e59b1004 	ldr	r1, [fp, #4]
30005d54:	e59b3004 	ldr	r3, [fp, #4]
30005d58:	e2833008 	add	r3, r3, #8	; 0x8
30005d5c:	e58b3004 	str	r3, [fp, #4]
30005d60:	e8910018 	ldmia	r1, {r3, r4}
30005d64:	e8820018 	stmia	r2, {r3, r4}
30005d68:	e3e0302f 	mvn	r3, #47	; 0x2f
30005d6c:	e24b4010 	sub	r4, fp, #16	; 0x10
30005d70:	e0842003 	add	r2, r4, r3
30005d74:	e5921004 	ldr	r1, [r2, #4]
30005d78:	e5920004 	ldr	r0, [r2, #4]
30005d7c:	e1a03fc1 	mov	r3, r1, asr #31
30005d80:	e1a04fc0 	mov	r4, r0, asr #31
30005d84:	e8920006 	ldmia	r2, {r1, r2}
30005d88:	e0211003 	eor	r1, r1, r3
30005d8c:	e0222004 	eor	r2, r2, r4
30005d90:	e0513003 	subs	r3, r1, r3
30005d94:	e0c24004 	sbc	r4, r2, r4
30005d98:	e88d0018 	stmia	sp, {r3, r4}
30005d9c:	e3a01000 	mov	r1, #0	; 0x0
30005da0:	e50b1050 	str	r1, [fp, #-80]
30005da4:	e3e0302f 	mvn	r3, #47	; 0x2f
30005da8:	e24b2010 	sub	r2, fp, #16	; 0x10
30005dac:	e0822003 	add	r2, r2, r3
30005db0:	e50b2054 	str	r2, [fp, #-84]
30005db4:	e51b4054 	ldr	r4, [fp, #-84]
30005db8:	e5943004 	ldr	r3, [r4, #4]
30005dbc:	e3530000 	cmp	r3, #0	; 0x0
30005dc0:	ba000004 	blt	30005dd8 <.text._vsnprintf+0x794>
30005dc4:	e51b1054 	ldr	r1, [fp, #-84]
30005dc8:	e5913004 	ldr	r3, [r1, #4]
30005dcc:	e3530000 	cmp	r3, #0	; 0x0
30005dd0:	1a000002 	bne	30005de0 <.text._vsnprintf+0x79c>
30005dd4:	ea000001 	b	30005de0 <.text._vsnprintf+0x79c>
30005dd8:	e3a02001 	mov	r2, #1	; 0x1
30005ddc:	e50b2050 	str	r2, [fp, #-80]
30005de0:	e51b3050 	ldr	r3, [fp, #-80]
30005de4:	e58d3008 	str	r3, [sp, #8]
30005de8:	e51b3038 	ldr	r3, [fp, #-56]
30005dec:	e1a01003 	mov	r1, r3
30005df0:	e3a02000 	mov	r2, #0	; 0x0
30005df4:	e3a0300c 	mov	r3, #12	; 0xc
30005df8:	e08d3003 	add	r3, sp, r3
30005dfc:	e8830006 	stmia	r3, {r1, r2}
30005e00:	e51b302c 	ldr	r3, [fp, #-44]
30005e04:	e58d3014 	str	r3, [sp, #20]
30005e08:	e51b3028 	ldr	r3, [fp, #-40]
30005e0c:	e58d3018 	str	r3, [sp, #24]
30005e10:	e51b3024 	ldr	r3, [fp, #-36]
30005e14:	e58d301c 	str	r3, [sp, #28]
30005e18:	e51b0014 	ldr	r0, [fp, #-20]
30005e1c:	e51b1018 	ldr	r1, [fp, #-24]
30005e20:	e51b2034 	ldr	r2, [fp, #-52]
30005e24:	e51b301c 	ldr	r3, [fp, #-28]
30005e28:	ebfff8d7 	bl	3000418c <_ntoa_long_long>
30005e2c:	e1a03000 	mov	r3, r0
30005e30:	e50b3034 	str	r3, [fp, #-52]
30005e34:	ea0000c8 	b	3000615c <.text._vsnprintf+0xb18>
30005e38:	e51b3024 	ldr	r3, [fp, #-36]
30005e3c:	e2033c01 	and	r3, r3, #256	; 0x100
30005e40:	e3530000 	cmp	r3, #0	; 0x0
30005e44:	0a00001c 	beq	30005ebc <.text._vsnprintf+0x878>
30005e48:	e59b2004 	ldr	r2, [fp, #4]
30005e4c:	e59b3004 	ldr	r3, [fp, #4]
30005e50:	e2833004 	add	r3, r3, #4	; 0x4
30005e54:	e58b3004 	str	r3, [fp, #4]
30005e58:	e5923000 	ldr	r3, [r2]
30005e5c:	e50b3044 	str	r3, [fp, #-68]
30005e60:	e51b3044 	ldr	r3, [fp, #-68]
30005e64:	e3530000 	cmp	r3, #0	; 0x0
30005e68:	b2633000 	rsblt	r3, r3, #0	; 0x0
30005e6c:	e58d3000 	str	r3, [sp]
30005e70:	e51b3044 	ldr	r3, [fp, #-68]
30005e74:	e1a03fa3 	mov	r3, r3, lsr #31
30005e78:	e58d3004 	str	r3, [sp, #4]
30005e7c:	e51b3038 	ldr	r3, [fp, #-56]
30005e80:	e58d3008 	str	r3, [sp, #8]
30005e84:	e51b302c 	ldr	r3, [fp, #-44]
30005e88:	e58d300c 	str	r3, [sp, #12]
30005e8c:	e51b3028 	ldr	r3, [fp, #-40]
30005e90:	e58d3010 	str	r3, [sp, #16]
30005e94:	e51b3024 	ldr	r3, [fp, #-36]
30005e98:	e58d3014 	str	r3, [sp, #20]
30005e9c:	e51b0014 	ldr	r0, [fp, #-20]
30005ea0:	e51b1018 	ldr	r1, [fp, #-24]
30005ea4:	e51b2034 	ldr	r2, [fp, #-52]
30005ea8:	e51b301c 	ldr	r3, [fp, #-28]
30005eac:	ebfff854 	bl	30004004 <_ntoa_long>
30005eb0:	e1a03000 	mov	r3, r0
30005eb4:	e50b3034 	str	r3, [fp, #-52]
30005eb8:	ea0000a7 	b	3000615c <.text._vsnprintf+0xb18>
30005ebc:	e51b3024 	ldr	r3, [fp, #-36]
30005ec0:	e2033040 	and	r3, r3, #64	; 0x40
30005ec4:	e3530000 	cmp	r3, #0	; 0x0
30005ec8:	0a000007 	beq	30005eec <.text._vsnprintf+0x8a8>
30005ecc:	e59b2004 	ldr	r2, [fp, #4]
30005ed0:	e59b3004 	ldr	r3, [fp, #4]
30005ed4:	e2833004 	add	r3, r3, #4	; 0x4
30005ed8:	e58b3004 	str	r3, [fp, #4]
30005edc:	e5923000 	ldr	r3, [r2]
30005ee0:	e20330ff 	and	r3, r3, #255	; 0xff
30005ee4:	e50b3058 	str	r3, [fp, #-88]
30005ee8:	ea000012 	b	30005f38 <.text._vsnprintf+0x8f4>
30005eec:	e51b3024 	ldr	r3, [fp, #-36]
30005ef0:	e2033080 	and	r3, r3, #128	; 0x80
30005ef4:	e3530000 	cmp	r3, #0	; 0x0
30005ef8:	0a000008 	beq	30005f20 <.text._vsnprintf+0x8dc>
30005efc:	e59b2004 	ldr	r2, [fp, #4]
30005f00:	e59b3004 	ldr	r3, [fp, #4]
30005f04:	e2833004 	add	r3, r3, #4	; 0x4
30005f08:	e58b3004 	str	r3, [fp, #4]
30005f0c:	e5923000 	ldr	r3, [r2]
30005f10:	e1a03803 	mov	r3, r3, lsl #16
30005f14:	e1a03843 	mov	r3, r3, asr #16
30005f18:	e50b3058 	str	r3, [fp, #-88]
30005f1c:	ea000005 	b	30005f38 <.text._vsnprintf+0x8f4>
30005f20:	e59b3004 	ldr	r3, [fp, #4]
30005f24:	e59b2004 	ldr	r2, [fp, #4]
30005f28:	e2822004 	add	r2, r2, #4	; 0x4
30005f2c:	e58b2004 	str	r2, [fp, #4]
30005f30:	e5933000 	ldr	r3, [r3]
30005f34:	e50b3058 	str	r3, [fp, #-88]
30005f38:	e51b4058 	ldr	r4, [fp, #-88]
30005f3c:	e50b4044 	str	r4, [fp, #-68]
30005f40:	e51b3044 	ldr	r3, [fp, #-68]
30005f44:	e3530000 	cmp	r3, #0	; 0x0
30005f48:	b2633000 	rsblt	r3, r3, #0	; 0x0
30005f4c:	e58d3000 	str	r3, [sp]
30005f50:	e51b3044 	ldr	r3, [fp, #-68]
30005f54:	e1a03fa3 	mov	r3, r3, lsr #31
30005f58:	e58d3004 	str	r3, [sp, #4]
30005f5c:	e51b3038 	ldr	r3, [fp, #-56]
30005f60:	e58d3008 	str	r3, [sp, #8]
30005f64:	e51b302c 	ldr	r3, [fp, #-44]
30005f68:	e58d300c 	str	r3, [sp, #12]
30005f6c:	e51b3028 	ldr	r3, [fp, #-40]
30005f70:	e58d3010 	str	r3, [sp, #16]
30005f74:	e51b3024 	ldr	r3, [fp, #-36]
30005f78:	e58d3014 	str	r3, [sp, #20]
30005f7c:	e51b0014 	ldr	r0, [fp, #-20]
30005f80:	e51b1018 	ldr	r1, [fp, #-24]
30005f84:	e51b2034 	ldr	r2, [fp, #-52]
30005f88:	e51b301c 	ldr	r3, [fp, #-28]
30005f8c:	ebfff81c 	bl	30004004 <_ntoa_long>
30005f90:	e1a03000 	mov	r3, r0
30005f94:	e50b3034 	str	r3, [fp, #-52]
30005f98:	ea00006f 	b	3000615c <.text._vsnprintf+0xb18>
30005f9c:	e51b3024 	ldr	r3, [fp, #-36]
30005fa0:	e2033c02 	and	r3, r3, #512	; 0x200
30005fa4:	e3530000 	cmp	r3, #0	; 0x0
30005fa8:	0a00001b 	beq	3000601c <.text._vsnprintf+0x9d8>
30005fac:	e59b2004 	ldr	r2, [fp, #4]
30005fb0:	e59b3004 	ldr	r3, [fp, #4]
30005fb4:	e2833008 	add	r3, r3, #8	; 0x8
30005fb8:	e58b3004 	str	r3, [fp, #4]
30005fbc:	e8920018 	ldmia	r2, {r3, r4}
30005fc0:	e88d0018 	stmia	sp, {r3, r4}
30005fc4:	e3a03000 	mov	r3, #0	; 0x0
30005fc8:	e58d3008 	str	r3, [sp, #8]
30005fcc:	e51b3038 	ldr	r3, [fp, #-56]
30005fd0:	e1a01003 	mov	r1, r3
30005fd4:	e3a02000 	mov	r2, #0	; 0x0
30005fd8:	e3a0300c 	mov	r3, #12	; 0xc
30005fdc:	e08d3003 	add	r3, sp, r3
30005fe0:	e8830006 	stmia	r3, {r1, r2}
30005fe4:	e51b302c 	ldr	r3, [fp, #-44]
30005fe8:	e58d3014 	str	r3, [sp, #20]
30005fec:	e51b3028 	ldr	r3, [fp, #-40]
30005ff0:	e58d3018 	str	r3, [sp, #24]
30005ff4:	e51b3024 	ldr	r3, [fp, #-36]
30005ff8:	e58d301c 	str	r3, [sp, #28]
30005ffc:	e51b0014 	ldr	r0, [fp, #-20]
30006000:	e51b1018 	ldr	r1, [fp, #-24]
30006004:	e51b2034 	ldr	r2, [fp, #-52]
30006008:	e51b301c 	ldr	r3, [fp, #-28]
3000600c:	ebfff85e 	bl	3000418c <_ntoa_long_long>
30006010:	e1a03000 	mov	r3, r0
30006014:	e50b3034 	str	r3, [fp, #-52]
30006018:	ea00004f 	b	3000615c <.text._vsnprintf+0xb18>
3000601c:	e51b3024 	ldr	r3, [fp, #-36]
30006020:	e2033c01 	and	r3, r3, #256	; 0x100
30006024:	e3530000 	cmp	r3, #0	; 0x0
30006028:	0a000017 	beq	3000608c <.text._vsnprintf+0xa48>
3000602c:	e59b2004 	ldr	r2, [fp, #4]
30006030:	e59b3004 	ldr	r3, [fp, #4]
30006034:	e2833004 	add	r3, r3, #4	; 0x4
30006038:	e58b3004 	str	r3, [fp, #4]
3000603c:	e5923000 	ldr	r3, [r2]
30006040:	e58d3000 	str	r3, [sp]
30006044:	e3a03000 	mov	r3, #0	; 0x0
30006048:	e58d3004 	str	r3, [sp, #4]
3000604c:	e51b3038 	ldr	r3, [fp, #-56]
30006050:	e58d3008 	str	r3, [sp, #8]
30006054:	e51b302c 	ldr	r3, [fp, #-44]
30006058:	e58d300c 	str	r3, [sp, #12]
3000605c:	e51b3028 	ldr	r3, [fp, #-40]
30006060:	e58d3010 	str	r3, [sp, #16]
30006064:	e51b3024 	ldr	r3, [fp, #-36]
30006068:	e58d3014 	str	r3, [sp, #20]
3000606c:	e51b0014 	ldr	r0, [fp, #-20]
30006070:	e51b1018 	ldr	r1, [fp, #-24]
30006074:	e51b2034 	ldr	r2, [fp, #-52]
30006078:	e51b301c 	ldr	r3, [fp, #-28]
3000607c:	ebfff7e0 	bl	30004004 <_ntoa_long>
30006080:	e1a03000 	mov	r3, r0
30006084:	e50b3034 	str	r3, [fp, #-52]
30006088:	ea000033 	b	3000615c <.text._vsnprintf+0xb18>
3000608c:	e51b3024 	ldr	r3, [fp, #-36]
30006090:	e2033040 	and	r3, r3, #64	; 0x40
30006094:	e3530000 	cmp	r3, #0	; 0x0
30006098:	0a000007 	beq	300060bc <.text._vsnprintf+0xa78>
3000609c:	e59b2004 	ldr	r2, [fp, #4]
300060a0:	e59b3004 	ldr	r3, [fp, #4]
300060a4:	e2833004 	add	r3, r3, #4	; 0x4
300060a8:	e58b3004 	str	r3, [fp, #4]
300060ac:	e5923000 	ldr	r3, [r2]
300060b0:	e20330ff 	and	r3, r3, #255	; 0xff
300060b4:	e50b305c 	str	r3, [fp, #-92]
300060b8:	ea000012 	b	30006108 <.text._vsnprintf+0xac4>
300060bc:	e51b3024 	ldr	r3, [fp, #-36]
300060c0:	e2033080 	and	r3, r3, #128	; 0x80
300060c4:	e3530000 	cmp	r3, #0	; 0x0
300060c8:	0a000008 	beq	300060f0 <.text._vsnprintf+0xaac>
300060cc:	e59b2004 	ldr	r2, [fp, #4]
300060d0:	e59b3004 	ldr	r3, [fp, #4]
300060d4:	e2833004 	add	r3, r3, #4	; 0x4
300060d8:	e58b3004 	str	r3, [fp, #4]
300060dc:	e5923000 	ldr	r3, [r2]
300060e0:	e1a03803 	mov	r3, r3, lsl #16
300060e4:	e1a03823 	mov	r3, r3, lsr #16
300060e8:	e50b305c 	str	r3, [fp, #-92]
300060ec:	ea000005 	b	30006108 <.text._vsnprintf+0xac4>
300060f0:	e59b3004 	ldr	r3, [fp, #4]
300060f4:	e59b2004 	ldr	r2, [fp, #4]
300060f8:	e2822004 	add	r2, r2, #4	; 0x4
300060fc:	e58b2004 	str	r2, [fp, #4]
30006100:	e5933000 	ldr	r3, [r3]
30006104:	e50b305c 	str	r3, [fp, #-92]
30006108:	e51b405c 	ldr	r4, [fp, #-92]
3000610c:	e50b4044 	str	r4, [fp, #-68]
30006110:	e51b3044 	ldr	r3, [fp, #-68]
30006114:	e58d3000 	str	r3, [sp]
30006118:	e3a03000 	mov	r3, #0	; 0x0
3000611c:	e58d3004 	str	r3, [sp, #4]
30006120:	e51b3038 	ldr	r3, [fp, #-56]
30006124:	e58d3008 	str	r3, [sp, #8]
30006128:	e51b302c 	ldr	r3, [fp, #-44]
3000612c:	e58d300c 	str	r3, [sp, #12]
30006130:	e51b3028 	ldr	r3, [fp, #-40]
30006134:	e58d3010 	str	r3, [sp, #16]
30006138:	e51b3024 	ldr	r3, [fp, #-36]
3000613c:	e58d3014 	str	r3, [sp, #20]
30006140:	e51b0014 	ldr	r0, [fp, #-20]
30006144:	e51b1018 	ldr	r1, [fp, #-24]
30006148:	e51b2034 	ldr	r2, [fp, #-52]
3000614c:	e51b301c 	ldr	r3, [fp, #-28]
30006150:	ebfff7ab 	bl	30004004 <_ntoa_long>
30006154:	e1a03000 	mov	r3, r0
30006158:	e50b3034 	str	r3, [fp, #-52]
3000615c:	e51b3020 	ldr	r3, [fp, #-32]
30006160:	e2833001 	add	r3, r3, #1	; 0x1
30006164:	e50b3020 	str	r3, [fp, #-32]
30006168:	eafffd44 	b	30005680 <_vsnprintf+0x3c>
3000616c:	e51b3020 	ldr	r3, [fp, #-32]
30006170:	e5d33000 	ldrb	r3, [r3]
30006174:	e3530046 	cmp	r3, #70	; 0x46
30006178:	1a000002 	bne	30006188 <.text._vsnprintf+0xb44>
3000617c:	e51b3024 	ldr	r3, [fp, #-36]
30006180:	e3833020 	orr	r3, r3, #32	; 0x20
30006184:	e50b3024 	str	r3, [fp, #-36]
30006188:	e59b2004 	ldr	r2, [fp, #4]
3000618c:	e59b3004 	ldr	r3, [fp, #4]
30006190:	e2833008 	add	r3, r3, #8	; 0x8
30006194:	e58b3004 	str	r3, [fp, #4]
30006198:	e8920018 	ldmia	r2, {r3, r4}
3000619c:	e88d0018 	stmia	sp, {r3, r4}
300061a0:	e51b302c 	ldr	r3, [fp, #-44]
300061a4:	e58d3008 	str	r3, [sp, #8]
300061a8:	e51b3028 	ldr	r3, [fp, #-40]
300061ac:	e58d300c 	str	r3, [sp, #12]
300061b0:	e51b3024 	ldr	r3, [fp, #-36]
300061b4:	e58d3010 	str	r3, [sp, #16]
300061b8:	e51b0014 	ldr	r0, [fp, #-20]
300061bc:	e51b1018 	ldr	r1, [fp, #-24]
300061c0:	e51b2034 	ldr	r2, [fp, #-52]
300061c4:	e51b301c 	ldr	r3, [fp, #-28]
300061c8:	ebfff862 	bl	30004358 <_ftoa>
300061cc:	e1a03000 	mov	r3, r0
300061d0:	e50b3034 	str	r3, [fp, #-52]
300061d4:	e51b3020 	ldr	r3, [fp, #-32]
300061d8:	e2833001 	add	r3, r3, #1	; 0x1
300061dc:	e50b3020 	str	r3, [fp, #-32]
300061e0:	eafffd26 	b	30005680 <_vsnprintf+0x3c>
300061e4:	e51b3020 	ldr	r3, [fp, #-32]
300061e8:	e5d33000 	ldrb	r3, [r3]
300061ec:	e3530067 	cmp	r3, #103	; 0x67
300061f0:	0a000004 	beq	30006208 <.text._vsnprintf+0xbc4>
300061f4:	e51b3020 	ldr	r3, [fp, #-32]
300061f8:	e5d33000 	ldrb	r3, [r3]
300061fc:	e3530047 	cmp	r3, #71	; 0x47
30006200:	0a000000 	beq	30006208 <.text._vsnprintf+0xbc4>
30006204:	ea000002 	b	30006214 <.text._vsnprintf+0xbd0>
30006208:	e51b3024 	ldr	r3, [fp, #-36]
3000620c:	e3833b02 	orr	r3, r3, #2048	; 0x800
30006210:	e50b3024 	str	r3, [fp, #-36]
30006214:	e51b3020 	ldr	r3, [fp, #-32]
30006218:	e5d33000 	ldrb	r3, [r3]
3000621c:	e3530045 	cmp	r3, #69	; 0x45
30006220:	0a000004 	beq	30006238 <.text._vsnprintf+0xbf4>
30006224:	e51b3020 	ldr	r3, [fp, #-32]
30006228:	e5d33000 	ldrb	r3, [r3]
3000622c:	e3530047 	cmp	r3, #71	; 0x47
30006230:	0a000000 	beq	30006238 <.text._vsnprintf+0xbf4>
30006234:	ea000002 	b	30006244 <.text._vsnprintf+0xc00>
30006238:	e51b3024 	ldr	r3, [fp, #-36]
3000623c:	e3833020 	orr	r3, r3, #32	; 0x20
30006240:	e50b3024 	str	r3, [fp, #-36]
30006244:	e59b2004 	ldr	r2, [fp, #4]
30006248:	e59b3004 	ldr	r3, [fp, #4]
3000624c:	e2833008 	add	r3, r3, #8	; 0x8
30006250:	e58b3004 	str	r3, [fp, #4]
30006254:	e8920018 	ldmia	r2, {r3, r4}
30006258:	e88d0018 	stmia	sp, {r3, r4}
3000625c:	e51b302c 	ldr	r3, [fp, #-44]
30006260:	e58d3008 	str	r3, [sp, #8]
30006264:	e51b3028 	ldr	r3, [fp, #-40]
30006268:	e58d300c 	str	r3, [sp, #12]
3000626c:	e51b3024 	ldr	r3, [fp, #-36]
30006270:	e58d3010 	str	r3, [sp, #16]
30006274:	e51b0014 	ldr	r0, [fp, #-20]
30006278:	e51b1018 	ldr	r1, [fp, #-24]
3000627c:	e51b2034 	ldr	r2, [fp, #-52]
30006280:	e51b301c 	ldr	r3, [fp, #-28]
30006284:	ebfffa89 	bl	30004cb0 <_etoa>
30006288:	e1a03000 	mov	r3, r0
3000628c:	e50b3034 	str	r3, [fp, #-52]
30006290:	e51b3020 	ldr	r3, [fp, #-32]
30006294:	e2833001 	add	r3, r3, #1	; 0x1
30006298:	e50b3020 	str	r3, [fp, #-32]
3000629c:	eafffcf7 	b	30005680 <_vsnprintf+0x3c>
300062a0:	e3a03001 	mov	r3, #1	; 0x1
300062a4:	e50b3044 	str	r3, [fp, #-68]
300062a8:	e51b3024 	ldr	r3, [fp, #-36]
300062ac:	e2033002 	and	r3, r3, #2	; 0x2
300062b0:	e3530000 	cmp	r3, #0	; 0x0
300062b4:	1a000014 	bne	3000630c <.text._vsnprintf+0xcc8>
300062b8:	e24b2044 	sub	r2, fp, #68	; 0x44
300062bc:	e5923000 	ldr	r3, [r2]
300062c0:	e1a01003 	mov	r1, r3
300062c4:	e2833001 	add	r3, r3, #1	; 0x1
300062c8:	e5823000 	str	r3, [r2]
300062cc:	e51b3028 	ldr	r3, [fp, #-40]
300062d0:	e1510003 	cmp	r1, r3
300062d4:	2a00000c 	bcs	3000630c <.text._vsnprintf+0xcc8>
300062d8:	e24b2034 	sub	r2, fp, #52	; 0x34
300062dc:	e5923000 	ldr	r3, [r2]
300062e0:	e1a0e003 	mov	lr, r3
300062e4:	e2833001 	add	r3, r3, #1	; 0x1
300062e8:	e5823000 	str	r3, [r2]
300062ec:	e51bc014 	ldr	ip, [fp, #-20]
300062f0:	e3a00020 	mov	r0, #32	; 0x20
300062f4:	e51b1018 	ldr	r1, [fp, #-24]
300062f8:	e1a0200e 	mov	r2, lr
300062fc:	e51b301c 	ldr	r3, [fp, #-28]
30006300:	e1a0e00f 	mov	lr, pc
30006304:	e1a0f00c 	mov	pc, ip
30006308:	eaffffea 	b	300062b8 <.text._vsnprintf+0xc74>
3000630c:	e59b2004 	ldr	r2, [fp, #4]
30006310:	e59b3004 	ldr	r3, [fp, #4]
30006314:	e2833004 	add	r3, r3, #4	; 0x4
30006318:	e58b3004 	str	r3, [fp, #4]
3000631c:	e5923000 	ldr	r3, [r2]
30006320:	e20310ff 	and	r1, r3, #255	; 0xff
30006324:	e24b2034 	sub	r2, fp, #52	; 0x34
30006328:	e5923000 	ldr	r3, [r2]
3000632c:	e1a0e003 	mov	lr, r3
30006330:	e2833001 	add	r3, r3, #1	; 0x1
30006334:	e5823000 	str	r3, [r2]
30006338:	e51bc014 	ldr	ip, [fp, #-20]
3000633c:	e1a00001 	mov	r0, r1
30006340:	e51b1018 	ldr	r1, [fp, #-24]
30006344:	e1a0200e 	mov	r2, lr
30006348:	e51b301c 	ldr	r3, [fp, #-28]
3000634c:	e1a0e00f 	mov	lr, pc
30006350:	e1a0f00c 	mov	pc, ip
30006354:	e51b3024 	ldr	r3, [fp, #-36]
30006358:	e2033002 	and	r3, r3, #2	; 0x2
3000635c:	e3530000 	cmp	r3, #0	; 0x0
30006360:	0a000014 	beq	300063b8 <.text._vsnprintf+0xd74>
30006364:	e24b2044 	sub	r2, fp, #68	; 0x44
30006368:	e5923000 	ldr	r3, [r2]
3000636c:	e1a01003 	mov	r1, r3
30006370:	e2833001 	add	r3, r3, #1	; 0x1
30006374:	e5823000 	str	r3, [r2]
30006378:	e51b3028 	ldr	r3, [fp, #-40]
3000637c:	e1510003 	cmp	r1, r3
30006380:	2a00000c 	bcs	300063b8 <.text._vsnprintf+0xd74>
30006384:	e24b2034 	sub	r2, fp, #52	; 0x34
30006388:	e5923000 	ldr	r3, [r2]
3000638c:	e1a0e003 	mov	lr, r3
30006390:	e2833001 	add	r3, r3, #1	; 0x1
30006394:	e5823000 	str	r3, [r2]
30006398:	e51bc014 	ldr	ip, [fp, #-20]
3000639c:	e3a00020 	mov	r0, #32	; 0x20
300063a0:	e51b1018 	ldr	r1, [fp, #-24]
300063a4:	e1a0200e 	mov	r2, lr
300063a8:	e51b301c 	ldr	r3, [fp, #-28]
300063ac:	e1a0e00f 	mov	lr, pc
300063b0:	e1a0f00c 	mov	pc, ip
300063b4:	eaffffea 	b	30006364 <.text._vsnprintf+0xd20>
300063b8:	e51b3020 	ldr	r3, [fp, #-32]
300063bc:	e2833001 	add	r3, r3, #1	; 0x1
300063c0:	e50b3020 	str	r3, [fp, #-32]
300063c4:	eafffcad 	b	30005680 <_vsnprintf+0x3c>
300063c8:	e59b2004 	ldr	r2, [fp, #4]
300063cc:	e59b3004 	ldr	r3, [fp, #4]
300063d0:	e2833004 	add	r3, r3, #4	; 0x4
300063d4:	e58b3004 	str	r3, [fp, #4]
300063d8:	e5923000 	ldr	r3, [r2]
300063dc:	e50b3044 	str	r3, [fp, #-68]
300063e0:	e51b102c 	ldr	r1, [fp, #-44]
300063e4:	e50b1060 	str	r1, [fp, #-96]
300063e8:	e51b302c 	ldr	r3, [fp, #-44]
300063ec:	e3530000 	cmp	r3, #0	; 0x0
300063f0:	1a000001 	bne	300063fc <.text._vsnprintf+0xdb8>
300063f4:	e3e02000 	mvn	r2, #0	; 0x0
300063f8:	e50b2060 	str	r2, [fp, #-96]
300063fc:	e51b0044 	ldr	r0, [fp, #-68]
30006400:	e51b1060 	ldr	r1, [fp, #-96]
30006404:	eb0000e4 	bl	3000679c <_strnlen_s>
30006408:	e1a03000 	mov	r3, r0
3000640c:	e50b3038 	str	r3, [fp, #-56]
30006410:	e51b3024 	ldr	r3, [fp, #-36]
30006414:	e2033b01 	and	r3, r3, #1024	; 0x400
30006418:	e3530000 	cmp	r3, #0	; 0x0
3000641c:	0a000004 	beq	30006434 <.text._vsnprintf+0xdf0>
30006420:	e51b3038 	ldr	r3, [fp, #-56]
30006424:	e51b202c 	ldr	r2, [fp, #-44]
30006428:	e1530002 	cmp	r3, r2
3000642c:	21a03002 	movcs	r3, r2
30006430:	e50b3038 	str	r3, [fp, #-56]
30006434:	e51b3024 	ldr	r3, [fp, #-36]
30006438:	e2033002 	and	r3, r3, #2	; 0x2
3000643c:	e3530000 	cmp	r3, #0	; 0x0
30006440:	1a000014 	bne	30006498 <.text._vsnprintf+0xe54>
30006444:	e24b2038 	sub	r2, fp, #56	; 0x38
30006448:	e5923000 	ldr	r3, [r2]
3000644c:	e1a01003 	mov	r1, r3
30006450:	e2833001 	add	r3, r3, #1	; 0x1
30006454:	e5823000 	str	r3, [r2]
30006458:	e51b3028 	ldr	r3, [fp, #-40]
3000645c:	e1510003 	cmp	r1, r3
30006460:	2a00000c 	bcs	30006498 <.text._vsnprintf+0xe54>
30006464:	e24b2034 	sub	r2, fp, #52	; 0x34
30006468:	e5923000 	ldr	r3, [r2]
3000646c:	e1a0e003 	mov	lr, r3
30006470:	e2833001 	add	r3, r3, #1	; 0x1
30006474:	e5823000 	str	r3, [r2]
30006478:	e51bc014 	ldr	ip, [fp, #-20]
3000647c:	e3a00020 	mov	r0, #32	; 0x20
30006480:	e51b1018 	ldr	r1, [fp, #-24]
30006484:	e1a0200e 	mov	r2, lr
30006488:	e51b301c 	ldr	r3, [fp, #-28]
3000648c:	e1a0e00f 	mov	lr, pc
30006490:	e1a0f00c 	mov	pc, ip
30006494:	eaffffea 	b	30006444 <.text._vsnprintf+0xe00>
30006498:	e51b3044 	ldr	r3, [fp, #-68]
3000649c:	e5d33000 	ldrb	r3, [r3]
300064a0:	e3530000 	cmp	r3, #0	; 0x0
300064a4:	0a00001b 	beq	30006518 <.text._vsnprintf+0xed4>
300064a8:	e51b3024 	ldr	r3, [fp, #-36]
300064ac:	e2033b01 	and	r3, r3, #1024	; 0x400
300064b0:	e3530000 	cmp	r3, #0	; 0x0
300064b4:	0a000005 	beq	300064d0 <.text._vsnprintf+0xe8c>
300064b8:	e51b302c 	ldr	r3, [fp, #-44]
300064bc:	e2433001 	sub	r3, r3, #1	; 0x1
300064c0:	e50b302c 	str	r3, [fp, #-44]
300064c4:	e3730001 	cmn	r3, #1	; 0x1
300064c8:	1a000000 	bne	300064d0 <.text._vsnprintf+0xe8c>
300064cc:	ea000011 	b	30006518 <.text._vsnprintf+0xed4>
300064d0:	e24b1044 	sub	r1, fp, #68	; 0x44
300064d4:	e5913000 	ldr	r3, [r1]
300064d8:	e1a02003 	mov	r2, r3
300064dc:	e5d20000 	ldrb	r0, [r2]
300064e0:	e2833001 	add	r3, r3, #1	; 0x1
300064e4:	e5813000 	str	r3, [r1]
300064e8:	e24b2034 	sub	r2, fp, #52	; 0x34
300064ec:	e5923000 	ldr	r3, [r2]
300064f0:	e1a0e003 	mov	lr, r3
300064f4:	e2833001 	add	r3, r3, #1	; 0x1
300064f8:	e5823000 	str	r3, [r2]
300064fc:	e51bc014 	ldr	ip, [fp, #-20]
30006500:	e51b1018 	ldr	r1, [fp, #-24]
30006504:	e1a0200e 	mov	r2, lr
30006508:	e51b301c 	ldr	r3, [fp, #-28]
3000650c:	e1a0e00f 	mov	lr, pc
30006510:	e1a0f00c 	mov	pc, ip
30006514:	eaffffdf 	b	30006498 <.text._vsnprintf+0xe54>
30006518:	e51b3024 	ldr	r3, [fp, #-36]
3000651c:	e2033002 	and	r3, r3, #2	; 0x2
30006520:	e3530000 	cmp	r3, #0	; 0x0
30006524:	0a000014 	beq	3000657c <.text._vsnprintf+0xf38>
30006528:	e24b2038 	sub	r2, fp, #56	; 0x38
3000652c:	e5923000 	ldr	r3, [r2]
30006530:	e1a01003 	mov	r1, r3
30006534:	e2833001 	add	r3, r3, #1	; 0x1
30006538:	e5823000 	str	r3, [r2]
3000653c:	e51b3028 	ldr	r3, [fp, #-40]
30006540:	e1510003 	cmp	r1, r3
30006544:	2a00000c 	bcs	3000657c <.text._vsnprintf+0xf38>
30006548:	e24b2034 	sub	r2, fp, #52	; 0x34
3000654c:	e5923000 	ldr	r3, [r2]
30006550:	e1a0e003 	mov	lr, r3
30006554:	e2833001 	add	r3, r3, #1	; 0x1
30006558:	e5823000 	str	r3, [r2]
3000655c:	e51bc014 	ldr	ip, [fp, #-20]
30006560:	e3a00020 	mov	r0, #32	; 0x20
30006564:	e51b1018 	ldr	r1, [fp, #-24]
30006568:	e1a0200e 	mov	r2, lr
3000656c:	e51b301c 	ldr	r3, [fp, #-28]
30006570:	e1a0e00f 	mov	lr, pc
30006574:	e1a0f00c 	mov	pc, ip
30006578:	eaffffea 	b	30006528 <.text._vsnprintf+0xee4>
3000657c:	e51b3020 	ldr	r3, [fp, #-32]
30006580:	e2833001 	add	r3, r3, #1	; 0x1
30006584:	e50b3020 	str	r3, [fp, #-32]
30006588:	eafffc3c 	b	30005680 <_vsnprintf+0x3c>
3000658c:	30006770 	andcc	r6, r0, r0, ror r7
30006590:	e3a03008 	mov	r3, #8	; 0x8
30006594:	e50b3028 	str	r3, [fp, #-40]
30006598:	e51b3024 	ldr	r3, [fp, #-36]
3000659c:	e3833021 	orr	r3, r3, #33	; 0x21
300065a0:	e50b3024 	str	r3, [fp, #-36]
300065a4:	e3a03000 	mov	r3, #0	; 0x0
300065a8:	e54b3045 	strb	r3, [fp, #-69]
300065ac:	e55b3045 	ldrb	r3, [fp, #-69]
300065b0:	e3530000 	cmp	r3, #0	; 0x0
300065b4:	0a00001b 	beq	30006628 <.text._vsnprintf+0xfe4>
300065b8:	e59b2004 	ldr	r2, [fp, #4]
300065bc:	e59b3004 	ldr	r3, [fp, #4]
300065c0:	e2833004 	add	r3, r3, #4	; 0x4
300065c4:	e58b3004 	str	r3, [fp, #4]
300065c8:	e5923000 	ldr	r3, [r2]
300065cc:	e3a04000 	mov	r4, #0	; 0x0
300065d0:	e88d0018 	stmia	sp, {r3, r4}
300065d4:	e3a03000 	mov	r3, #0	; 0x0
300065d8:	e58d3008 	str	r3, [sp, #8]
300065dc:	e3a0300c 	mov	r3, #12	; 0xc
300065e0:	e08d3003 	add	r3, sp, r3
300065e4:	e3a02000 	mov	r2, #0	; 0x0
300065e8:	e3a01010 	mov	r1, #16	; 0x10
300065ec:	e8830006 	stmia	r3, {r1, r2}
300065f0:	e51b302c 	ldr	r3, [fp, #-44]
300065f4:	e58d3014 	str	r3, [sp, #20]
300065f8:	e51b3028 	ldr	r3, [fp, #-40]
300065fc:	e58d3018 	str	r3, [sp, #24]
30006600:	e51b3024 	ldr	r3, [fp, #-36]
30006604:	e58d301c 	str	r3, [sp, #28]
30006608:	e51b0014 	ldr	r0, [fp, #-20]
3000660c:	e51b1018 	ldr	r1, [fp, #-24]
30006610:	e51b2034 	ldr	r2, [fp, #-52]
30006614:	e51b301c 	ldr	r3, [fp, #-28]
30006618:	ebfff6db 	bl	3000418c <_ntoa_long_long>
3000661c:	e1a03000 	mov	r3, r0
30006620:	e50b3034 	str	r3, [fp, #-52]
30006624:	ea000016 	b	30006684 <.text._vsnprintf+0x1040>
30006628:	e59b2004 	ldr	r2, [fp, #4]
3000662c:	e59b3004 	ldr	r3, [fp, #4]
30006630:	e2833004 	add	r3, r3, #4	; 0x4
30006634:	e58b3004 	str	r3, [fp, #4]
30006638:	e5923000 	ldr	r3, [r2]
3000663c:	e58d3000 	str	r3, [sp]
30006640:	e3a03000 	mov	r3, #0	; 0x0
30006644:	e58d3004 	str	r3, [sp, #4]
30006648:	e3a03010 	mov	r3, #16	; 0x10
3000664c:	e58d3008 	str	r3, [sp, #8]
30006650:	e51b302c 	ldr	r3, [fp, #-44]
30006654:	e58d300c 	str	r3, [sp, #12]
30006658:	e51b3028 	ldr	r3, [fp, #-40]
3000665c:	e58d3010 	str	r3, [sp, #16]
30006660:	e51b3024 	ldr	r3, [fp, #-36]
30006664:	e58d3014 	str	r3, [sp, #20]
30006668:	e51b0014 	ldr	r0, [fp, #-20]
3000666c:	e51b1018 	ldr	r1, [fp, #-24]
30006670:	e51b2034 	ldr	r2, [fp, #-52]
30006674:	e51b301c 	ldr	r3, [fp, #-28]
30006678:	ebfff661 	bl	30004004 <_ntoa_long>
3000667c:	e1a03000 	mov	r3, r0
30006680:	e50b3034 	str	r3, [fp, #-52]
30006684:	e51b3020 	ldr	r3, [fp, #-32]
30006688:	e2833001 	add	r3, r3, #1	; 0x1
3000668c:	e50b3020 	str	r3, [fp, #-32]
30006690:	eafffbfa 	b	30005680 <_vsnprintf+0x3c>
30006694:	e24b2034 	sub	r2, fp, #52	; 0x34
30006698:	e5923000 	ldr	r3, [r2]
3000669c:	e1a0e003 	mov	lr, r3
300066a0:	e2833001 	add	r3, r3, #1	; 0x1
300066a4:	e5823000 	str	r3, [r2]
300066a8:	e51bc014 	ldr	ip, [fp, #-20]
300066ac:	e3a00025 	mov	r0, #37	; 0x25
300066b0:	e51b1018 	ldr	r1, [fp, #-24]
300066b4:	e1a0200e 	mov	r2, lr
300066b8:	e51b301c 	ldr	r3, [fp, #-28]
300066bc:	e1a0e00f 	mov	lr, pc
300066c0:	e1a0f00c 	mov	pc, ip
300066c4:	e51b3020 	ldr	r3, [fp, #-32]
300066c8:	e2833001 	add	r3, r3, #1	; 0x1
300066cc:	e50b3020 	str	r3, [fp, #-32]
300066d0:	eafffbea 	b	30005680 <_vsnprintf+0x3c>
300066d4:	e51b3020 	ldr	r3, [fp, #-32]
300066d8:	e5d31000 	ldrb	r1, [r3]
300066dc:	e24b2034 	sub	r2, fp, #52	; 0x34
300066e0:	e5923000 	ldr	r3, [r2]
300066e4:	e1a0e003 	mov	lr, r3
300066e8:	e2833001 	add	r3, r3, #1	; 0x1
300066ec:	e5823000 	str	r3, [r2]
300066f0:	e51bc014 	ldr	ip, [fp, #-20]
300066f4:	e1a00001 	mov	r0, r1
300066f8:	e51b1018 	ldr	r1, [fp, #-24]
300066fc:	e1a0200e 	mov	r2, lr
30006700:	e51b301c 	ldr	r3, [fp, #-28]
30006704:	e1a0e00f 	mov	lr, pc
30006708:	e1a0f00c 	mov	pc, ip
3000670c:	e51b3020 	ldr	r3, [fp, #-32]
30006710:	e2833001 	add	r3, r3, #1	; 0x1
30006714:	e50b3020 	str	r3, [fp, #-32]
30006718:	eafffbd8 	b	30005680 <_vsnprintf+0x3c>
3000671c:	e51b2034 	ldr	r2, [fp, #-52]
30006720:	e51b301c 	ldr	r3, [fp, #-28]
30006724:	e1520003 	cmp	r2, r3
30006728:	3a000003 	bcc	3000673c <.text._vsnprintf+0x10f8>
3000672c:	e51b301c 	ldr	r3, [fp, #-28]
30006730:	e2433001 	sub	r3, r3, #1	; 0x1
30006734:	e50b3064 	str	r3, [fp, #-100]
30006738:	ea000001 	b	30006744 <.text._vsnprintf+0x1100>
3000673c:	e51b2034 	ldr	r2, [fp, #-52]
30006740:	e50b2064 	str	r2, [fp, #-100]
30006744:	e51bc014 	ldr	ip, [fp, #-20]
30006748:	e3a00000 	mov	r0, #0	; 0x0
3000674c:	e51b1018 	ldr	r1, [fp, #-24]
30006750:	e51b2064 	ldr	r2, [fp, #-100]
30006754:	e51b301c 	ldr	r3, [fp, #-28]
30006758:	e1a0e00f 	mov	lr, pc
3000675c:	e1a0f00c 	mov	pc, ip
30006760:	e51b3034 	ldr	r3, [fp, #-52]
30006764:	e1a00003 	mov	r0, r3
30006768:	e24bd010 	sub	sp, fp, #16	; 0x10
3000676c:	e89da810 	ldmia	sp, {r4, fp, sp, pc}
Disassembly of section .text._out_null:

30006770 <_out_null>:
30006770:	e1a0c00d 	mov	ip, sp
30006774:	e92dd800 	stmdb	sp!, {fp, ip, lr, pc}
30006778:	e24cb004 	sub	fp, ip, #4	; 0x4
3000677c:	e24dd010 	sub	sp, sp, #16	; 0x10
30006780:	e50b1014 	str	r1, [fp, #-20]
30006784:	e50b2018 	str	r2, [fp, #-24]
30006788:	e50b301c 	str	r3, [fp, #-28]
3000678c:	e1a03000 	mov	r3, r0
30006790:	e54b300d 	strb	r3, [fp, #-13]
30006794:	e24bd00c 	sub	sp, fp, #12	; 0xc
30006798:	e89da800 	ldmia	sp, {fp, sp, pc}
Disassembly of section .text._strnlen_s:

3000679c <_strnlen_s>:
3000679c:	e1a0c00d 	mov	ip, sp
300067a0:	e92dd800 	stmdb	sp!, {fp, ip, lr, pc}
300067a4:	e24cb004 	sub	fp, ip, #4	; 0x4
300067a8:	e24dd00c 	sub	sp, sp, #12	; 0xc
300067ac:	e50b0010 	str	r0, [fp, #-16]
300067b0:	e50b1014 	str	r1, [fp, #-20]
300067b4:	e51b3010 	ldr	r3, [fp, #-16]
300067b8:	e50b3018 	str	r3, [fp, #-24]
300067bc:	e51b3018 	ldr	r3, [fp, #-24]
300067c0:	e5d33000 	ldrb	r3, [r3]
300067c4:	e3530000 	cmp	r3, #0	; 0x0
300067c8:	0a000008 	beq	300067f0 <_strnlen_s+0x54>
300067cc:	e51b3014 	ldr	r3, [fp, #-20]
300067d0:	e2433001 	sub	r3, r3, #1	; 0x1
300067d4:	e50b3014 	str	r3, [fp, #-20]
300067d8:	e3730001 	cmn	r3, #1	; 0x1
300067dc:	0a000003 	beq	300067f0 <_strnlen_s+0x54>
300067e0:	e51b3018 	ldr	r3, [fp, #-24]
300067e4:	e2833001 	add	r3, r3, #1	; 0x1
300067e8:	e50b3018 	str	r3, [fp, #-24]
300067ec:	eafffff2 	b	300067bc <_strnlen_s+0x20>
300067f0:	e51b2018 	ldr	r2, [fp, #-24]
300067f4:	e51b3010 	ldr	r3, [fp, #-16]
300067f8:	e0633002 	rsb	r3, r3, r2
300067fc:	e1a00003 	mov	r0, r3
30006800:	e24bd00c 	sub	sp, fp, #12	; 0xc
30006804:	e89da800 	ldmia	sp, {fp, sp, pc}
Disassembly of section .text.printf_:

30006808 <printf_>:
30006808:	e1a0c00d 	mov	ip, sp
3000680c:	e92d000f 	stmdb	sp!, {r0, r1, r2, r3}
30006810:	e92dd800 	stmdb	sp!, {fp, ip, lr, pc}
30006814:	e24cb014 	sub	fp, ip, #20	; 0x14
30006818:	e24dd010 	sub	sp, sp, #16	; 0x10
3000681c:	e28b3008 	add	r3, fp, #8	; 0x8
30006820:	e50b3010 	str	r3, [fp, #-16]
30006824:	e24b2011 	sub	r2, fp, #17	; 0x11
30006828:	e51b3010 	ldr	r3, [fp, #-16]
3000682c:	e58d3000 	str	r3, [sp]
30006830:	e59f0024 	ldr	r0, [pc, #36]	; 3000685c <.text.printf_+0x54>
30006834:	e1a01002 	mov	r1, r2
30006838:	e3e02000 	mvn	r2, #0	; 0x0
3000683c:	e59b3004 	ldr	r3, [fp, #4]
30006840:	ebfffb7f 	bl	30005644 <_vsnprintf>
30006844:	e1a03000 	mov	r3, r0
30006848:	e50b3018 	str	r3, [fp, #-24]
3000684c:	e51b3018 	ldr	r3, [fp, #-24]
30006850:	e1a00003 	mov	r0, r3
30006854:	e24bd00c 	sub	sp, fp, #12	; 0xc
30006858:	e89da800 	ldmia	sp, {fp, sp, pc}
3000685c:	30006860 	andcc	r6, r0, r0, ror #16
Disassembly of section .text._out_char:

30006860 <_out_char>:
30006860:	e1a0c00d 	mov	ip, sp
30006864:	e92dd800 	stmdb	sp!, {fp, ip, lr, pc}
30006868:	e24cb004 	sub	fp, ip, #4	; 0x4
3000686c:	e24dd010 	sub	sp, sp, #16	; 0x10
30006870:	e50b1014 	str	r1, [fp, #-20]
30006874:	e50b2018 	str	r2, [fp, #-24]
30006878:	e50b301c 	str	r3, [fp, #-28]
3000687c:	e1a03000 	mov	r3, r0
30006880:	e54b300d 	strb	r3, [fp, #-13]
30006884:	e55b300d 	ldrb	r3, [fp, #-13]
30006888:	e3530000 	cmp	r3, #0	; 0x0
3000688c:	0a000005 	beq	300068a8 <_out_char+0x48>
30006890:	e59f3018 	ldr	r3, [pc, #24]	; 300068b0 <.text._out_char+0x50>
30006894:	e55b200d 	ldrb	r2, [fp, #-13]
30006898:	e5933000 	ldr	r3, [r3]
3000689c:	e1a00002 	mov	r0, r2
300068a0:	e1a0e00f 	mov	lr, pc
300068a4:	e1a0f003 	mov	pc, r3
300068a8:	e24bd00c 	sub	sp, fp, #12	; 0xc
300068ac:	e89da800 	ldmia	sp, {fp, sp, pc}
300068b0:	30006c6c 	andcc	r6, r0, ip, ror #24
Disassembly of section .text.printfln_:

300068b4 <printfln_>:
300068b4:	e1a0c00d 	mov	ip, sp
300068b8:	e92d000f 	stmdb	sp!, {r0, r1, r2, r3}
300068bc:	e92dd800 	stmdb	sp!, {fp, ip, lr, pc}
300068c0:	e24cb014 	sub	fp, ip, #20	; 0x14
300068c4:	e24dd010 	sub	sp, sp, #16	; 0x10
300068c8:	e28b3008 	add	r3, fp, #8	; 0x8
300068cc:	e50b3010 	str	r3, [fp, #-16]
300068d0:	e24b2011 	sub	r2, fp, #17	; 0x11
300068d4:	e51b3010 	ldr	r3, [fp, #-16]
300068d8:	e58d3000 	str	r3, [sp]
300068dc:	e59f004c 	ldr	r0, [pc, #76]	; 30006930 <.text.printfln_+0x7c>
300068e0:	e1a01002 	mov	r1, r2
300068e4:	e3e02000 	mvn	r2, #0	; 0x0
300068e8:	e59b3004 	ldr	r3, [fp, #4]
300068ec:	ebfffb54 	bl	30005644 <_vsnprintf>
300068f0:	e1a03000 	mov	r3, r0
300068f4:	e50b3018 	str	r3, [fp, #-24]
300068f8:	e59f3034 	ldr	r3, [pc, #52]	; 30006934 <.text.printfln_+0x80>
300068fc:	e5933000 	ldr	r3, [r3]
30006900:	e3a0000d 	mov	r0, #13	; 0xd
30006904:	e1a0e00f 	mov	lr, pc
30006908:	e1a0f003 	mov	pc, r3
3000690c:	e59f3020 	ldr	r3, [pc, #32]	; 30006934 <.text.printfln_+0x80>
30006910:	e5933000 	ldr	r3, [r3]
30006914:	e3a0000a 	mov	r0, #10	; 0xa
30006918:	e1a0e00f 	mov	lr, pc
3000691c:	e1a0f003 	mov	pc, r3
30006920:	e51b3018 	ldr	r3, [fp, #-24]
30006924:	e1a00003 	mov	r0, r3
30006928:	e24bd00c 	sub	sp, fp, #12	; 0xc
3000692c:	e89da800 	ldmia	sp, {fp, sp, pc}
30006930:	30006860 	andcc	r6, r0, r0, ror #16
30006934:	30006c6c 	andcc	r6, r0, ip, ror #24
Disassembly of section .text.standard_putchar_callback:

30006938 <standard_putchar_callback>:
30006938:	e1a0c00d 	mov	ip, sp
3000693c:	e92dd800 	stmdb	sp!, {fp, ip, lr, pc}
30006940:	e24cb004 	sub	fp, ip, #4	; 0x4
30006944:	e24dd004 	sub	sp, sp, #4	; 0x4
30006948:	e50b0010 	str	r0, [fp, #-16]
3000694c:	e59f2008 	ldr	r2, [pc, #8]	; 3000695c <.text.standard_putchar_callback+0x24>
30006950:	e51b3010 	ldr	r3, [fp, #-16]
30006954:	e5823000 	str	r3, [r2]
30006958:	e89da808 	ldmia	sp, {r3, fp, sp, pc}
3000695c:	30006c6c 	andcc	r6, r0, ip, ror #24
Disassembly of section .text.string_putchar_callback:

30006960 <string_putchar_callback>:
30006960:	e1a0c00d 	mov	ip, sp
30006964:	e92dd800 	stmdb	sp!, {fp, ip, lr, pc}
30006968:	e24cb004 	sub	fp, ip, #4	; 0x4
3000696c:	e24dd004 	sub	sp, sp, #4	; 0x4
30006970:	e50b0010 	str	r0, [fp, #-16]
30006974:	e59f2008 	ldr	r2, [pc, #8]	; 30006984 <.text.string_putchar_callback+0x24>
30006978:	e51b3010 	ldr	r3, [fp, #-16]
3000697c:	e5823000 	str	r3, [r2]
30006980:	e89da808 	ldmia	sp, {r3, fp, sp, pc}
30006984:	30006c70 	andcc	r6, r0, r0, ror ip
Disassembly of section .text.string_getchar_callback:

30006988 <string_getchar_callback>:
30006988:	e1a0c00d 	mov	ip, sp
3000698c:	e92dd800 	stmdb	sp!, {fp, ip, lr, pc}
30006990:	e24cb004 	sub	fp, ip, #4	; 0x4
30006994:	e24dd004 	sub	sp, sp, #4	; 0x4
30006998:	e50b0010 	str	r0, [fp, #-16]
3000699c:	e59f2008 	ldr	r2, [pc, #8]	; 300069ac <.text.string_getchar_callback+0x24>
300069a0:	e51b3010 	ldr	r3, [fp, #-16]
300069a4:	e5823000 	str	r3, [r2]
300069a8:	e89da808 	ldmia	sp, {r3, fp, sp, pc}
300069ac:	30006c74 	andcc	r6, r0, r4, ror ip
Disassembly of section .text.delay_simulate:

300069b0 <delay_simulate>:
300069b0:	e1a0c00d 	mov	ip, sp
300069b4:	e92dd800 	stmdb	sp!, {fp, ip, lr, pc}
300069b8:	e24cb004 	sub	fp, ip, #4	; 0x4
300069bc:	e24dd004 	sub	sp, sp, #4	; 0x4
300069c0:	e50b0010 	str	r0, [fp, #-16]
300069c4:	e51b3010 	ldr	r3, [fp, #-16]
300069c8:	e2433001 	sub	r3, r3, #1	; 0x1
300069cc:	e50b3010 	str	r3, [fp, #-16]
300069d0:	e3730001 	cmn	r3, #1	; 0x1
300069d4:	0a000000 	beq	300069dc <delay_simulate+0x2c>
300069d8:	eafffff9 	b	300069c4 <delay_simulate+0x14>
300069dc:	e89da808 	ldmia	sp, {r3, fp, sp, pc}
Disassembly of section .rodata:

300069e0 <__clz_tab-0x134>:
300069e0:	65637845 	strvsb	r7, [r3, #-2117]!
300069e4:	6f697470 	swivs	0x00697470
300069e8:	203a206e 	eorcss	r2, sl, lr, rrx
300069ec:	0a0d7325 	beq	30363688 <__bss_end+0x35c680>
300069f0:	00000000 	andeq	r0, r0, r0
300069f4:	52535043 	subpls	r5, r3, #67	; 0x43
300069f8:	20202020 	eorcs	r2, r0, r0, lsr #32
300069fc:	203a2020 	eorcss	r2, sl, r0, lsr #32
30006a00:	0a0d5825 	beq	3035ca9c <__bss_end+0x355a94>
30006a04:	00000000 	andeq	r0, r0, r0
30006a08:	69727453 	ldmvsdb	r2!, {r0, r1, r4, r6, sl, ip, sp, lr}^
30006a0c:	2020676e 	eorcs	r6, r0, lr, ror #14
30006a10:	203a2020 	eorcss	r2, sl, r0, lsr #32
30006a14:	0a0d7325 	beq	303636b0 <__bss_end+0x35c6a8>
30006a18:	00000000 	andeq	r0, r0, r0
30006a1c:	20495753 	subcs	r5, r9, r3, asr r7
30006a20:	206c6156 	rsbcs	r6, ip, r6, asr r1
30006a24:	5825203d 	stmplda	r5!, {r0, r2, r3, r4, r5, sp}
30006a28:	00000a0d 	andeq	r0, r0, sp, lsl #20
30006a2c:	75626544 	strvcb	r6, [r2, #-1348]!
30006a30:	203a2067 	eorcss	r2, sl, r7, rrx
30006a34:	000a0d31 	andeq	r0, sl, r1, lsr sp
30006a38:	75626544 	strvcb	r6, [r2, #-1348]!
30006a3c:	203a2067 	eorcss	r2, sl, r7, rrx
30006a40:	000a0d32 	andeq	r0, sl, r2, lsr sp
30006a44:	34325a4a 	ldrcct	r5, [r2], #-2634
30006a48:	54203034 	strplt	r3, [r0], #-52
30006a4c:	6863756f 	stmvsda	r3!, {r0, r1, r2, r3, r5, r6, r8, sl, ip, sp, lr}^
30006a50:	72635320 	rsbvc	r5, r3, #-2147483648	; 0x80000000
30006a54:	206e6565 	rsbcs	r6, lr, r5, ror #10
30006a58:	74736554 	ldrvcbt	r6, [r3], #-1364
30006a5c:	49203a20 	stmmidb	r0!, {r5, r9, fp, ip, sp}
30006a60:	46204349 	strmit	r4, [r0], -r9, asr #6
30006a64:	656d6172 	strvsb	r6, [sp, #-370]!
30006a68:	6b726f77 	blvs	31ca284c <__bss_end+0x1c9b844>
30006a6c:	214b4f20 	cmpcs	fp, r0, lsr #30
30006a70:	00000021 	andeq	r0, r0, r1, lsr #32
30006a74:	3144454c 	cmpcc	r4, ip, asr #10
30006a78:	5458455f 	ldrplb	r4, [r8], #-1375
30006a7c:	00000049 	andeq	r0, r0, r9, asr #32
30006a80:	3244454c 	subcc	r4, r4, #318767104	; 0x13000000
30006a84:	5458455f 	ldrplb	r4, [r8], #-1375
30006a88:	00000049 	andeq	r0, r0, r9, asr #32
30006a8c:	3344454c 	cmpcc	r4, #318767104	; 0x13000000
30006a90:	5458455f 	ldrplb	r4, [r8], #-1375
30006a94:	00000049 	andeq	r0, r0, r9, asr #32
30006a98:	3044454c 	subcc	r4, r4, ip, asr #10
30006a9c:	4d49545f 	cfstrdmi	mvd5, [r9, #-380]
30006aa0:	00005245 	andeq	r5, r0, r5, asr #4
30006aa4:	3144454c 	cmpcc	r4, ip, asr #10
30006aa8:	4d49545f 	cfstrdmi	mvd5, [r9, #-380]
30006aac:	00005245 	andeq	r5, r0, r5, asr #4
30006ab0:	34325a4a 	ldrcct	r5, [r2], #-2634
30006ab4:	41203034 	teqmi	r0, r4, lsr r0
30006ab8:	32394d52 	eorccs	r4, r9, #5248	; 0x1480
30006abc:	53205430 	teqpl	r0, #805306368	; 0x30000000
30006ac0:	34324333 	ldrcct	r4, [r2], #-819
30006ac4:	20413034 	subcs	r3, r1, r4, lsr r0
30006ac8:	2e642556 	mcrcs	5, 3, r2, cr4, cr6, {2}
30006acc:	00006425 	andeq	r6, r0, r5, lsr #8
30006ad0:	79706f43 	ldmvcdb	r0!, {r0, r1, r6, r8, r9, sl, fp, sp, lr}^
30006ad4:	68676972 	stmvsda	r7!, {r1, r4, r5, r6, r8, fp, sp, lr}^
30006ad8:	43282074 	teqmi	r8, #116	; 0x74
30006adc:	30322029 	eorccs	r2, r2, r9, lsr #32
30006ae0:	44203931 	strmit	r3, [r0], #-2353
30006ae4:	67697365 	strvsb	r7, [r9, -r5, ror #6]!
30006ae8:	7962206e 	stmvcdb	r2!, {r1, r2, r3, r5, r6, sp}^
30006aec:	6e614b20 	cdpvs	11, 6, cr4, cr1, cr0, {1}
30006af0:	6e616b67 	cdpvs	11, 6, cr6, cr1, cr7, {3}
30006af4:	00000067 	andeq	r0, r0, r7, rrx
30006af8:	00007325 	andeq	r7, r0, r5, lsr #6
30006afc:	006e616e 	rsbeq	r6, lr, lr, ror #2
30006b00:	2d696e66 	stccsl	14, cr6, [r9, #-408]!
30006b04:	00000000 	andeq	r0, r0, r0
30006b08:	2b696e66 	blcs	31a624a8 <__bss_end+0x1a5b4a0>
30006b0c:	00000000 	andeq	r0, r0, r0
30006b10:	00696e66 	rsbeq	r6, r9, r6, ror #28

30006b14 <__clz_tab>:
30006b14:	02020100 	andeq	r0, r2, #0	; 0x0
30006b18:	03030303 	tsteq	r3, #201326592	; 0xc000000
30006b1c:	04040404 	streq	r0, [r4], #-1028
30006b20:	04040404 	streq	r0, [r4], #-1028
30006b24:	05050505 	streq	r0, [r5, #-1285]
30006b28:	05050505 	streq	r0, [r5, #-1285]
30006b2c:	05050505 	streq	r0, [r5, #-1285]
30006b30:	05050505 	streq	r0, [r5, #-1285]
30006b34:	06060606 	streq	r0, [r6], -r6, lsl #12
30006b38:	06060606 	streq	r0, [r6], -r6, lsl #12
30006b3c:	06060606 	streq	r0, [r6], -r6, lsl #12
30006b40:	06060606 	streq	r0, [r6], -r6, lsl #12
30006b44:	06060606 	streq	r0, [r6], -r6, lsl #12
30006b48:	06060606 	streq	r0, [r6], -r6, lsl #12
30006b4c:	06060606 	streq	r0, [r6], -r6, lsl #12
30006b50:	06060606 	streq	r0, [r6], -r6, lsl #12
30006b54:	07070707 	streq	r0, [r7, -r7, lsl #14]
30006b58:	07070707 	streq	r0, [r7, -r7, lsl #14]
30006b5c:	07070707 	streq	r0, [r7, -r7, lsl #14]
30006b60:	07070707 	streq	r0, [r7, -r7, lsl #14]
30006b64:	07070707 	streq	r0, [r7, -r7, lsl #14]
30006b68:	07070707 	streq	r0, [r7, -r7, lsl #14]
30006b6c:	07070707 	streq	r0, [r7, -r7, lsl #14]
30006b70:	07070707 	streq	r0, [r7, -r7, lsl #14]
30006b74:	07070707 	streq	r0, [r7, -r7, lsl #14]
30006b78:	07070707 	streq	r0, [r7, -r7, lsl #14]
30006b7c:	07070707 	streq	r0, [r7, -r7, lsl #14]
30006b80:	07070707 	streq	r0, [r7, -r7, lsl #14]
30006b84:	07070707 	streq	r0, [r7, -r7, lsl #14]
30006b88:	07070707 	streq	r0, [r7, -r7, lsl #14]
30006b8c:	07070707 	streq	r0, [r7, -r7, lsl #14]
30006b90:	07070707 	streq	r0, [r7, -r7, lsl #14]
30006b94:	08080808 	stmeqda	r8, {r3, fp}
30006b98:	08080808 	stmeqda	r8, {r3, fp}
30006b9c:	08080808 	stmeqda	r8, {r3, fp}
30006ba0:	08080808 	stmeqda	r8, {r3, fp}
30006ba4:	08080808 	stmeqda	r8, {r3, fp}
30006ba8:	08080808 	stmeqda	r8, {r3, fp}
30006bac:	08080808 	stmeqda	r8, {r3, fp}
30006bb0:	08080808 	stmeqda	r8, {r3, fp}
30006bb4:	08080808 	stmeqda	r8, {r3, fp}
30006bb8:	08080808 	stmeqda	r8, {r3, fp}
30006bbc:	08080808 	stmeqda	r8, {r3, fp}
30006bc0:	08080808 	stmeqda	r8, {r3, fp}
30006bc4:	08080808 	stmeqda	r8, {r3, fp}
30006bc8:	08080808 	stmeqda	r8, {r3, fp}
30006bcc:	08080808 	stmeqda	r8, {r3, fp}
30006bd0:	08080808 	stmeqda	r8, {r3, fp}
30006bd4:	08080808 	stmeqda	r8, {r3, fp}
30006bd8:	08080808 	stmeqda	r8, {r3, fp}
30006bdc:	08080808 	stmeqda	r8, {r3, fp}
30006be0:	08080808 	stmeqda	r8, {r3, fp}
30006be4:	08080808 	stmeqda	r8, {r3, fp}
30006be8:	08080808 	stmeqda	r8, {r3, fp}
30006bec:	08080808 	stmeqda	r8, {r3, fp}
30006bf0:	08080808 	stmeqda	r8, {r3, fp}
30006bf4:	08080808 	stmeqda	r8, {r3, fp}
30006bf8:	08080808 	stmeqda	r8, {r3, fp}
30006bfc:	08080808 	stmeqda	r8, {r3, fp}
30006c00:	08080808 	stmeqda	r8, {r3, fp}
30006c04:	08080808 	stmeqda	r8, {r3, fp}
30006c08:	08080808 	stmeqda	r8, {r3, fp}
30006c0c:	08080808 	stmeqda	r8, {r3, fp}
30006c10:	08080808 	stmeqda	r8, {r3, fp}
Disassembly of section .rodata.pow10.0:

30006c14 <pow10.0>:
30006c14:	3ff00000 	swicc	0x00f00000	; IMB
30006c18:	00000000 	andeq	r0, r0, r0
30006c1c:	40240000 	eormi	r0, r4, r0
30006c20:	00000000 	andeq	r0, r0, r0
30006c24:	40590000 	submis	r0, r9, r0
30006c28:	00000000 	andeq	r0, r0, r0
30006c2c:	408f4000 	addmi	r4, pc, r0
30006c30:	00000000 	andeq	r0, r0, r0
30006c34:	40c38800 	sbcmi	r8, r3, r0, lsl #16
30006c38:	00000000 	andeq	r0, r0, r0
30006c3c:	40f86a00 	rscmis	r6, r8, r0, lsl #20
30006c40:	00000000 	andeq	r0, r0, r0
30006c44:	412e8480 	smlawbmi	lr, r0, r4, r8
30006c48:	00000000 	andeq	r0, r0, r0
30006c4c:	416312d0 	ldrmid	r1, [r3, #-32]!
30006c50:	00000000 	andeq	r0, r0, r0
30006c54:	4197d784 	orrmis	sp, r7, r4, lsl #15
30006c58:	00000000 	andeq	r0, r0, r0
30006c5c:	41cdcd65 	bicmi	ip, sp, r5, ror #26
30006c60:	00000000 	andeq	r0, r0, r0
Disassembly of section .data.str:

30006c64 <str>:
30006c64:	30006a44 	andcc	r6, r0, r4, asr #20
Disassembly of section .data.nCount0.0:

30006c68 <nCount0.0>:
	...
Disassembly of section .data.tTimer0.1:

30006c69 <tTimer0.1>:
	...
Disassembly of section .data.nCount1.2:

30006c6a <nCount1.2>:
	...
Disassembly of section .data.tTimer1.3:

30006c6b <tTimer1.3>:
	...
Disassembly of section .data._putchar:

30006c6c <_putchar>:
30006c6c:	00000000 	andeq	r0, r0, r0
Disassembly of section .data._string_putchar:

30006c70 <_string_putchar>:
30006c70:	00000000 	andeq	r0, r0, r0
Disassembly of section .data._string_getchar:

30006c74 <_string_getchar>:
30006c74:	00000000 	andeq	r0, r0, r0
Disassembly of section .got:

30006c78 <.got>:
30006c78:	30006b14 	andcc	r6, r0, r4, lsl fp
Disassembly of section .got.plt:

30006c7c <_GLOBAL_OFFSET_TABLE_>:
	...
Disassembly of section .bss.S3C2440_IRQ_Func_Array:

30006c88 <S3C2440_IRQ_Func_Array>:
	...
Disassembly of section .bss.S3C2440_EXTI_IRQ_Func_Array:

30006d08 <S3C2440_EXTI_IRQ_Func_Array>:
	...
Disassembly of section .bss.S3C2440_Timer_IRQ_Func_Array:

30006e88 <S3C2440_Timer_IRQ_Func_Array>:
	...
Disassembly of section .debug_aranges:

00000000 <.debug_aranges>:
   0:	0000001c 	andeq	r0, r0, ip, lsl r0
   4:	00000002 	andeq	r0, r0, r2
   8:	00040000 	andeq	r0, r4, r0
   c:	00000000 	andeq	r0, r0, r0
  10:	30001610 	andcc	r1, r0, r0, lsl r6
  14:	00000388 	andeq	r0, r0, r8, lsl #7
	...
  20:	0000001c 	andeq	r0, r0, ip, lsl r0
  24:	01000002 	tsteq	r0, r2
  28:	00040000 	andeq	r0, r4, r0
  2c:	00000000 	andeq	r0, r0, r0
  30:	30001998 	mulcc	r0, r8, r9
  34:	00000580 	andeq	r0, r0, r0, lsl #11
	...
  40:	0000001c 	andeq	r0, r0, ip, lsl r0
  44:	02000002 	andeq	r0, r0, #2	; 0x2
  48:	00040000 	andeq	r0, r4, r0
  4c:	00000000 	andeq	r0, r0, r0
  50:	30001f18 	andcc	r1, r0, r8, lsl pc
  54:	000000a4 	andeq	r0, r0, r4, lsr #1
	...
  60:	0000001c 	andeq	r0, r0, ip, lsl r0
  64:	03000002 	tsteq	r0, #2	; 0x2
  68:	00040000 	andeq	r0, r4, r0
  6c:	00000000 	andeq	r0, r0, r0
  70:	30001fbc 	strcch	r1, [r0], -ip
  74:	00000080 	andeq	r0, r0, r0, lsl #1
	...
  80:	0000001c 	andeq	r0, r0, ip, lsl r0
  84:	04000002 	streq	r0, [r0], #-2
  88:	00040000 	andeq	r0, r4, r0
  8c:	00000000 	andeq	r0, r0, r0
  90:	3000203c 	andcc	r2, r0, ip, lsr r0
  94:	00000074 	andeq	r0, r0, r4, ror r0
	...
  a0:	0000001c 	andeq	r0, r0, ip, lsl r0
  a4:	05000002 	streq	r0, [r0, #-2]
  a8:	00040000 	andeq	r0, r4, r0
	...
  b4:	00000218 	andeq	r0, r0, r8, lsl r2
	...
  c0:	0000001c 	andeq	r0, r0, ip, lsl r0
  c4:	06000002 	streq	r0, [r0], -r2
  c8:	00040000 	andeq	r0, r4, r0
	...
  d4:	0000035c 	andeq	r0, r0, ip, asr r3
	...
Disassembly of section .debug_info:

00000000 <.debug_info>:
   0:	000000fc 	streqd	r0, [r0], -ip
   4:	00000002 	andeq	r0, r0, r2
   8:	01040000 	tsteq	r4, r0
   c:	00000000 	andeq	r0, r0, r0
  10:	30001610 	andcc	r1, r0, r0, lsl r6
  14:	30001998 	mulcc	r0, r8, r9
  18:	726f772f 	rsbvc	r7, pc, #12320768	; 0xbc0000
  1c:	6f742f6b 	swivs	0x00742f6b
  20:	2f736c6f 	swics	0x00736c6f
  24:	61657263 	cmnvs	r5, r3, ror #4
  28:	635f6574 	cmpvs	pc, #486539264	; 0x1d000000
  2c:	73736f72 	cmnvc	r3, #456	; 0x1c8
  30:	6c6f6f74 	stcvsl	15, cr6, [pc], #-464
  34:	72632f73 	rsbvc	r2, r3, #460	; 0x1cc
  38:	7473736f 	ldrvcbt	r7, [r3], #-879
  3c:	2d6c6f6f 	stccsl	15, cr6, [ip, #-444]!
  40:	33342e30 	teqcc	r4, #768	; 0x300
  44:	6975622f 	ldmvsdb	r5!, {r0, r1, r2, r3, r5, r9, sp, lr}^
  48:	612f646c 	teqvs	pc, ip, ror #8
  4c:	6c2d6d72 	stcvs	13, cr6, [sp], #-456
  50:	78756e69 	ldmvcda	r5!, {r0, r3, r5, r6, r9, sl, fp, sp, lr}^
  54:	6363672f 	cmnvs	r3, #12320768	; 0xbc0000
  58:	342e332d 	strcct	r3, [lr], #-813
  5c:	672d352e 	strvs	r3, [sp, -lr, lsr #10]!
  60:	6362696c 	cmnvs	r2, #1769472	; 0x1b0000
  64:	332e322d 	teqcc	lr, #-805306366	; 0xd0000002
  68:	672f362e 	strvs	r3, [pc, -lr, lsr #12]!
  6c:	332d6363 	teqcc	sp, #-1946157055	; 0x8c000001
  70:	352e342e 	strcc	r3, [lr, #-1070]!
  74:	6363672f 	cmnvs	r3, #12320768	; 0xbc0000
  78:	6e6f632f 	cdpvs	3, 6, cr6, cr15, cr15, {1}
  7c:	2f676966 	swics	0x00676966
  80:	2f6d7261 	swics	0x006d7261
  84:	65656569 	strvsb	r6, [r5, #-1385]!
  88:	2d343537 	cfldr32cs	mvfx3, [r4, #-220]!
  8c:	532e6664 	teqpl	lr, #104857600	; 0x6400000
  90:	6f772f00 	swivs	0x00772f00
  94:	742f6b72 	strvct	r6, [pc], #2930	; 9c <__code_start-0x2fffff64>
  98:	736c6f6f 	cmnvc	ip, #444	; 0x1bc
  9c:	6572632f 	ldrvsb	r6, [r2, #-815]!
  a0:	5f657461 	swipl	0x00657461
  a4:	736f7263 	cmnvc	pc, #805306374	; 0x30000006
  a8:	6f6f7473 	swivs	0x006f7473
  ac:	632f736c 	teqvs	pc, #-1342177279	; 0xb0000001
  b0:	73736f72 	cmnvc	r3, #456	; 0x1c8
  b4:	6c6f6f74 	stcvsl	15, cr6, [pc], #-464
  b8:	342e302d 	strcct	r3, [lr], #-45
  bc:	75622f33 	strvcb	r2, [r2, #-3891]!
  c0:	2f646c69 	swics	0x00646c69
  c4:	2d6d7261 	sfmcs	f7, 2, [sp, #-388]!
  c8:	756e696c 	strvcb	r6, [lr, #-2412]!
  cc:	63672f78 	cmnvs	r7, #480	; 0x1e0
  d0:	2e332d63 	cdpcs	13, 3, cr2, cr3, cr3, {3}
  d4:	2d352e34 	ldccs	14, cr2, [r5, #-208]!
  d8:	62696c67 	rsbvs	r6, r9, #26368	; 0x6700
  dc:	2e322d63 	cdpcs	13, 3, cr2, cr2, cr3, {3}
  e0:	2f362e33 	swics	0x00362e33
  e4:	6c697562 	cfstr64vs	mvdx7, [r9], #-392
  e8:	63672d64 	cmnvs	r7, #6400	; 0x1900
  ec:	63672f63 	cmnvs	r7, #396	; 0x18c
  f0:	4e470063 	cdpmi	0, 4, cr0, cr7, cr3, {3}
  f4:	53412055 	cmppl	r1, #85	; 0x55
  f8:	312e3220 	teqcc	lr, r0, lsr #4
  fc:	80010035 	andhi	r0, r1, r5, lsr r0
 100:	000000fc 	streqd	r0, [r0], -ip
 104:	00140002 	andeqs	r0, r4, r2
 108:	01040000 	tsteq	r4, r0
 10c:	000001fe 	streqd	r0, [r0], -lr
 110:	30001998 	mulcc	r0, r8, r9
 114:	30001f18 	andcc	r1, r0, r8, lsl pc
 118:	726f772f 	rsbvc	r7, pc, #12320768	; 0xbc0000
 11c:	6f742f6b 	swivs	0x00742f6b
 120:	2f736c6f 	swics	0x00736c6f
 124:	61657263 	cmnvs	r5, r3, ror #4
 128:	635f6574 	cmpvs	pc, #486539264	; 0x1d000000
 12c:	73736f72 	cmnvc	r3, #456	; 0x1c8
 130:	6c6f6f74 	stcvsl	15, cr6, [pc], #-464
 134:	72632f73 	rsbvc	r2, r3, #460	; 0x1cc
 138:	7473736f 	ldrvcbt	r7, [r3], #-879
 13c:	2d6c6f6f 	stccsl	15, cr6, [ip, #-444]!
 140:	33342e30 	teqcc	r4, #768	; 0x300
 144:	6975622f 	ldmvsdb	r5!, {r0, r1, r2, r3, r5, r9, sp, lr}^
 148:	612f646c 	teqvs	pc, ip, ror #8
 14c:	6c2d6d72 	stcvs	13, cr6, [sp], #-456
 150:	78756e69 	ldmvcda	r5!, {r0, r3, r5, r6, r9, sl, fp, sp, lr}^
 154:	6363672f 	cmnvs	r3, #12320768	; 0xbc0000
 158:	342e332d 	strcct	r3, [lr], #-813
 15c:	672d352e 	strvs	r3, [sp, -lr, lsr #10]!
 160:	6362696c 	cmnvs	r2, #1769472	; 0x1b0000
 164:	332e322d 	teqcc	lr, #-805306366	; 0xd0000002
 168:	672f362e 	strvs	r3, [pc, -lr, lsr #12]!
 16c:	332d6363 	teqcc	sp, #-1946157055	; 0x8c000001
 170:	352e342e 	strcc	r3, [lr, #-1070]!
 174:	6363672f 	cmnvs	r3, #12320768	; 0xbc0000
 178:	6e6f632f 	cdpvs	3, 6, cr6, cr15, cr15, {1}
 17c:	2f676966 	swics	0x00676966
 180:	2f6d7261 	swics	0x006d7261
 184:	65656569 	strvsb	r6, [r5, #-1385]!
 188:	2d343537 	cfldr32cs	mvfx3, [r4, #-220]!
 18c:	532e6664 	teqpl	lr, #104857600	; 0x6400000
 190:	6f772f00 	swivs	0x00772f00
 194:	742f6b72 	strvct	r6, [pc], #2930	; 19c <__code_start-0x2ffffe64>
 198:	736c6f6f 	cmnvc	ip, #444	; 0x1bc
 19c:	6572632f 	ldrvsb	r6, [r2, #-815]!
 1a0:	5f657461 	swipl	0x00657461
 1a4:	736f7263 	cmnvc	pc, #805306374	; 0x30000006
 1a8:	6f6f7473 	swivs	0x006f7473
 1ac:	632f736c 	teqvs	pc, #-1342177279	; 0xb0000001
 1b0:	73736f72 	cmnvc	r3, #456	; 0x1c8
 1b4:	6c6f6f74 	stcvsl	15, cr6, [pc], #-464
 1b8:	342e302d 	strcct	r3, [lr], #-45
 1bc:	75622f33 	strvcb	r2, [r2, #-3891]!
 1c0:	2f646c69 	swics	0x00646c69
 1c4:	2d6d7261 	sfmcs	f7, 2, [sp, #-388]!
 1c8:	756e696c 	strvcb	r6, [lr, #-2412]!
 1cc:	63672f78 	cmnvs	r7, #480	; 0x1e0
 1d0:	2e332d63 	cdpcs	13, 3, cr2, cr3, cr3, {3}
 1d4:	2d352e34 	ldccs	14, cr2, [r5, #-208]!
 1d8:	62696c67 	rsbvs	r6, r9, #26368	; 0x6700
 1dc:	2e322d63 	cdpcs	13, 3, cr2, cr2, cr3, {3}
 1e0:	2f362e33 	swics	0x00362e33
 1e4:	6c697562 	cfstr64vs	mvdx7, [r9], #-392
 1e8:	63672d64 	cmnvs	r7, #6400	; 0x1900
 1ec:	63672f63 	cmnvs	r7, #396	; 0x18c
 1f0:	4e470063 	cdpmi	0, 4, cr0, cr7, cr3, {3}
 1f4:	53412055 	cmppl	r1, #85	; 0x55
 1f8:	312e3220 	teqcc	lr, r0, lsr #4
 1fc:	80010035 	andhi	r0, r1, r5, lsr r0
 200:	000000fc 	streqd	r0, [r0], -ip
 204:	00280002 	eoreq	r0, r8, r2
 208:	01040000 	tsteq	r4, r0
 20c:	00000494 	muleq	r0, r4, r4
 210:	30001f18 	andcc	r1, r0, r8, lsl pc
 214:	30001fbc 	strcch	r1, [r0], -ip
 218:	726f772f 	rsbvc	r7, pc, #12320768	; 0xbc0000
 21c:	6f742f6b 	swivs	0x00742f6b
 220:	2f736c6f 	swics	0x00736c6f
 224:	61657263 	cmnvs	r5, r3, ror #4
 228:	635f6574 	cmpvs	pc, #486539264	; 0x1d000000
 22c:	73736f72 	cmnvc	r3, #456	; 0x1c8
 230:	6c6f6f74 	stcvsl	15, cr6, [pc], #-464
 234:	72632f73 	rsbvc	r2, r3, #460	; 0x1cc
 238:	7473736f 	ldrvcbt	r7, [r3], #-879
 23c:	2d6c6f6f 	stccsl	15, cr6, [ip, #-444]!
 240:	33342e30 	teqcc	r4, #768	; 0x300
 244:	6975622f 	ldmvsdb	r5!, {r0, r1, r2, r3, r5, r9, sp, lr}^
 248:	612f646c 	teqvs	pc, ip, ror #8
 24c:	6c2d6d72 	stcvs	13, cr6, [sp], #-456
 250:	78756e69 	ldmvcda	r5!, {r0, r3, r5, r6, r9, sl, fp, sp, lr}^
 254:	6363672f 	cmnvs	r3, #12320768	; 0xbc0000
 258:	342e332d 	strcct	r3, [lr], #-813
 25c:	672d352e 	strvs	r3, [sp, -lr, lsr #10]!
 260:	6362696c 	cmnvs	r2, #1769472	; 0x1b0000
 264:	332e322d 	teqcc	lr, #-805306366	; 0xd0000002
 268:	672f362e 	strvs	r3, [pc, -lr, lsr #12]!
 26c:	332d6363 	teqcc	sp, #-1946157055	; 0x8c000001
 270:	352e342e 	strcc	r3, [lr, #-1070]!
 274:	6363672f 	cmnvs	r3, #12320768	; 0xbc0000
 278:	6e6f632f 	cdpvs	3, 6, cr6, cr15, cr15, {1}
 27c:	2f676966 	swics	0x00676966
 280:	2f6d7261 	swics	0x006d7261
 284:	65656569 	strvsb	r6, [r5, #-1385]!
 288:	2d343537 	cfldr32cs	mvfx3, [r4, #-220]!
 28c:	532e6664 	teqpl	lr, #104857600	; 0x6400000
 290:	6f772f00 	swivs	0x00772f00
 294:	742f6b72 	strvct	r6, [pc], #2930	; 29c <__code_start-0x2ffffd64>
 298:	736c6f6f 	cmnvc	ip, #444	; 0x1bc
 29c:	6572632f 	ldrvsb	r6, [r2, #-815]!
 2a0:	5f657461 	swipl	0x00657461
 2a4:	736f7263 	cmnvc	pc, #805306374	; 0x30000006
 2a8:	6f6f7473 	swivs	0x006f7473
 2ac:	632f736c 	teqvs	pc, #-1342177279	; 0xb0000001
 2b0:	73736f72 	cmnvc	r3, #456	; 0x1c8
 2b4:	6c6f6f74 	stcvsl	15, cr6, [pc], #-464
 2b8:	342e302d 	strcct	r3, [lr], #-45
 2bc:	75622f33 	strvcb	r2, [r2, #-3891]!
 2c0:	2f646c69 	swics	0x00646c69
 2c4:	2d6d7261 	sfmcs	f7, 2, [sp, #-388]!
 2c8:	756e696c 	strvcb	r6, [lr, #-2412]!
 2cc:	63672f78 	cmnvs	r7, #480	; 0x1e0
 2d0:	2e332d63 	cdpcs	13, 3, cr2, cr3, cr3, {3}
 2d4:	2d352e34 	ldccs	14, cr2, [r5, #-208]!
 2d8:	62696c67 	rsbvs	r6, r9, #26368	; 0x6700
 2dc:	2e322d63 	cdpcs	13, 3, cr2, cr2, cr3, {3}
 2e0:	2f362e33 	swics	0x00362e33
 2e4:	6c697562 	cfstr64vs	mvdx7, [r9], #-392
 2e8:	63672d64 	cmnvs	r7, #6400	; 0x1900
 2ec:	63672f63 	cmnvs	r7, #396	; 0x18c
 2f0:	4e470063 	cdpmi	0, 4, cr0, cr7, cr3, {3}
 2f4:	53412055 	cmppl	r1, #85	; 0x55
 2f8:	312e3220 	teqcc	lr, r0, lsr #4
 2fc:	80010035 	andhi	r0, r1, r5, lsr r0
 300:	000000fc 	streqd	r0, [r0], -ip
 304:	003c0002 	eoreqs	r0, ip, r2
 308:	01040000 	tsteq	r4, r0
 30c:	000005b0 	streqh	r0, [r0], -r0
 310:	30001fbc 	strcch	r1, [r0], -ip
 314:	3000203c 	andcc	r2, r0, ip, lsr r0
 318:	726f772f 	rsbvc	r7, pc, #12320768	; 0xbc0000
 31c:	6f742f6b 	swivs	0x00742f6b
 320:	2f736c6f 	swics	0x00736c6f
 324:	61657263 	cmnvs	r5, r3, ror #4
 328:	635f6574 	cmpvs	pc, #486539264	; 0x1d000000
 32c:	73736f72 	cmnvc	r3, #456	; 0x1c8
 330:	6c6f6f74 	stcvsl	15, cr6, [pc], #-464
 334:	72632f73 	rsbvc	r2, r3, #460	; 0x1cc
 338:	7473736f 	ldrvcbt	r7, [r3], #-879
 33c:	2d6c6f6f 	stccsl	15, cr6, [ip, #-444]!
 340:	33342e30 	teqcc	r4, #768	; 0x300
 344:	6975622f 	ldmvsdb	r5!, {r0, r1, r2, r3, r5, r9, sp, lr}^
 348:	612f646c 	teqvs	pc, ip, ror #8
 34c:	6c2d6d72 	stcvs	13, cr6, [sp], #-456
 350:	78756e69 	ldmvcda	r5!, {r0, r3, r5, r6, r9, sl, fp, sp, lr}^
 354:	6363672f 	cmnvs	r3, #12320768	; 0xbc0000
 358:	342e332d 	strcct	r3, [lr], #-813
 35c:	672d352e 	strvs	r3, [sp, -lr, lsr #10]!
 360:	6362696c 	cmnvs	r2, #1769472	; 0x1b0000
 364:	332e322d 	teqcc	lr, #-805306366	; 0xd0000002
 368:	672f362e 	strvs	r3, [pc, -lr, lsr #12]!
 36c:	332d6363 	teqcc	sp, #-1946157055	; 0x8c000001
 370:	352e342e 	strcc	r3, [lr, #-1070]!
 374:	6363672f 	cmnvs	r3, #12320768	; 0xbc0000
 378:	6e6f632f 	cdpvs	3, 6, cr6, cr15, cr15, {1}
 37c:	2f676966 	swics	0x00676966
 380:	2f6d7261 	swics	0x006d7261
 384:	65656569 	strvsb	r6, [r5, #-1385]!
 388:	2d343537 	cfldr32cs	mvfx3, [r4, #-220]!
 38c:	532e6664 	teqpl	lr, #104857600	; 0x6400000
 390:	6f772f00 	swivs	0x00772f00
 394:	742f6b72 	strvct	r6, [pc], #2930	; 39c <__code_start-0x2ffffc64>
 398:	736c6f6f 	cmnvc	ip, #444	; 0x1bc
 39c:	6572632f 	ldrvsb	r6, [r2, #-815]!
 3a0:	5f657461 	swipl	0x00657461
 3a4:	736f7263 	cmnvc	pc, #805306374	; 0x30000006
 3a8:	6f6f7473 	swivs	0x006f7473
 3ac:	632f736c 	teqvs	pc, #-1342177279	; 0xb0000001
 3b0:	73736f72 	cmnvc	r3, #456	; 0x1c8
 3b4:	6c6f6f74 	stcvsl	15, cr6, [pc], #-464
 3b8:	342e302d 	strcct	r3, [lr], #-45
 3bc:	75622f33 	strvcb	r2, [r2, #-3891]!
 3c0:	2f646c69 	swics	0x00646c69
 3c4:	2d6d7261 	sfmcs	f7, 2, [sp, #-388]!
 3c8:	756e696c 	strvcb	r6, [lr, #-2412]!
 3cc:	63672f78 	cmnvs	r7, #480	; 0x1e0
 3d0:	2e332d63 	cdpcs	13, 3, cr2, cr3, cr3, {3}
 3d4:	2d352e34 	ldccs	14, cr2, [r5, #-208]!
 3d8:	62696c67 	rsbvs	r6, r9, #26368	; 0x6700
 3dc:	2e322d63 	cdpcs	13, 3, cr2, cr2, cr3, {3}
 3e0:	2f362e33 	swics	0x00362e33
 3e4:	6c697562 	cfstr64vs	mvdx7, [r9], #-392
 3e8:	63672d64 	cmnvs	r7, #6400	; 0x1900
 3ec:	63672f63 	cmnvs	r7, #396	; 0x18c
 3f0:	4e470063 	cdpmi	0, 4, cr0, cr7, cr3, {3}
 3f4:	53412055 	cmppl	r1, #85	; 0x55
 3f8:	312e3220 	teqcc	lr, r0, lsr #4
 3fc:	80010035 	andhi	r0, r1, r5, lsr r0
 400:	000000fc 	streqd	r0, [r0], -ip
 404:	00500002 	subeqs	r0, r0, r2
 408:	01040000 	tsteq	r4, r0
 40c:	0000068f 	andeq	r0, r0, pc, lsl #13
 410:	3000203c 	andcc	r2, r0, ip, lsr r0
 414:	300020b0 	strcch	r2, [r0], -r0
 418:	726f772f 	rsbvc	r7, pc, #12320768	; 0xbc0000
 41c:	6f742f6b 	swivs	0x00742f6b
 420:	2f736c6f 	swics	0x00736c6f
 424:	61657263 	cmnvs	r5, r3, ror #4
 428:	635f6574 	cmpvs	pc, #486539264	; 0x1d000000
 42c:	73736f72 	cmnvc	r3, #456	; 0x1c8
 430:	6c6f6f74 	stcvsl	15, cr6, [pc], #-464
 434:	72632f73 	rsbvc	r2, r3, #460	; 0x1cc
 438:	7473736f 	ldrvcbt	r7, [r3], #-879
 43c:	2d6c6f6f 	stccsl	15, cr6, [ip, #-444]!
 440:	33342e30 	teqcc	r4, #768	; 0x300
 444:	6975622f 	ldmvsdb	r5!, {r0, r1, r2, r3, r5, r9, sp, lr}^
 448:	612f646c 	teqvs	pc, ip, ror #8
 44c:	6c2d6d72 	stcvs	13, cr6, [sp], #-456
 450:	78756e69 	ldmvcda	r5!, {r0, r3, r5, r6, r9, sl, fp, sp, lr}^
 454:	6363672f 	cmnvs	r3, #12320768	; 0xbc0000
 458:	342e332d 	strcct	r3, [lr], #-813
 45c:	672d352e 	strvs	r3, [sp, -lr, lsr #10]!
 460:	6362696c 	cmnvs	r2, #1769472	; 0x1b0000
 464:	332e322d 	teqcc	lr, #-805306366	; 0xd0000002
 468:	672f362e 	strvs	r3, [pc, -lr, lsr #12]!
 46c:	332d6363 	teqcc	sp, #-1946157055	; 0x8c000001
 470:	352e342e 	strcc	r3, [lr, #-1070]!
 474:	6363672f 	cmnvs	r3, #12320768	; 0xbc0000
 478:	6e6f632f 	cdpvs	3, 6, cr6, cr15, cr15, {1}
 47c:	2f676966 	swics	0x00676966
 480:	2f6d7261 	swics	0x006d7261
 484:	65656569 	strvsb	r6, [r5, #-1385]!
 488:	2d343537 	cfldr32cs	mvfx3, [r4, #-220]!
 48c:	532e6664 	teqpl	lr, #104857600	; 0x6400000
 490:	6f772f00 	swivs	0x00772f00
 494:	742f6b72 	strvct	r6, [pc], #2930	; 49c <__code_start-0x2ffffb64>
 498:	736c6f6f 	cmnvc	ip, #444	; 0x1bc
 49c:	6572632f 	ldrvsb	r6, [r2, #-815]!
 4a0:	5f657461 	swipl	0x00657461
 4a4:	736f7263 	cmnvc	pc, #805306374	; 0x30000006
 4a8:	6f6f7473 	swivs	0x006f7473
 4ac:	632f736c 	teqvs	pc, #-1342177279	; 0xb0000001
 4b0:	73736f72 	cmnvc	r3, #456	; 0x1c8
 4b4:	6c6f6f74 	stcvsl	15, cr6, [pc], #-464
 4b8:	342e302d 	strcct	r3, [lr], #-45
 4bc:	75622f33 	strvcb	r2, [r2, #-3891]!
 4c0:	2f646c69 	swics	0x00646c69
 4c4:	2d6d7261 	sfmcs	f7, 2, [sp, #-388]!
 4c8:	756e696c 	strvcb	r6, [lr, #-2412]!
 4cc:	63672f78 	cmnvs	r7, #480	; 0x1e0
 4d0:	2e332d63 	cdpcs	13, 3, cr2, cr3, cr3, {3}
 4d4:	2d352e34 	ldccs	14, cr2, [r5, #-208]!
 4d8:	62696c67 	rsbvs	r6, r9, #26368	; 0x6700
 4dc:	2e322d63 	cdpcs	13, 3, cr2, cr2, cr3, {3}
 4e0:	2f362e33 	swics	0x00362e33
 4e4:	6c697562 	cfstr64vs	mvdx7, [r9], #-392
 4e8:	63672d64 	cmnvs	r7, #6400	; 0x1900
 4ec:	63672f63 	cmnvs	r7, #396	; 0x18c
 4f0:	4e470063 	cdpmi	0, 4, cr0, cr7, cr3, {3}
 4f4:	53412055 	cmppl	r1, #85	; 0x55
 4f8:	312e3220 	teqcc	lr, r0, lsr #4
 4fc:	80010035 	andhi	r0, r1, r5, lsr r0
 500:	000000fc 	streqd	r0, [r0], -ip
 504:	00640002 	rsbeq	r0, r4, r2
 508:	01040000 	tsteq	r4, r0
 50c:	0000076b 	andeq	r0, r0, fp, ror #14
 510:	00000000 	andeq	r0, r0, r0
 514:	00000218 	andeq	r0, r0, r8, lsl r2
 518:	726f772f 	rsbvc	r7, pc, #12320768	; 0xbc0000
 51c:	6f742f6b 	swivs	0x00742f6b
 520:	2f736c6f 	swics	0x00736c6f
 524:	61657263 	cmnvs	r5, r3, ror #4
 528:	635f6574 	cmpvs	pc, #486539264	; 0x1d000000
 52c:	73736f72 	cmnvc	r3, #456	; 0x1c8
 530:	6c6f6f74 	stcvsl	15, cr6, [pc], #-464
 534:	72632f73 	rsbvc	r2, r3, #460	; 0x1cc
 538:	7473736f 	ldrvcbt	r7, [r3], #-879
 53c:	2d6c6f6f 	stccsl	15, cr6, [ip, #-444]!
 540:	33342e30 	teqcc	r4, #768	; 0x300
 544:	6975622f 	ldmvsdb	r5!, {r0, r1, r2, r3, r5, r9, sp, lr}^
 548:	612f646c 	teqvs	pc, ip, ror #8
 54c:	6c2d6d72 	stcvs	13, cr6, [sp], #-456
 550:	78756e69 	ldmvcda	r5!, {r0, r3, r5, r6, r9, sl, fp, sp, lr}^
 554:	6363672f 	cmnvs	r3, #12320768	; 0xbc0000
 558:	342e332d 	strcct	r3, [lr], #-813
 55c:	672d352e 	strvs	r3, [sp, -lr, lsr #10]!
 560:	6362696c 	cmnvs	r2, #1769472	; 0x1b0000
 564:	332e322d 	teqcc	lr, #-805306366	; 0xd0000002
 568:	672f362e 	strvs	r3, [pc, -lr, lsr #12]!
 56c:	332d6363 	teqcc	sp, #-1946157055	; 0x8c000001
 570:	352e342e 	strcc	r3, [lr, #-1070]!
 574:	6363672f 	cmnvs	r3, #12320768	; 0xbc0000
 578:	6e6f632f 	cdpvs	3, 6, cr6, cr15, cr15, {1}
 57c:	2f676966 	swics	0x00676966
 580:	2f6d7261 	swics	0x006d7261
 584:	65656569 	strvsb	r6, [r5, #-1385]!
 588:	2d343537 	cfldr32cs	mvfx3, [r4, #-220]!
 58c:	532e6673 	teqpl	lr, #120586240	; 0x7300000
 590:	6f772f00 	swivs	0x00772f00
 594:	742f6b72 	strvct	r6, [pc], #2930	; 59c <__code_start-0x2ffffa64>
 598:	736c6f6f 	cmnvc	ip, #444	; 0x1bc
 59c:	6572632f 	ldrvsb	r6, [r2, #-815]!
 5a0:	5f657461 	swipl	0x00657461
 5a4:	736f7263 	cmnvc	pc, #805306374	; 0x30000006
 5a8:	6f6f7473 	swivs	0x006f7473
 5ac:	632f736c 	teqvs	pc, #-1342177279	; 0xb0000001
 5b0:	73736f72 	cmnvc	r3, #456	; 0x1c8
 5b4:	6c6f6f74 	stcvsl	15, cr6, [pc], #-464
 5b8:	342e302d 	strcct	r3, [lr], #-45
 5bc:	75622f33 	strvcb	r2, [r2, #-3891]!
 5c0:	2f646c69 	swics	0x00646c69
 5c4:	2d6d7261 	sfmcs	f7, 2, [sp, #-388]!
 5c8:	756e696c 	strvcb	r6, [lr, #-2412]!
 5cc:	63672f78 	cmnvs	r7, #480	; 0x1e0
 5d0:	2e332d63 	cdpcs	13, 3, cr2, cr3, cr3, {3}
 5d4:	2d352e34 	ldccs	14, cr2, [r5, #-208]!
 5d8:	62696c67 	rsbvs	r6, r9, #26368	; 0x6700
 5dc:	2e322d63 	cdpcs	13, 3, cr2, cr2, cr3, {3}
 5e0:	2f362e33 	swics	0x00362e33
 5e4:	6c697562 	cfstr64vs	mvdx7, [r9], #-392
 5e8:	63672d64 	cmnvs	r7, #6400	; 0x1900
 5ec:	63672f63 	cmnvs	r7, #396	; 0x18c
 5f0:	4e470063 	cdpmi	0, 4, cr0, cr7, cr3, {3}
 5f4:	53412055 	cmppl	r1, #85	; 0x55
 5f8:	312e3220 	teqcc	lr, r0, lsr #4
 5fc:	80010035 	andhi	r0, r1, r5, lsr r0
 600:	000000fc 	streqd	r0, [r0], -ip
 604:	00780002 	rsbeqs	r0, r8, r2
 608:	01040000 	tsteq	r4, r0
 60c:	000008b3 	streqh	r0, [r0], -r3
 610:	00000000 	andeq	r0, r0, r0
 614:	0000035c 	andeq	r0, r0, ip, asr r3
 618:	726f772f 	rsbvc	r7, pc, #12320768	; 0xbc0000
 61c:	6f742f6b 	swivs	0x00742f6b
 620:	2f736c6f 	swics	0x00736c6f
 624:	61657263 	cmnvs	r5, r3, ror #4
 628:	635f6574 	cmpvs	pc, #486539264	; 0x1d000000
 62c:	73736f72 	cmnvc	r3, #456	; 0x1c8
 630:	6c6f6f74 	stcvsl	15, cr6, [pc], #-464
 634:	72632f73 	rsbvc	r2, r3, #460	; 0x1cc
 638:	7473736f 	ldrvcbt	r7, [r3], #-879
 63c:	2d6c6f6f 	stccsl	15, cr6, [ip, #-444]!
 640:	33342e30 	teqcc	r4, #768	; 0x300
 644:	6975622f 	ldmvsdb	r5!, {r0, r1, r2, r3, r5, r9, sp, lr}^
 648:	612f646c 	teqvs	pc, ip, ror #8
 64c:	6c2d6d72 	stcvs	13, cr6, [sp], #-456
 650:	78756e69 	ldmvcda	r5!, {r0, r3, r5, r6, r9, sl, fp, sp, lr}^
 654:	6363672f 	cmnvs	r3, #12320768	; 0xbc0000
 658:	342e332d 	strcct	r3, [lr], #-813
 65c:	672d352e 	strvs	r3, [sp, -lr, lsr #10]!
 660:	6362696c 	cmnvs	r2, #1769472	; 0x1b0000
 664:	332e322d 	teqcc	lr, #-805306366	; 0xd0000002
 668:	672f362e 	strvs	r3, [pc, -lr, lsr #12]!
 66c:	332d6363 	teqcc	sp, #-1946157055	; 0x8c000001
 670:	352e342e 	strcc	r3, [lr, #-1070]!
 674:	6363672f 	cmnvs	r3, #12320768	; 0xbc0000
 678:	6e6f632f 	cdpvs	3, 6, cr6, cr15, cr15, {1}
 67c:	2f676966 	swics	0x00676966
 680:	2f6d7261 	swics	0x006d7261
 684:	65656569 	strvsb	r6, [r5, #-1385]!
 688:	2d343537 	cfldr32cs	mvfx3, [r4, #-220]!
 68c:	532e6673 	teqpl	lr, #120586240	; 0x7300000
 690:	6f772f00 	swivs	0x00772f00
 694:	742f6b72 	strvct	r6, [pc], #2930	; 69c <__code_start-0x2ffff964>
 698:	736c6f6f 	cmnvc	ip, #444	; 0x1bc
 69c:	6572632f 	ldrvsb	r6, [r2, #-815]!
 6a0:	5f657461 	swipl	0x00657461
 6a4:	736f7263 	cmnvc	pc, #805306374	; 0x30000006
 6a8:	6f6f7473 	swivs	0x006f7473
 6ac:	632f736c 	teqvs	pc, #-1342177279	; 0xb0000001
 6b0:	73736f72 	cmnvc	r3, #456	; 0x1c8
 6b4:	6c6f6f74 	stcvsl	15, cr6, [pc], #-464
 6b8:	342e302d 	strcct	r3, [lr], #-45
 6bc:	75622f33 	strvcb	r2, [r2, #-3891]!
 6c0:	2f646c69 	swics	0x00646c69
 6c4:	2d6d7261 	sfmcs	f7, 2, [sp, #-388]!
 6c8:	756e696c 	strvcb	r6, [lr, #-2412]!
 6cc:	63672f78 	cmnvs	r7, #480	; 0x1e0
 6d0:	2e332d63 	cdpcs	13, 3, cr2, cr3, cr3, {3}
 6d4:	2d352e34 	ldccs	14, cr2, [r5, #-208]!
 6d8:	62696c67 	rsbvs	r6, r9, #26368	; 0x6700
 6dc:	2e322d63 	cdpcs	13, 3, cr2, cr2, cr3, {3}
 6e0:	2f362e33 	swics	0x00362e33
 6e4:	6c697562 	cfstr64vs	mvdx7, [r9], #-392
 6e8:	63672d64 	cmnvs	r7, #6400	; 0x1900
 6ec:	63672f63 	cmnvs	r7, #396	; 0x18c
 6f0:	4e470063 	cdpmi	0, 4, cr0, cr7, cr3, {3}
 6f4:	53412055 	cmppl	r1, #85	; 0x55
 6f8:	312e3220 	teqcc	lr, r0, lsr #4
 6fc:	80010035 	andhi	r0, r1, r5, lsr r0
Disassembly of section .debug_abbrev:

00000000 <.debug_abbrev>:
   0:	10001101 	andne	r1, r0, r1, lsl #2
   4:	12011106 	andne	r1, r1, #-2147483647	; 0x80000001
   8:	1b080301 	blne	200c14 <__code_start-0x2fdff3ec>
   c:	13082508 	tstne	r8, #33554432	; 0x2000000
  10:	00000005 	andeq	r0, r0, r5
  14:	10001101 	andne	r1, r0, r1, lsl #2
  18:	12011106 	andne	r1, r1, #-2147483647	; 0x80000001
  1c:	1b080301 	blne	200c28 <__code_start-0x2fdff3d8>
  20:	13082508 	tstne	r8, #33554432	; 0x2000000
  24:	00000005 	andeq	r0, r0, r5
  28:	10001101 	andne	r1, r0, r1, lsl #2
  2c:	12011106 	andne	r1, r1, #-2147483647	; 0x80000001
  30:	1b080301 	blne	200c3c <__code_start-0x2fdff3c4>
  34:	13082508 	tstne	r8, #33554432	; 0x2000000
  38:	00000005 	andeq	r0, r0, r5
  3c:	10001101 	andne	r1, r0, r1, lsl #2
  40:	12011106 	andne	r1, r1, #-2147483647	; 0x80000001
  44:	1b080301 	blne	200c50 <__code_start-0x2fdff3b0>
  48:	13082508 	tstne	r8, #33554432	; 0x2000000
  4c:	00000005 	andeq	r0, r0, r5
  50:	10001101 	andne	r1, r0, r1, lsl #2
  54:	12011106 	andne	r1, r1, #-2147483647	; 0x80000001
  58:	1b080301 	blne	200c64 <__code_start-0x2fdff39c>
  5c:	13082508 	tstne	r8, #33554432	; 0x2000000
  60:	00000005 	andeq	r0, r0, r5
  64:	10001101 	andne	r1, r0, r1, lsl #2
  68:	12011106 	andne	r1, r1, #-2147483647	; 0x80000001
  6c:	1b080301 	blne	200c78 <__code_start-0x2fdff388>
  70:	13082508 	tstne	r8, #33554432	; 0x2000000
  74:	00000005 	andeq	r0, r0, r5
  78:	10001101 	andne	r1, r0, r1, lsl #2
  7c:	12011106 	andne	r1, r1, #-2147483647	; 0x80000001
  80:	1b080301 	blne	200c8c <__code_start-0x2fdff374>
  84:	13082508 	tstne	r8, #33554432	; 0x2000000
  88:	00000005 	andeq	r0, r0, r5
Disassembly of section .debug_line:

00000000 <.debug_line>:
   0:	000001e0 	andeq	r0, r0, r0, ror #3
   4:	009d0002 	addeqs	r0, sp, r2
   8:	01020000 	tsteq	r2, r0
   c:	000a0efb 	streqd	r0, [sl], -fp
  10:	01010101 	tsteq	r1, r1, lsl #2
  14:	01000000 	tsteq	r0, r0
  18:	726f772f 	rsbvc	r7, pc, #12320768	; 0xbc0000
  1c:	6f742f6b 	swivs	0x00742f6b
  20:	2f736c6f 	swics	0x00736c6f
  24:	61657263 	cmnvs	r5, r3, ror #4
  28:	635f6574 	cmpvs	pc, #486539264	; 0x1d000000
  2c:	73736f72 	cmnvc	r3, #456	; 0x1c8
  30:	6c6f6f74 	stcvsl	15, cr6, [pc], #-464
  34:	72632f73 	rsbvc	r2, r3, #460	; 0x1cc
  38:	7473736f 	ldrvcbt	r7, [r3], #-879
  3c:	2d6c6f6f 	stccsl	15, cr6, [ip, #-444]!
  40:	33342e30 	teqcc	r4, #768	; 0x300
  44:	6975622f 	ldmvsdb	r5!, {r0, r1, r2, r3, r5, r9, sp, lr}^
  48:	612f646c 	teqvs	pc, ip, ror #8
  4c:	6c2d6d72 	stcvs	13, cr6, [sp], #-456
  50:	78756e69 	ldmvcda	r5!, {r0, r3, r5, r6, r9, sl, fp, sp, lr}^
  54:	6363672f 	cmnvs	r3, #12320768	; 0xbc0000
  58:	342e332d 	strcct	r3, [lr], #-813
  5c:	672d352e 	strvs	r3, [sp, -lr, lsr #10]!
  60:	6362696c 	cmnvs	r2, #1769472	; 0x1b0000
  64:	332e322d 	teqcc	lr, #-805306366	; 0xd0000002
  68:	672f362e 	strvs	r3, [pc, -lr, lsr #12]!
  6c:	332d6363 	teqcc	sp, #-1946157055	; 0x8c000001
  70:	352e342e 	strcc	r3, [lr, #-1070]!
  74:	6363672f 	cmnvs	r3, #12320768	; 0xbc0000
  78:	6e6f632f 	cdpvs	3, 6, cr6, cr15, cr15, {1}
  7c:	2f676966 	swics	0x00676966
  80:	006d7261 	rsbeq	r7, sp, r1, ror #4
  84:	65656900 	strvsb	r6, [r5, #-2304]!
  88:	34353765 	ldrcct	r3, [r5], #-1893
  8c:	2e66642d 	cdpcs	4, 6, cr6, cr6, cr13, {1}
  90:	00010053 	andeq	r0, r1, r3, asr r0
  94:	62696c00 	rsbvs	r6, r9, #0	; 0x0
  98:	6e756631 	mrcvs	6, 3, r6, cr5, cr1, {1}
  9c:	612e7363 	teqvs	lr, r3, ror #6
  a0:	01006d73 	tsteq	r0, r3, ror sp
  a4:	00000000 	andeq	r0, r0, r0
  a8:	16100205 	ldrne	r0, [r0], -r5, lsl #4
  ac:	c9033000 	stmgtdb	r3, {ip, sp}
  b0:	2c330100 	ldfcss	f0, [r3]
  b4:	2c2f2c2c 	stccs	12, cr2, [pc], #-176
  b8:	2d2c2c2c 	stccs	12, cr2, [ip, #-176]!
  bc:	2c2c2c2e 	stccs	12, cr2, [ip], #-184
  c0:	2f2c2c2e 	swics	0x002c2c2e
  c4:	2c2c2c2c 	stccs	12, cr2, [ip], #-176
  c8:	2c2c2c2c 	stccs	12, cr2, [ip], #-176
  cc:	0204312c 	andeq	r3, r4, #11	; 0xb
  d0:	33010427 	tstcc	r1, #654311424	; 0x27000000
  d4:	2c2c2c2c 	stccs	12, cr2, [ip], #-176
  d8:	2c2c2d2c 	stccs	13, cr2, [ip], #-176
  dc:	2f2c2c2c 	swics	0x002c2c2c
  e0:	2c2c302c 	stccs	0, cr3, [ip], #-176
  e4:	2c2c2c2c 	stccs	12, cr2, [ip], #-176
  e8:	2e2c2c2c 	cdpcs	12, 2, cr2, cr12, cr12, {1}
  ec:	2c2c2c2c 	stccs	12, cr2, [ip], #-176
  f0:	2c2c2c2c 	stccs	12, cr2, [ip], #-176
  f4:	2c2c2c2c 	stccs	12, cr2, [ip], #-176
  f8:	2c2f2c2e 	stccs	12, cr2, [pc], #-184
  fc:	2f2c2c2c 	swics	0x002c2c2c
 100:	2c2c2c2c 	stccs	12, cr2, [ip], #-176
 104:	2c2c2e2c 	stccs	14, cr2, [ip], #-176
 108:	2c2d2c2c 	stccs	12, cr2, [sp], #-176
 10c:	312c2c2c 	teqcc	ip, ip, lsr #24
 110:	2f2c2c2c 	swics	0x002c2c2c
 114:	2f2c2e2c 	swics	0x002c2e2c
 118:	02042c2c 	andeq	r2, r4, #11264	; 0x2c00
 11c:	2b7f9003 	blcs	1fe4130 <__code_start-0x2e01bed0>
 120:	f8030104 	stmnvda	r3, {r2, r8}
 124:	2c2c2b00 	stccs	11, cr2, [ip]
 128:	2c2c2c2c 	stccs	12, cr2, [ip], #-176
 12c:	2c2c2c2c 	stccs	12, cr2, [ip], #-176
 130:	2c2c2c2c 	stccs	12, cr2, [ip], #-176
 134:	2c2c2c2c 	stccs	12, cr2, [ip], #-176
 138:	2b0e032c 	blcs	380df0 <__code_start-0x2fc7f210>
 13c:	2f2c2c2c 	swics	0x002c2c2c
 140:	2c2c2c2c 	stccs	12, cr2, [ip], #-176
 144:	2c2c2c2f 	stccs	12, cr2, [ip], #-188
 148:	2f2c2e2c 	swics	0x002c2e2c
 14c:	2c2c2c2c 	stccs	12, cr2, [ip], #-176
 150:	2c2c2c2e 	stccs	12, cr2, [ip], #-184
 154:	0302042c 	tsteq	r2, #738197504	; 0x2c000000
 158:	042b7ec1 	streqt	r7, [fp], #-3777
 15c:	01c40301 	biceq	r0, r4, r1, lsl #6
 160:	2c2c2c2b 	stccs	12, cr2, [ip], #-172
 164:	0302042c 	tsteq	r2, #738197504	; 0x2c000000
 168:	042b7eb8 	streqt	r7, [fp], #-3768
 16c:	01cd0301 	biceq	r0, sp, r1, lsl #6
 170:	02042c2b 	andeq	r2, r4, #11008	; 0x2b00
 174:	2b7eb203 	blcs	1fac988 <__code_start-0x2e053678>
 178:	d3030104 	tstle	r3, #1	; 0x1
 17c:	2c2c2b01 	stccs	11, cr2, [ip], #-4
 180:	2f2c2c2c 	swics	0x002c2c2c
 184:	2c2c2c2c 	stccs	12, cr2, [ip], #-176
 188:	2c2f2c2c 	stccs	12, cr2, [pc], #-176
 18c:	0302042c 	tsteq	r2, #738197504	; 0x2c000000
 190:	042b7e98 	streqt	r7, [fp], #-3736
 194:	01f20301 	mvneqs	r0, r1, lsl #6
 198:	2c2c2c2b 	stccs	12, cr2, [ip], #-172
 19c:	8b030204 	blhi	c09b4 <__code_start-0x2ff3f64c>
 1a0:	01042b7e 	tsteq	r4, lr, ror fp
 1a4:	2b01f803 	blcs	7e1b8 <__code_start-0x2ff81e48>
 1a8:	2c2c2c2c 	stccs	12, cr2, [ip], #-176
 1ac:	84030204 	strhi	r0, [r3], #-516
 1b0:	01042b7e 	tsteq	r4, lr, ror fp
 1b4:	2b028303 	blcs	a0dc8 <__code_start-0x2ff5f238>
 1b8:	2c2c2c2c 	stccs	12, cr2, [ip], #-176
 1bc:	2c2c2c2c 	stccs	12, cr2, [ip], #-176
 1c0:	2c2c302c 	stccs	0, cr3, [ip], #-176
 1c4:	2c2c2c2c 	stccs	12, cr2, [ip], #-176
 1c8:	2c2c2c2c 	stccs	12, cr2, [ip], #-176
 1cc:	2c2c2c30 	stccs	12, cr2, [ip], #-192
 1d0:	2c2c2c2c 	stccs	12, cr2, [ip], #-176
 1d4:	2c2d2c2c 	stccs	12, cr2, [sp], #-176
 1d8:	2c2c2e2c 	stccs	14, cr2, [ip], #-176
 1dc:	022c2c2c 	eoreq	r2, ip, #11264	; 0x2c00
 1e0:	01010002 	tsteq	r1, r2
 1e4:	00000016 	andeq	r0, r0, r6, lsl r0
 1e8:	00100002 	andeqs	r0, r0, r2
 1ec:	01020000 	tsteq	r2, r0
 1f0:	000a0efb 	streqd	r0, [sl], -fp
 1f4:	01010101 	tsteq	r1, r1, lsl #2
 1f8:	01000000 	tsteq	r0, r0
 1fc:	02780000 	rsbeqs	r0, r8, #0	; 0x0
 200:	00020000 	andeq	r0, r2, r0
 204:	0000009d 	muleq	r0, sp, r0
 208:	0efb0102 	cdpeq	1, 15, cr0, cr11, cr2, {0}
 20c:	0101000a 	tsteq	r1, sl
 210:	00000101 	andeq	r0, r0, r1, lsl #2
 214:	772f0100 	strvc	r0, [pc, -r0, lsl #2]!
 218:	2f6b726f 	swics	0x006b726f
 21c:	6c6f6f74 	stcvsl	15, cr6, [pc], #-464
 220:	72632f73 	rsbvc	r2, r3, #460	; 0x1cc
 224:	65746165 	ldrvsb	r6, [r4, #-357]!
 228:	6f72635f 	swivs	0x0072635f
 22c:	6f747373 	swivs	0x00747373
 230:	2f736c6f 	swics	0x00736c6f
 234:	736f7263 	cmnvc	pc, #805306374	; 0x30000006
 238:	6f6f7473 	swivs	0x006f7473
 23c:	2e302d6c 	cdpcs	13, 3, cr2, cr0, cr12, {3}
 240:	622f3334 	eorvs	r3, pc, #-805306368	; 0xd0000000
 244:	646c6975 	strvsbt	r6, [ip], #-2421
 248:	6d72612f 	ldfvse	f6, [r2, #-188]!
 24c:	6e696c2d 	cdpvs	12, 6, cr6, cr9, cr13, {1}
 250:	672f7875 	undefined
 254:	332d6363 	teqcc	sp, #-1946157055	; 0x8c000001
 258:	352e342e 	strcc	r3, [lr, #-1070]!
 25c:	696c672d 	stmvsdb	ip!, {r0, r2, r3, r5, r8, r9, sl, sp, lr}^
 260:	322d6362 	eorcc	r6, sp, #-2013265919	; 0x88000001
 264:	362e332e 	strcct	r3, [lr], -lr, lsr #6
 268:	6363672f 	cmnvs	r3, #12320768	; 0xbc0000
 26c:	342e332d 	strcct	r3, [lr], #-813
 270:	672f352e 	strvs	r3, [pc, -lr, lsr #10]!
 274:	632f6363 	teqvs	pc, #-1946157055	; 0x8c000001
 278:	69666e6f 	stmvsdb	r6!, {r0, r1, r2, r3, r5, r6, r9, sl, fp, sp, lr}^
 27c:	72612f67 	rsbvc	r2, r1, #412	; 0x19c
 280:	6900006d 	stmvsdb	r0, {r0, r2, r3, r5, r6}
 284:	37656565 	strccb	r6, [r5, -r5, ror #10]!
 288:	642d3435 	strvst	r3, [sp], #-1077
 28c:	00532e66 	subeqs	r2, r3, r6, ror #28
 290:	6c000001 	stcvs	0, cr0, [r0], {1}
 294:	66316269 	ldrvst	r6, [r1], -r9, ror #4
 298:	73636e75 	cmnvc	r3, #1872	; 0x750
 29c:	6d73612e 	ldfvse	f6, [r3, #-184]!
 2a0:	00000100 	andeq	r0, r0, r0, lsl #2
 2a4:	02050000 	andeq	r0, r5, #0	; 0x0
 2a8:	30001998 	mulcc	r0, r8, r9
 2ac:	0103b703 	tsteq	r3, r3, lsl #14
 2b0:	2c2c2c2e 	stccs	12, cr2, [ip], #-184
 2b4:	2e2c2c2e 	cdpcs	12, 2, cr2, cr12, cr14, {1}
 2b8:	2c302c2c 	ldccs	12, cr2, [r0], #-176
 2bc:	2c2e2d2c 	stccs	13, cr2, [lr], #-176
 2c0:	2c2c2c2e 	stccs	12, cr2, [ip], #-184
 2c4:	2c2c2c31 	stccs	12, cr2, [ip], #-196
 2c8:	2c2c2c2c 	stccs	12, cr2, [ip], #-176
 2cc:	2c2c2c2c 	stccs	12, cr2, [ip], #-176
 2d0:	2c2c2c2c 	stccs	12, cr2, [ip], #-176
 2d4:	2c2c2c2c 	stccs	12, cr2, [ip], #-176
 2d8:	2c2c2c2c 	stccs	12, cr2, [ip], #-176
 2dc:	2c2c2c2c 	stccs	12, cr2, [ip], #-176
 2e0:	2c2c2c2c 	stccs	12, cr2, [ip], #-176
 2e4:	2c2c2c2c 	stccs	12, cr2, [ip], #-176
 2e8:	2c2c2c2c 	stccs	12, cr2, [ip], #-176
 2ec:	2c2c2c2c 	stccs	12, cr2, [ip], #-176
 2f0:	2c2c2c2c 	stccs	12, cr2, [ip], #-176
 2f4:	2c2c2c2c 	stccs	12, cr2, [ip], #-176
 2f8:	2b10032c 	blcs	400fb0 <__code_start-0x2fbff050>
 2fc:	2e2c2e2c 	cdpcs	14, 2, cr2, cr12, cr12, {1}
 300:	2c2c2c2c 	stccs	12, cr2, [ip], #-176
 304:	2c2f2c2c 	stccs	12, cr2, [pc], #-176
 308:	2c2e2c2c 	stccs	12, cr2, [lr], #-176
 30c:	2c2c2e2c 	stccs	14, cr2, [ip], #-176
 310:	2f2c2c2c 	swics	0x002c2c2c
 314:	2c2c2e2c 	stccs	14, cr2, [ip], #-176
 318:	02042c2e 	andeq	r2, r4, #11776	; 0x2e00
 31c:	2b7ca403 	blcs	1f29330 <__code_start-0x2e0d6cd0>
 320:	e1030104 	tst	r3, r4, lsl #2
 324:	2c2d2b03 	stccs	11, cr2, [sp], #-12
 328:	9c030204 	sfmls	f0, 4, [r3], {4}
 32c:	01042b7c 	tsteq	r4, ip, ror fp
 330:	2b03e903 	blcs	fa744 <__code_start-0x2ff058bc>
 334:	02042c2c 	andeq	r2, r4, #11264	; 0x2c00
 338:	2b7c9503 	blcs	1f2574c <__code_start-0x2e0da8b4>
 33c:	f0030104 	andnv	r0, r3, r4, lsl #2
 340:	2c2c2b03 	stccs	11, cr2, [ip], #-12
 344:	2c2e2c2c 	stccs	12, cr2, [lr], #-176
 348:	2c2c2c2c 	stccs	12, cr2, [ip], #-176
 34c:	2c2c2c2c 	stccs	12, cr2, [ip], #-176
 350:	042c2c2c 	streqt	r2, [ip], #-3116
 354:	7bfd0302 	blvc	fff40f64 <__bss_end+0xcff39f5c>
 358:	0301042b 	tsteq	r1, #721420288	; 0x2b000000
 35c:	2c2b0488 	cfstrscs	mvf0, [fp], #-544
 360:	2c2c2c2c 	stccs	12, cr2, [ip], #-176
 364:	2c2c2c2c 	stccs	12, cr2, [ip], #-176
 368:	0302042c 	tsteq	r2, #738197504	; 0x2c000000
 36c:	042b7bee 	streqt	r7, [fp], #-3054
 370:	04970301 	ldreq	r0, [r7], #769
 374:	2c2c2c2b 	stccs	12, cr2, [ip], #-172
 378:	2c2c2c2c 	stccs	12, cr2, [ip], #-176
 37c:	042c2c2c 	streqt	r2, [ip], #-3116
 380:	7bdf0302 	blvc	ff7c0f90 <__bss_end+0xcf7b9f88>
 384:	0301042b 	tsteq	r1, #721420288	; 0x2b000000
 388:	2c2b04a7 	cfstrscs	mvf0, [fp], #-668
 38c:	2c2c2c2c 	stccs	12, cr2, [ip], #-176
 390:	2c2c2c2c 	stccs	12, cr2, [ip], #-176
 394:	2c2c2c2c 	stccs	12, cr2, [ip], #-176
 398:	2c2c2c2c 	stccs	12, cr2, [ip], #-176
 39c:	2c2f2c2c 	stccs	12, cr2, [pc], #-176
 3a0:	2c2c2c2c 	stccs	12, cr2, [ip], #-176
 3a4:	2c2c2c2c 	stccs	12, cr2, [ip], #-176
 3a8:	2c2f2f2c 	stccs	15, cr2, [pc], #-176
 3ac:	02042c2c 	andeq	r2, r4, #11264	; 0x2c00
 3b0:	2b7bad03 	blcs	1eeb7c4 <__code_start-0x2e11483c>
 3b4:	d8030104 	stmleda	r3, {r2, r8}
 3b8:	042c2b04 	streqt	r2, [ip], #-2820
 3bc:	7ba70302 	blvc	fe9c0fcc <__bss_end+0xce9b9fc4>
 3c0:	0301042b 	tsteq	r1, #721420288	; 0x2b000000
 3c4:	2e2b04e0 	cdpcs	4, 2, cr0, cr11, cr0, {7}
 3c8:	2e2c2c2c 	cdpcs	12, 2, cr2, cr12, cr12, {1}
 3cc:	2c2c2c2c 	stccs	12, cr2, [ip], #-176
 3d0:	2d2c2c30 	stccs	12, cr2, [ip, #-192]!
 3d4:	2c2c2f2e 	stccs	15, cr2, [ip], #-184
 3d8:	2c2c2c2c 	stccs	12, cr2, [ip], #-176
 3dc:	2c2c2c2c 	stccs	12, cr2, [ip], #-176
 3e0:	2c2c2e2e 	stccs	14, cr2, [ip], #-184
 3e4:	2e2c2c2c 	cdpcs	12, 2, cr2, cr12, cr12, {1}
 3e8:	2c2c2c2c 	stccs	12, cr2, [ip], #-176
 3ec:	2c2c2e2c 	stccs	14, cr2, [ip], #-176
 3f0:	2e2c2c2c 	cdpcs	12, 2, cr2, cr12, cr12, {1}
 3f4:	2c2c2c2c 	stccs	12, cr2, [ip], #-176
 3f8:	2c2c2c2c 	stccs	12, cr2, [ip], #-176
 3fc:	2c2c2c2c 	stccs	12, cr2, [ip], #-176
 400:	2c2c2c2c 	stccs	12, cr2, [ip], #-176
 404:	2c2c2c2c 	stccs	12, cr2, [ip], #-176
 408:	2c2c2c2c 	stccs	12, cr2, [ip], #-176
 40c:	2c2c2d2c 	stccs	13, cr2, [ip], #-176
 410:	2c2c2c2c 	stccs	12, cr2, [ip], #-176
 414:	2f2c2c2c 	swics	0x002c2c2c
 418:	2c2c2c2c 	stccs	12, cr2, [ip], #-176
 41c:	2c2c2e2c 	stccs	14, cr2, [ip], #-176
 420:	2c2e2c2e 	stccs	12, cr2, [lr], #-184
 424:	2c2c2c2c 	stccs	12, cr2, [ip], #-176
 428:	02042c2e 	andeq	r2, r4, #11776	; 0x2e00
 42c:	2b7a9903 	blcs	1ea6840 <__code_start-0x2e1597c0>
 430:	ec030104 	stfs	f0, [r3], {4}
 434:	2c2c2b05 	stccs	11, cr2, [ip], #-20
 438:	2c2c2c2c 	stccs	12, cr2, [ip], #-176
 43c:	0302042c 	tsteq	r2, #738197504	; 0x2c000000
 440:	042b7a8d 	streqt	r7, [fp], #-2701
 444:	05f60301 	ldreqb	r0, [r6, #769]!
 448:	2c2c2c2b 	stccs	12, cr2, [ip], #-172
 44c:	302c302c 	eorcc	r3, ip, ip, lsr #32
 450:	2c2c2c2c 	stccs	12, cr2, [ip], #-176
 454:	2c2c2c2c 	stccs	12, cr2, [ip], #-176
 458:	2c2c2c2c 	stccs	12, cr2, [ip], #-176
 45c:	2c2c2c2c 	stccs	12, cr2, [ip], #-176
 460:	2f2c2c2c 	swics	0x002c2c2c
 464:	2c2c2c2c 	stccs	12, cr2, [ip], #-176
 468:	2c2c2c2c 	stccs	12, cr2, [ip], #-176
 46c:	2c2c2c2c 	stccs	12, cr2, [ip], #-176
 470:	2c2c2c2d 	stccs	12, cr2, [ip], #-180
 474:	0002022c 	andeq	r0, r2, ip, lsr #4
 478:	00160101 	andeqs	r0, r6, r1, lsl #2
 47c:	00020000 	andeq	r0, r2, r0
 480:	00000010 	andeq	r0, r0, r0, lsl r0
 484:	0efb0102 	cdpeq	1, 15, cr0, cr11, cr2, {0}
 488:	0101000a 	tsteq	r1, sl
 48c:	00000101 	andeq	r0, r0, r1, lsl #2
 490:	00000100 	andeq	r0, r0, r0, lsl #2
 494:	000000fe 	streqd	r0, [r0], -lr
 498:	009d0002 	addeqs	r0, sp, r2
 49c:	01020000 	tsteq	r2, r0
 4a0:	000a0efb 	streqd	r0, [sl], -fp
 4a4:	01010101 	tsteq	r1, r1, lsl #2
 4a8:	01000000 	tsteq	r0, r0
 4ac:	726f772f 	rsbvc	r7, pc, #12320768	; 0xbc0000
 4b0:	6f742f6b 	swivs	0x00742f6b
 4b4:	2f736c6f 	swics	0x00736c6f
 4b8:	61657263 	cmnvs	r5, r3, ror #4
 4bc:	635f6574 	cmpvs	pc, #486539264	; 0x1d000000
 4c0:	73736f72 	cmnvc	r3, #456	; 0x1c8
 4c4:	6c6f6f74 	stcvsl	15, cr6, [pc], #-464
 4c8:	72632f73 	rsbvc	r2, r3, #460	; 0x1cc
 4cc:	7473736f 	ldrvcbt	r7, [r3], #-879
 4d0:	2d6c6f6f 	stccsl	15, cr6, [ip, #-444]!
 4d4:	33342e30 	teqcc	r4, #768	; 0x300
 4d8:	6975622f 	ldmvsdb	r5!, {r0, r1, r2, r3, r5, r9, sp, lr}^
 4dc:	612f646c 	teqvs	pc, ip, ror #8
 4e0:	6c2d6d72 	stcvs	13, cr6, [sp], #-456
 4e4:	78756e69 	ldmvcda	r5!, {r0, r3, r5, r6, r9, sl, fp, sp, lr}^
 4e8:	6363672f 	cmnvs	r3, #12320768	; 0xbc0000
 4ec:	342e332d 	strcct	r3, [lr], #-813
 4f0:	672d352e 	strvs	r3, [sp, -lr, lsr #10]!
 4f4:	6362696c 	cmnvs	r2, #1769472	; 0x1b0000
 4f8:	332e322d 	teqcc	lr, #-805306366	; 0xd0000002
 4fc:	672f362e 	strvs	r3, [pc, -lr, lsr #12]!
 500:	332d6363 	teqcc	sp, #-1946157055	; 0x8c000001
 504:	352e342e 	strcc	r3, [lr, #-1070]!
 508:	6363672f 	cmnvs	r3, #12320768	; 0xbc0000
 50c:	6e6f632f 	cdpvs	3, 6, cr6, cr15, cr15, {1}
 510:	2f676966 	swics	0x00676966
 514:	006d7261 	rsbeq	r7, sp, r1, ror #4
 518:	65656900 	strvsb	r6, [r5, #-2304]!
 51c:	34353765 	ldrcct	r3, [r5], #-1893
 520:	2e66642d 	cdpcs	4, 6, cr6, cr6, cr13, {1}
 524:	00010053 	andeq	r0, r1, r3, asr r0
 528:	62696c00 	rsbvs	r6, r9, #0	; 0x0
 52c:	6e756631 	mrcvs	6, 3, r6, cr5, cr1, {1}
 530:	612e7363 	teqvs	lr, r3, ror #6
 534:	01006d73 	tsteq	r0, r3, ror sp
 538:	00000000 	andeq	r0, r0, r0
 53c:	1f180205 	swine	0x00180205
 540:	b0033000 	andlt	r3, r3, r0
 544:	2f2c0107 	swics	0x002c0107
 548:	2e2d302c 	cdpcs	0, 2, cr3, cr13, cr12, {1}
 54c:	2c2c2c2c 	stccs	12, cr2, [ip], #-176
 550:	2c2f2c2c 	stccs	12, cr2, [pc], #-176
 554:	042c2c2c 	streqt	r2, [ip], #-3116
 558:	79aa0302 	stmvcib	sl!, {r1, r8, r9}
 55c:	0301042b 	tsteq	r1, #721420288	; 0x2b000000
 560:	2c2b06da 	stccs	6, cr0, [fp], #-872
 564:	0302042c 	tsteq	r2, #738197504	; 0x2c000000
 568:	042b79a4 	streqt	r7, [fp], #-2468
 56c:	06e00301 	streqbt	r0, [r0], r1, lsl #6
 570:	2c2c2e2b 	stccs	14, cr2, [ip], #-172
 574:	042c2c2c 	streqt	r2, [ip], #-3116
 578:	79980302 	ldmvcib	r8, {r1, r8, r9}
 57c:	0301042b 	tsteq	r1, #721420288	; 0x2b000000
 580:	2c2b06ec 	stccs	6, cr0, [fp], #-944
 584:	2c2c2c2c 	stccs	12, cr2, [ip], #-176
 588:	042c2c2c 	streqt	r2, [ip], #-3116
 58c:	798c0302 	stmvcib	ip, {r1, r8, r9}
 590:	0002022b 	andeq	r0, r2, fp, lsr #4
 594:	00160101 	andeqs	r0, r6, r1, lsl #2
 598:	00020000 	andeq	r0, r2, r0
 59c:	00000010 	andeq	r0, r0, r0, lsl r0
 5a0:	0efb0102 	cdpeq	1, 15, cr0, cr11, cr2, {0}
 5a4:	0101000a 	tsteq	r1, sl
 5a8:	00000101 	andeq	r0, r0, r1, lsl #2
 5ac:	00000100 	andeq	r0, r0, r0, lsl #2
 5b0:	000000c1 	andeq	r0, r0, r1, asr #1
 5b4:	008c0002 	addeq	r0, ip, r2
 5b8:	01020000 	tsteq	r2, r0
 5bc:	000a0efb 	streqd	r0, [sl], -fp
 5c0:	01010101 	tsteq	r1, r1, lsl #2
 5c4:	01000000 	tsteq	r0, r0
 5c8:	726f772f 	rsbvc	r7, pc, #12320768	; 0xbc0000
 5cc:	6f742f6b 	swivs	0x00742f6b
 5d0:	2f736c6f 	swics	0x00736c6f
 5d4:	61657263 	cmnvs	r5, r3, ror #4
 5d8:	635f6574 	cmpvs	pc, #486539264	; 0x1d000000
 5dc:	73736f72 	cmnvc	r3, #456	; 0x1c8
 5e0:	6c6f6f74 	stcvsl	15, cr6, [pc], #-464
 5e4:	72632f73 	rsbvc	r2, r3, #460	; 0x1cc
 5e8:	7473736f 	ldrvcbt	r7, [r3], #-879
 5ec:	2d6c6f6f 	stccsl	15, cr6, [ip, #-444]!
 5f0:	33342e30 	teqcc	r4, #768	; 0x300
 5f4:	6975622f 	ldmvsdb	r5!, {r0, r1, r2, r3, r5, r9, sp, lr}^
 5f8:	612f646c 	teqvs	pc, ip, ror #8
 5fc:	6c2d6d72 	stcvs	13, cr6, [sp], #-456
 600:	78756e69 	ldmvcda	r5!, {r0, r3, r5, r6, r9, sl, fp, sp, lr}^
 604:	6363672f 	cmnvs	r3, #12320768	; 0xbc0000
 608:	342e332d 	strcct	r3, [lr], #-813
 60c:	672d352e 	strvs	r3, [sp, -lr, lsr #10]!
 610:	6362696c 	cmnvs	r2, #1769472	; 0x1b0000
 614:	332e322d 	teqcc	lr, #-805306366	; 0xd0000002
 618:	672f362e 	strvs	r3, [pc, -lr, lsr #12]!
 61c:	332d6363 	teqcc	sp, #-1946157055	; 0x8c000001
 620:	352e342e 	strcc	r3, [lr, #-1070]!
 624:	6363672f 	cmnvs	r3, #12320768	; 0xbc0000
 628:	6e6f632f 	cdpvs	3, 6, cr6, cr15, cr15, {1}
 62c:	2f676966 	swics	0x00676966
 630:	006d7261 	rsbeq	r7, sp, r1, ror #4
 634:	65656900 	strvsb	r6, [r5, #-2304]!
 638:	34353765 	ldrcct	r3, [r5], #-1893
 63c:	2e66642d 	cdpcs	4, 6, cr6, cr6, cr13, {1}
 640:	00010053 	andeq	r0, r1, r3, asr r0
 644:	05000000 	streq	r0, [r0]
 648:	001fbc02 	andeqs	fp, pc, r2, lsl #24
 64c:	08960330 	ldmeqia	r6, {r4, r5, r8, r9}
 650:	2e2d2c01 	cdpcs	12, 2, cr2, cr13, cr1, {0}
 654:	2c2c2c2c 	stccs	12, cr2, [ip], #-176
 658:	2c2c2c2c 	stccs	12, cr2, [ip], #-176
 65c:	2c2d2c2c 	stccs	12, cr2, [sp], #-176
 660:	2c2c2c2c 	stccs	12, cr2, [ip], #-176
 664:	2d2c2c2c 	stccs	12, cr2, [ip, #-176]!
 668:	2c2c2d2c 	stccs	13, cr2, [ip], #-176
 66c:	2c2d2c2c 	stccs	12, cr2, [sp], #-176
 670:	01000202 	tsteq	r0, r2, lsl #4
 674:	00001601 	andeq	r1, r0, r1, lsl #12
 678:	10000200 	andne	r0, r0, r0, lsl #4
 67c:	02000000 	andeq	r0, r0, #0	; 0x0
 680:	0a0efb01 	beq	3bf28c <__code_start-0x2fc40d74>
 684:	01010100 	tsteq	r1, r0, lsl #2
 688:	00000001 	andeq	r0, r0, r1
 68c:	be000001 	cdplt	0, 0, cr0, cr0, cr1, {0}
 690:	02000000 	andeq	r0, r0, #0	; 0x0
 694:	00008c00 	andeq	r8, r0, r0, lsl #24
 698:	fb010200 	blx	40ea2 <__code_start-0x2ffbf15e>
 69c:	01000a0e 	tsteq	r0, lr, lsl #20
 6a0:	00010101 	andeq	r0, r1, r1, lsl #2
 6a4:	2f010000 	swics	0x00010000
 6a8:	6b726f77 	blvs	1c9c48c <__code_start-0x2e363b74>
 6ac:	6f6f742f 	swivs	0x006f742f
 6b0:	632f736c 	teqvs	pc, #-1342177279	; 0xb0000001
 6b4:	74616572 	strvcbt	r6, [r1], #-1394
 6b8:	72635f65 	rsbvc	r5, r3, #404	; 0x194
 6bc:	7473736f 	ldrvcbt	r7, [r3], #-879
 6c0:	736c6f6f 	cmnvc	ip, #444	; 0x1bc
 6c4:	6f72632f 	swivs	0x0072632f
 6c8:	6f747373 	swivs	0x00747373
 6cc:	302d6c6f 	eorcc	r6, sp, pc, ror #24
 6d0:	2f33342e 	swics	0x0033342e
 6d4:	6c697562 	cfstr64vs	mvdx7, [r9], #-392
 6d8:	72612f64 	rsbvc	r2, r1, #400	; 0x190
 6dc:	696c2d6d 	stmvsdb	ip!, {r0, r2, r3, r5, r6, r8, sl, fp, sp}^
 6e0:	2f78756e 	swics	0x0078756e
 6e4:	2d636367 	stccsl	3, cr6, [r3, #-412]!
 6e8:	2e342e33 	mrccs	14, 1, r2, cr4, cr3, {1}
 6ec:	6c672d35 	stcvsl	13, cr2, [r7], #-212
 6f0:	2d636269 	sfmcs	f6, 2, [r3, #-420]!
 6f4:	2e332e32 	mrccs	14, 1, r2, cr3, cr2, {1}
 6f8:	63672f36 	cmnvs	r7, #216	; 0xd8
 6fc:	2e332d63 	cdpcs	13, 3, cr2, cr3, cr3, {3}
 700:	2f352e34 	swics	0x00352e34
 704:	2f636367 	swics	0x00636367
 708:	666e6f63 	strvsbt	r6, [lr], -r3, ror #30
 70c:	612f6769 	teqvs	pc, r9, ror #14
 710:	00006d72 	andeq	r6, r0, r2, ror sp
 714:	65656569 	strvsb	r6, [r5, #-1385]!
 718:	2d343537 	cfldr32cs	mvfx3, [r4, #-220]!
 71c:	532e6664 	teqpl	lr, #104857600	; 0x6400000
 720:	00000100 	andeq	r0, r0, r0, lsl #2
 724:	02050000 	andeq	r0, r5, #0	; 0x0
 728:	3000203c 	andcc	r2, r0, ip, lsr r0
 72c:	0108c503 	tsteq	r8, r3, lsl #10
 730:	2c2e2c2c 	stccs	12, cr2, [lr], #-176
 734:	2c2c2c2c 	stccs	12, cr2, [ip], #-176
 738:	2c2c2c2c 	stccs	12, cr2, [ip], #-176
 73c:	2c2c2d2c 	stccs	13, cr2, [ip], #-176
 740:	2c2c2c2c 	stccs	12, cr2, [ip], #-176
 744:	2c2d2c2d 	stccs	12, cr2, [sp], #-180
 748:	2c2d2c2c 	stccs	12, cr2, [sp], #-176
 74c:	01000202 	tsteq	r0, r2, lsl #4
 750:	00001601 	andeq	r1, r0, r1, lsl #12
 754:	10000200 	andne	r0, r0, r0, lsl #4
 758:	02000000 	andeq	r0, r0, #0	; 0x0
 75c:	0a0efb01 	beq	3bf368 <__code_start-0x2fc40c98>
 760:	01010100 	tsteq	r1, r0, lsl #2
 764:	00000001 	andeq	r0, r0, r1
 768:	2a000001 	bcs	774 <__code_start-0x2ffff88c>
 76c:	02000001 	andeq	r0, r0, #1	; 0x1
 770:	00008c00 	andeq	r8, r0, r0, lsl #24
 774:	fb010200 	blx	40f7e <__code_start-0x2ffbf082>
 778:	01000a0e 	tsteq	r0, lr, lsl #20
 77c:	00010101 	andeq	r0, r1, r1, lsl #2
 780:	2f010000 	swics	0x00010000
 784:	6b726f77 	blvs	1c9c568 <__code_start-0x2e363a98>
 788:	6f6f742f 	swivs	0x006f742f
 78c:	632f736c 	teqvs	pc, #-1342177279	; 0xb0000001
 790:	74616572 	strvcbt	r6, [r1], #-1394
 794:	72635f65 	rsbvc	r5, r3, #404	; 0x194
 798:	7473736f 	ldrvcbt	r7, [r3], #-879
 79c:	736c6f6f 	cmnvc	ip, #444	; 0x1bc
 7a0:	6f72632f 	swivs	0x0072632f
 7a4:	6f747373 	swivs	0x00747373
 7a8:	302d6c6f 	eorcc	r6, sp, pc, ror #24
 7ac:	2f33342e 	swics	0x0033342e
 7b0:	6c697562 	cfstr64vs	mvdx7, [r9], #-392
 7b4:	72612f64 	rsbvc	r2, r1, #400	; 0x190
 7b8:	696c2d6d 	stmvsdb	ip!, {r0, r2, r3, r5, r6, r8, sl, fp, sp}^
 7bc:	2f78756e 	swics	0x0078756e
 7c0:	2d636367 	stccsl	3, cr6, [r3, #-412]!
 7c4:	2e342e33 	mrccs	14, 1, r2, cr4, cr3, {1}
 7c8:	6c672d35 	stcvsl	13, cr2, [r7], #-212
 7cc:	2d636269 	sfmcs	f6, 2, [r3, #-420]!
 7d0:	2e332e32 	mrccs	14, 1, r2, cr3, cr2, {1}
 7d4:	63672f36 	cmnvs	r7, #216	; 0xd8
 7d8:	2e332d63 	cdpcs	13, 3, cr2, cr3, cr3, {3}
 7dc:	2f352e34 	swics	0x00352e34
 7e0:	2f636367 	swics	0x00636367
 7e4:	666e6f63 	strvsbt	r6, [lr], -r3, ror #30
 7e8:	612f6769 	teqvs	pc, r9, ror #14
 7ec:	00006d72 	andeq	r6, r0, r2, ror sp
 7f0:	65656569 	strvsb	r6, [r5, #-1385]!
 7f4:	2d343537 	cfldr32cs	mvfx3, [r4, #-220]!
 7f8:	532e6673 	teqpl	lr, #120586240	; 0x7300000
 7fc:	00000100 	andeq	r0, r0, r0, lsl #2
 800:	02050000 	andeq	r0, r5, #0	; 0x0
 804:	00000000 	andeq	r0, r0, r0
 808:	33013503 	tstcc	r1, #12582912	; 0xc00000
 80c:	2c2f2c2c 	stccs	12, cr2, [pc], #-176
 810:	2c2e2c2c 	stccs	12, cr2, [lr], #-176
 814:	2c2c2e2c 	stccs	14, cr2, [ip], #-176
 818:	2c2c2c2f 	stccs	12, cr2, [ip], #-188
 81c:	2c302c2c 	ldccs	12, cr2, [r0], #-176
 820:	2c2c2c2e 	stccs	12, cr2, [ip], #-184
 824:	2c2c2c2c 	stccs	12, cr2, [ip], #-176
 828:	2c312c2f 	ldccs	12, cr2, [r1], #-188
 82c:	2e2c2c2c 	cdpcs	12, 2, cr2, cr12, cr12, {1}
 830:	2f2d2c2c 	swics	0x002d2c2c
 834:	2f2c2c2c 	swics	0x002c2c2c
 838:	2c2c2c2c 	stccs	12, cr2, [ip], #-176
 83c:	2c2c2e2c 	stccs	14, cr2, [ip], #-176
 840:	312c2c2d 	teqcc	ip, sp, lsr #24
 844:	2c2f2c2c 	stccs	12, cr2, [pc], #-176
 848:	2c2f2c2e 	stccs	12, cr2, [pc], #-184
 84c:	2c332c2c 	ldccs	12, cr2, [r3], #-176
 850:	2c2c2c2c 	stccs	12, cr2, [ip], #-176
 854:	2c2c2c2c 	stccs	12, cr2, [ip], #-176
 858:	2c2c2c2c 	stccs	12, cr2, [ip], #-176
 85c:	032c2c2c 	teqeq	ip, #11264	; 0x2c00
 860:	2c2c2b0d 	stccs	11, cr2, [ip], #-52
 864:	2c2c302c 	stccs	0, cr3, [ip], #-176
 868:	2f2c2c2c 	swics	0x002c2c2c
 86c:	2c2c2c2c 	stccs	12, cr2, [ip], #-176
 870:	2c2c2f2c 	stccs	15, cr2, [ip], #-176
 874:	2c2b0903 	stccs	9, cr0, [fp], #-12
 878:	2c2c2c2c 	stccs	12, cr2, [ip], #-176
 87c:	312c2c2c 	teqcc	ip, ip, lsr #24
 880:	2d2c2e2c 	stccs	14, cr2, [ip, #-176]!
 884:	2c2c2d2c 	stccs	13, cr2, [ip], #-176
 888:	2c2c2e2c 	stccs	14, cr2, [ip], #-176
 88c:	2c2c2c2c 	stccs	12, cr2, [ip], #-176
 890:	2c2c2c2c 	stccs	12, cr2, [ip], #-176
 894:	01000202 	tsteq	r0, r2, lsl #4
 898:	00001601 	andeq	r1, r0, r1, lsl #12
 89c:	10000200 	andne	r0, r0, r0, lsl #4
 8a0:	02000000 	andeq	r0, r0, #0	; 0x0
 8a4:	0a0efb01 	beq	3bf4b0 <__code_start-0x2fc40b50>
 8a8:	01010100 	tsteq	r1, r0, lsl #2
 8ac:	00000001 	andeq	r0, r0, r1
 8b0:	7a000001 	bvc	8bc <__code_start-0x2ffff744>
 8b4:	02000001 	andeq	r0, r0, #1	; 0x1
 8b8:	00008c00 	andeq	r8, r0, r0, lsl #24
 8bc:	fb010200 	blx	410c6 <__code_start-0x2ffbef3a>
 8c0:	01000a0e 	tsteq	r0, lr, lsl #20
 8c4:	00010101 	andeq	r0, r1, r1, lsl #2
 8c8:	2f010000 	swics	0x00010000
 8cc:	6b726f77 	blvs	1c9c6b0 <__code_start-0x2e363950>
 8d0:	6f6f742f 	swivs	0x006f742f
 8d4:	632f736c 	teqvs	pc, #-1342177279	; 0xb0000001
 8d8:	74616572 	strvcbt	r6, [r1], #-1394
 8dc:	72635f65 	rsbvc	r5, r3, #404	; 0x194
 8e0:	7473736f 	ldrvcbt	r7, [r3], #-879
 8e4:	736c6f6f 	cmnvc	ip, #444	; 0x1bc
 8e8:	6f72632f 	swivs	0x0072632f
 8ec:	6f747373 	swivs	0x00747373
 8f0:	302d6c6f 	eorcc	r6, sp, pc, ror #24
 8f4:	2f33342e 	swics	0x0033342e
 8f8:	6c697562 	cfstr64vs	mvdx7, [r9], #-392
 8fc:	72612f64 	rsbvc	r2, r1, #400	; 0x190
 900:	696c2d6d 	stmvsdb	ip!, {r0, r2, r3, r5, r6, r8, sl, fp, sp}^
 904:	2f78756e 	swics	0x0078756e
 908:	2d636367 	stccsl	3, cr6, [r3, #-412]!
 90c:	2e342e33 	mrccs	14, 1, r2, cr4, cr3, {1}
 910:	6c672d35 	stcvsl	13, cr2, [r7], #-212
 914:	2d636269 	sfmcs	f6, 2, [r3, #-420]!
 918:	2e332e32 	mrccs	14, 1, r2, cr3, cr2, {1}
 91c:	63672f36 	cmnvs	r7, #216	; 0xd8
 920:	2e332d63 	cdpcs	13, 3, cr2, cr3, cr3, {3}
 924:	2f352e34 	swics	0x00352e34
 928:	2f636367 	swics	0x00636367
 92c:	666e6f63 	strvsbt	r6, [lr], -r3, ror #30
 930:	612f6769 	teqvs	pc, r9, ror #14
 934:	00006d72 	andeq	r6, r0, r2, ror sp
 938:	65656569 	strvsb	r6, [r5, #-1385]!
 93c:	2d343537 	cfldr32cs	mvfx3, [r4, #-220]!
 940:	532e6673 	teqpl	lr, #120586240	; 0x7300000
 944:	00000100 	andeq	r0, r0, r0, lsl #2
 948:	02050000 	andeq	r0, r5, #0	; 0x0
 94c:	00000000 	andeq	r0, r0, r0
 950:	0102ae03 	tsteq	r2, r3, lsl #28
 954:	2c2e2c2c 	stccs	12, cr2, [lr], #-176
 958:	2c2c2e2c 	stccs	14, cr2, [ip], #-176
 95c:	2d2c2c30 	stccs	12, cr2, [ip, #-192]!
 960:	2c2e2c2e 	stccs	12, cr2, [lr], #-184
 964:	2c312c2c 	ldccs	12, cr2, [r1], #-176
 968:	2c2c2c2c 	stccs	12, cr2, [ip], #-176
 96c:	2c2c2c2c 	stccs	12, cr2, [ip], #-176
 970:	09032c2c 	stmeqdb	r3, {r2, r3, r5, sl, fp, sp}
 974:	2c2f2c2b 	stccs	12, cr2, [pc], #-172
 978:	2c2e2c2c 	stccs	12, cr2, [lr], #-176
 97c:	2c2e2c2f 	stccs	12, cr2, [lr], #-188
 980:	2e2c2f2c 	cdpcs	15, 2, cr2, cr12, cr12, {1}
 984:	2c2c2e2c 	stccs	14, cr2, [ip], #-176
 988:	2f2c2c2f 	swics	0x002c2c2f
 98c:	2c2c2e2c 	stccs	14, cr2, [ip], #-176
 990:	2c2c2c2e 	stccs	12, cr2, [ip], #-184
 994:	2c2c2c2c 	stccs	12, cr2, [ip], #-176
 998:	2c2c2c30 	stccs	12, cr2, [ip], #-192
 99c:	2c2c2c2c 	stccs	12, cr2, [ip], #-176
 9a0:	2c2c2c30 	stccs	12, cr2, [ip], #-192
 9a4:	2c2c2c2c 	stccs	12, cr2, [ip], #-176
 9a8:	2c2c2c2c 	stccs	12, cr2, [ip], #-176
 9ac:	2f2c2c2c 	swics	0x002c2c2c
 9b0:	2c2c2c2c 	stccs	12, cr2, [ip], #-176
 9b4:	2c2c2c2c 	stccs	12, cr2, [ip], #-176
 9b8:	2c2c2c2c 	stccs	12, cr2, [ip], #-176
 9bc:	2c2c2f2f 	stccs	15, cr2, [ip], #-188
 9c0:	2c2c2f2c 	stccs	15, cr2, [ip], #-176
 9c4:	2e2c2c32 	mcrcs	12, 1, r2, cr12, cr2, {1}
 9c8:	2c2c2c2c 	stccs	12, cr2, [ip], #-176
 9cc:	2d2c2c30 	stccs	12, cr2, [ip, #-192]!
 9d0:	2c2c2f2e 	stccs	15, cr2, [ip], #-184
 9d4:	2e2c2c2c 	cdpcs	12, 2, cr2, cr12, cr12, {1}
 9d8:	2e2c2c2e 	cdpcs	12, 2, cr2, cr12, cr14, {1}
 9dc:	2c2c2c2c 	stccs	12, cr2, [ip], #-176
 9e0:	2c2c2c2e 	stccs	12, cr2, [ip], #-184
 9e4:	2c2c2c2c 	stccs	12, cr2, [ip], #-176
 9e8:	2c2c2c2c 	stccs	12, cr2, [ip], #-176
 9ec:	2c2c2c2c 	stccs	12, cr2, [ip], #-176
 9f0:	2c2e2c2e 	stccs	12, cr2, [lr], #-184
 9f4:	2c2c2e2c 	stccs	14, cr2, [ip], #-176
 9f8:	2c2c2c2f 	stccs	12, cr2, [ip], #-188
 9fc:	2c2c2c2c 	stccs	12, cr2, [ip], #-176
 a00:	2c2c2c2c 	stccs	12, cr2, [ip], #-176
 a04:	2c2c302c 	stccs	0, cr3, [ip], #-176
 a08:	2c302c2c 	ldccs	12, cr2, [r0], #-176
 a0c:	2c2c2c2c 	stccs	12, cr2, [ip], #-176
 a10:	2c2c2c2c 	stccs	12, cr2, [ip], #-176
 a14:	2c2c2c2c 	stccs	12, cr2, [ip], #-176
 a18:	2c2c2f2c 	stccs	15, cr2, [ip], #-176
 a1c:	2c2c2c2c 	stccs	12, cr2, [ip], #-176
 a20:	2c2c2c2c 	stccs	12, cr2, [ip], #-176
 a24:	2d2c2c2c 	stccs	12, cr2, [ip, #-176]!
 a28:	2c2c2c2c 	stccs	12, cr2, [ip], #-176
 a2c:	01000202 	tsteq	r0, r2, lsl #4
 a30:	00001601 	andeq	r1, r0, r1, lsl #12
 a34:	10000200 	andne	r0, r0, r0, lsl #4
 a38:	02000000 	andeq	r0, r0, #0	; 0x0
 a3c:	0a0efb01 	beq	3bf648 <__code_start-0x2fc409b8>
 a40:	01010100 	tsteq	r1, r0, lsl #2
 a44:	00000001 	andeq	r0, r0, r1
 a48:	16000001 	strne	r0, [r0], -r1
 a4c:	02000000 	andeq	r0, r0, #0	; 0x0
 a50:	00001000 	andeq	r1, r0, r0
 a54:	fb010200 	blx	4125e <__code_start-0x2ffbeda2>
 a58:	01000a0e 	tsteq	r0, lr, lsl #20
 a5c:	00010101 	andeq	r0, r1, r1, lsl #2
 a60:	00010000 	andeq	r0, r1, r0
 a64:	00001600 	andeq	r1, r0, r0, lsl #12
 a68:	10000200 	andne	r0, r0, r0, lsl #4
 a6c:	02000000 	andeq	r0, r0, #0	; 0x0
 a70:	0a0efb01 	beq	3bf67c <__code_start-0x2fc40984>
 a74:	01010100 	tsteq	r1, r0, lsl #2
 a78:	00000001 	andeq	r0, r0, r1
 a7c:	16000001 	strne	r0, [r0], -r1
 a80:	02000000 	andeq	r0, r0, #0	; 0x0
 a84:	00001000 	andeq	r1, r0, r0
 a88:	fb010200 	blx	41292 <__code_start-0x2ffbed6e>
 a8c:	01000a0e 	tsteq	r0, lr, lsl #20
 a90:	00010101 	andeq	r0, r1, r1, lsl #2
 a94:	00010000 	andeq	r0, r1, r0
	...
