
./Output/main.elf:     file format elf32-littlearm

Disassembly of section .text:

30000000 <_start>:
30000000:	ea00000e 	b	30000040 <reset>
30000004:	e59ff014 	ldr	pc, [pc, #20]	; 30000020 <_undefined_instruction>
30000008:	e59ff014 	ldr	pc, [pc, #20]	; 30000024 <_software_interrupt>
3000000c:	e59ff014 	ldr	pc, [pc, #20]	; 30000028 <_prefetch_abort>
30000010:	e59ff014 	ldr	pc, [pc, #20]	; 3000002c <_data_abort>
30000014:	e59ff014 	ldr	pc, [pc, #20]	; 30000030 <_not_used>
30000018:	e59ff014 	ldr	pc, [pc, #20]	; 30000034 <_irq>
3000001c:	e59ff014 	ldr	pc, [pc, #20]	; 30000038 <_fiq>

30000020 <_undefined_instruction>:
30000020:	300000e0 	andcc	r0, r0, r0, ror #1

30000024 <_software_interrupt>:
30000024:	30000120 	andcc	r0, r0, r0, lsr #2

30000028 <_prefetch_abort>:
30000028:	300000d0 	ldrccd	r0, [r0], -r0

3000002c <_data_abort>:
3000002c:	300000d0 	ldrccd	r0, [r0], -r0

30000030 <_not_used>:
30000030:	300000d0 	ldrccd	r0, [r0], -r0

30000034 <_irq>:
30000034:	30000170 	andcc	r0, r0, r0, ror r1

30000038 <_fiq>:
30000038:	300000d0 	ldrccd	r0, [r0], -r0
3000003c:	00000000 	andeq	r0, r0, r0

30000040 <reset>:
30000040:	e3a00453 	mov	r0, #1392508928	; 0x53000000
30000044:	e3a01000 	mov	r1, #0	; 0x0
30000048:	e5801000 	str	r1, [r0]
3000004c:	e3a00313 	mov	r0, #1275068416	; 0x4c000000
30000050:	e3e01000 	mvn	r1, #0	; 0x0
30000054:	e5801000 	str	r1, [r0]
30000058:	e59f0124 	ldr	r0, [pc, #292]	; 30000184 <.text+0x184>
3000005c:	e3a01005 	mov	r1, #5	; 0x5
30000060:	e5801000 	str	r1, [r0]
30000064:	ee110f10 	mrc	15, 0, r0, cr1, cr0, {0}
30000068:	e3800103 	orr	r0, r0, #-1073741824	; 0xc0000000
3000006c:	ee010f10 	mcr	15, 0, r0, cr1, cr0, {0}
30000070:	e59f0110 	ldr	r0, [pc, #272]	; 30000188 <.text+0x188>
30000074:	e59f1110 	ldr	r1, [pc, #272]	; 3000018c <.text+0x18c>
30000078:	e5801000 	str	r1, [r0]
3000007c:	e3a01000 	mov	r1, #0	; 0x0
30000080:	e5910000 	ldr	r0, [r1]
30000084:	e5811000 	str	r1, [r1]
30000088:	e5912000 	ldr	r2, [r1]
3000008c:	e1510002 	cmp	r1, r2
30000090:	e59fd0f8 	ldr	sp, [pc, #248]	; 30000190 <.text+0x190>
30000094:	03a0da01 	moveq	sp, #4096	; 0x1000
30000098:	05810000 	streq	r0, [r1]
3000009c:	eb000043 	bl	300001b0 <S3C2440_Initialized_NandFlash>
300000a0:	eb000047 	bl	300001c4 <S3C2440_Initialized_NorFlash>
300000a4:	eb00004b 	bl	300001d8 <S3C2440_Initialized_SDRAM>
300000a8:	eb00006c 	bl	30000260 <S3C2440_Initialized_CopyCodeData>
300000ac:	eb00008a 	bl	300002dc <S3C2440_Initialized_CleanBssData>
300000b0:	e10f0000 	mrs	r0, CPSR
300000b4:	e3c0001f 	bic	r0, r0, #31	; 0x1f
300000b8:	e3800010 	orr	r0, r0, #16	; 0x10
300000bc:	e3c00080 	bic	r0, r0, #128	; 0x80
300000c0:	e121f000 	msr	CPSR_c, r0
300000c4:	e3a0d30d 	mov	sp, #872415232	; 0x34000000
300000c8:	e59ff0c4 	ldr	pc, [pc, #196]	; 30000194 <.text+0x194>

300000cc <sdramCode>:
300000cc:	e59ff0c4 	ldr	pc, [pc, #196]	; 30000198 <.text+0x198>

300000d0 <halt>:
300000d0:	eafffffe 	b	300000d0 <halt>
	...

300000e0 <undefined_instruction>:
300000e0:	e59fd0b4 	ldr	sp, [pc, #180]	; 3000019c <.text+0x19c>
300000e4:	e92d5fff 	stmdb	sp!, {r0, r1, r2, r3, r4, r5, r6, r7, r8, r9, sl, fp, ip, lr}
300000e8:	e10f0000 	mrs	r0, CPSR
300000ec:	e59f10ac 	ldr	r1, [pc, #172]	; 300001a0 <.text+0x1a0>
300000f0:	eb0003ce 	bl	30001030 <printException>
300000f4:	e8fd9fff 	ldmia	sp!, {r0, r1, r2, r3, r4, r5, r6, r7, r8, r9, sl, fp, ip, pc}^

300000f8 <undefInstructionString>:
300000f8:	65646e55 	strvsb	r6, [r4, #-3669]!
300000fc:	656e6966 	strvsb	r6, [lr, #-2406]!
30000100:	6e692064 	cdpvs	0, 6, cr2, cr9, cr4, {3}
30000104:	75727473 	ldrvcb	r7, [r2, #-1139]!
30000108:	6f697463 	swivs	0x00697463
3000010c:	7845206e 	stmvcda	r5, {r1, r2, r3, r5, r6, sp}^
30000110:	74706365 	ldrvcbt	r6, [r0], #-869
30000114:	006e6f69 	rsbeq	r6, lr, r9, ror #30
	...

30000120 <software_interrupt>:
30000120:	e59fd07c 	ldr	sp, [pc, #124]	; 300001a4 <.text+0x1a4>
30000124:	e92d5fff 	stmdb	sp!, {r0, r1, r2, r3, r4, r5, r6, r7, r8, r9, sl, fp, ip, lr}
30000128:	e1a0400e 	mov	r4, lr
3000012c:	e10f0000 	mrs	r0, CPSR
30000130:	e59f1070 	ldr	r1, [pc, #112]	; 300001a8 <.text+0x1a8>
30000134:	eb0003bd 	bl	30001030 <printException>
30000138:	e1a00004 	mov	r0, r4
3000013c:	e2400004 	sub	r0, r0, #4	; 0x4
30000140:	eb0003d4 	bl	30001098 <printSWIVal>
30000144:	e8fd9fff 	ldmia	sp!, {r0, r1, r2, r3, r4, r5, r6, r7, r8, r9, sl, fp, ip, pc}^

30000148 <softwareInterruptString>:
30000148:	74666f53 	strvcbt	r6, [r6], #-3923
3000014c:	65726177 	ldrvsb	r6, [r2, #-375]!
30000150:	746e4920 	strvcbt	r4, [lr], #-2336
30000154:	75727265 	ldrvcb	r7, [r2, #-613]!
30000158:	45207470 	strmi	r7, [r0, #-1136]!
3000015c:	70636578 	rsbvc	r6, r3, r8, ror r5
30000160:	6e6f6974 	mcrvs	9, 3, r6, cr15, cr4, {3}
	...

30000170 <irq>:
30000170:	e59fd034 	ldr	sp, [pc, #52]	; 300001ac <.text+0x1ac>
30000174:	e24ee004 	sub	lr, lr, #4	; 0x4
30000178:	e92d5fff 	stmdb	sp!, {r0, r1, r2, r3, r4, r5, r6, r7, r8, r9, sl, fp, ip, lr}
3000017c:	eb000087 	bl	300003a0 <S3C2440_IRQHandler>
30000180:	e8fd9fff 	ldmia	sp!, {r0, r1, r2, r3, r4, r5, r6, r7, r8, r9, sl, fp, ip, pc}^
30000184:	4c000014 	stcmi	0, cr0, [r0], {20}
30000188:	4c000004 	stcmi	0, cr0, [r0], {4}
3000018c:	0005c011 	andeq	ip, r5, r1, lsl r0
30000190:	40001000 	andmi	r1, r0, r0
30000194:	300000cc 	andcc	r0, r0, ip, asr #1
30000198:	3000112c 	andcc	r1, r0, ip, lsr #2
3000019c:	33f00000 	mvnccs	r0, #0	; 0x0
300001a0:	300000f8 	strccd	r0, [r0], -r8
300001a4:	33e00000 	mvncc	r0, #0	; 0x0
300001a8:	30000148 	andcc	r0, r0, r8, asr #2
300001ac:	33d00000 	bicccs	r0, r0, #0	; 0x0

300001b0 <S3C2440_Initialized_NandFlash>:
300001b0:	e1a0c00d 	mov	ip, sp
300001b4:	e92dd800 	stmdb	sp!, {fp, ip, lr, pc}
300001b8:	e24cb004 	sub	fp, ip, #4	; 0x4
300001bc:	eb0000d7 	bl	30000520 <S3C2440_NandFlashInitialized>
300001c0:	e89da800 	ldmia	sp, {fp, sp, pc}

300001c4 <S3C2440_Initialized_NorFlash>:
300001c4:	e1a0c00d 	mov	ip, sp
300001c8:	e92dd800 	stmdb	sp!, {fp, ip, lr, pc}
300001cc:	e24cb004 	sub	fp, ip, #4	; 0x4
300001d0:	eb000277 	bl	30000bb4 <S3C2440_NorFlashInitialized>
300001d4:	e89da800 	ldmia	sp, {fp, sp, pc}

300001d8 <S3C2440_Initialized_SDRAM>:
300001d8:	e1a0c00d 	mov	ip, sp
300001dc:	e92dd800 	stmdb	sp!, {fp, ip, lr, pc}
300001e0:	e24cb004 	sub	fp, ip, #4	; 0x4
300001e4:	eb000088 	bl	3000040c <S3C2440_SDRAMInitialized>
300001e8:	e89da800 	ldmia	sp, {fp, sp, pc}

300001ec <S3C2440_Initialized_CheckBootFromNorFlashOrNandFlash>:
300001ec:	e1a0c00d 	mov	ip, sp
300001f0:	e92dd800 	stmdb	sp!, {fp, ip, lr, pc}
300001f4:	e24cb004 	sub	fp, ip, #4	; 0x4
300001f8:	e24dd00c 	sub	sp, sp, #12	; 0xc
300001fc:	e3a03000 	mov	r3, #0	; 0x0
30000200:	e50b3010 	str	r3, [fp, #-16]
30000204:	e51b3010 	ldr	r3, [fp, #-16]
30000208:	e5933000 	ldr	r3, [r3]
3000020c:	e50b3014 	str	r3, [fp, #-20]
30000210:	e51b2010 	ldr	r2, [fp, #-16]
30000214:	e59f3040 	ldr	r3, [pc, #64]	; 3000025c <.text+0x25c>
30000218:	e5823000 	str	r3, [r2]
3000021c:	e51b3010 	ldr	r3, [fp, #-16]
30000220:	e5932000 	ldr	r2, [r3]
30000224:	e59f3030 	ldr	r3, [pc, #48]	; 3000025c <.text+0x25c>
30000228:	e1520003 	cmp	r2, r3
3000022c:	1a000005 	bne	30000248 <S3C2440_Initialized_CheckBootFromNorFlashOrNandFlash+0x5c>
30000230:	e51b2010 	ldr	r2, [fp, #-16]
30000234:	e51b3014 	ldr	r3, [fp, #-20]
30000238:	e5823000 	str	r3, [r2]
3000023c:	e3a03000 	mov	r3, #0	; 0x0
30000240:	e50b3018 	str	r3, [fp, #-24]
30000244:	ea000001 	b	30000250 <S3C2440_Initialized_CheckBootFromNorFlashOrNandFlash+0x64>
30000248:	e3a03001 	mov	r3, #1	; 0x1
3000024c:	e50b3018 	str	r3, [fp, #-24]
30000250:	e51b0018 	ldr	r0, [fp, #-24]
30000254:	e24bd00c 	sub	sp, fp, #12	; 0xc
30000258:	e89da800 	ldmia	sp, {fp, sp, pc}
3000025c:	12345678 	eornes	r5, r4, #125829120	; 0x7800000

30000260 <S3C2440_Initialized_CopyCodeData>:
30000260:	e1a0c00d 	mov	ip, sp
30000264:	e92dd800 	stmdb	sp!, {fp, ip, lr, pc}
30000268:	e24cb004 	sub	fp, ip, #4	; 0x4
3000026c:	e24dd010 	sub	sp, sp, #16	; 0x10
30000270:	e59f305c 	ldr	r3, [pc, #92]	; 300002d4 <.text+0x2d4>
30000274:	e50b3010 	str	r3, [fp, #-16]
30000278:	e59f3058 	ldr	r3, [pc, #88]	; 300002d8 <.text+0x2d8>
3000027c:	e50b3014 	str	r3, [fp, #-20]
30000280:	e3a03000 	mov	r3, #0	; 0x0
30000284:	e50b3018 	str	r3, [fp, #-24]
30000288:	e59f2048 	ldr	r2, [pc, #72]	; 300002d8 <.text+0x2d8>
3000028c:	e59f3040 	ldr	r3, [pc, #64]	; 300002d4 <.text+0x2d4>
30000290:	e0633002 	rsb	r3, r3, r2
30000294:	e50b301c 	str	r3, [fp, #-28]
30000298:	ebffffd3 	bl	300001ec <S3C2440_Initialized_CheckBootFromNorFlashOrNandFlash>
3000029c:	e1a03000 	mov	r3, r0
300002a0:	e3530000 	cmp	r3, #0	; 0x0
300002a4:	0a000004 	beq	300002bc <S3C2440_Initialized_CopyCodeData+0x5c>
300002a8:	e51b0018 	ldr	r0, [fp, #-24]
300002ac:	e51b1010 	ldr	r1, [fp, #-16]
300002b0:	e51b201c 	ldr	r2, [fp, #-28]
300002b4:	eb0002d4 	bl	30000e0c <S3C2440_NorFlash_Read>
300002b8:	ea000003 	b	300002cc <S3C2440_Initialized_CopyCodeData+0x6c>
300002bc:	e51b0018 	ldr	r0, [fp, #-24]
300002c0:	e51b1010 	ldr	r1, [fp, #-16]
300002c4:	e51b201c 	ldr	r2, [fp, #-28]
300002c8:	eb000195 	bl	30000924 <S3C2440_NandFlash_Read>
300002cc:	e24bd00c 	sub	sp, fp, #12	; 0xc
300002d0:	e89da800 	ldmia	sp, {fp, sp, pc}
300002d4:	30000000 	andcc	r0, r0, r0
300002d8:	3000cc14 	andcc	ip, r0, r4, lsl ip

300002dc <S3C2440_Initialized_CleanBssData>:
300002dc:	e1a0c00d 	mov	ip, sp
300002e0:	e92dd800 	stmdb	sp!, {fp, ip, lr, pc}
300002e4:	e24cb004 	sub	fp, ip, #4	; 0x4
300002e8:	e24dd008 	sub	sp, sp, #8	; 0x8
300002ec:	e59f3040 	ldr	r3, [pc, #64]	; 30000334 <.text+0x334>
300002f0:	e50b3010 	str	r3, [fp, #-16]
300002f4:	e59f303c 	ldr	r3, [pc, #60]	; 30000338 <.text+0x338>
300002f8:	e50b3014 	str	r3, [fp, #-20]
300002fc:	e51b2010 	ldr	r2, [fp, #-16]
30000300:	e51b3014 	ldr	r3, [fp, #-20]
30000304:	e1520003 	cmp	r2, r3
30000308:	8a000007 	bhi	3000032c <S3C2440_Initialized_CleanBssData+0x50>
3000030c:	e24b0010 	sub	r0, fp, #16	; 0x10
30000310:	e5903000 	ldr	r3, [r0]
30000314:	e1a01003 	mov	r1, r3
30000318:	e3a02000 	mov	r2, #0	; 0x0
3000031c:	e5812000 	str	r2, [r1]
30000320:	e2833004 	add	r3, r3, #4	; 0x4
30000324:	e5803000 	str	r3, [r0]
30000328:	eafffff3 	b	300002fc <S3C2440_Initialized_CleanBssData+0x20>
3000032c:	e24bd00c 	sub	sp, fp, #12	; 0xc
30000330:	e89da800 	ldmia	sp, {fp, sp, pc}
30000334:	3000cc14 	andcc	ip, r0, r4, lsl ip
30000338:	3000d01c 	andcc	sp, r0, ip, lsl r0

3000033c <S3C2440_IRQRegister>:
3000033c:	e1a0c00d 	mov	ip, sp
30000340:	e92dd800 	stmdb	sp!, {fp, ip, lr, pc}
30000344:	e24cb004 	sub	fp, ip, #4	; 0x4
30000348:	e24dd008 	sub	sp, sp, #8	; 0x8
3000034c:	e1a03000 	mov	r3, r0
30000350:	e50b1014 	str	r1, [fp, #-20]
30000354:	e54b300d 	strb	r3, [fp, #-13]
30000358:	e59f103c 	ldr	r1, [pc, #60]	; 3000039c <.text+0x39c>
3000035c:	e55b200d 	ldrb	r2, [fp, #-13]
30000360:	e51b3014 	ldr	r3, [fp, #-20]
30000364:	e7813102 	str	r3, [r1, r2, lsl #2]
30000368:	e3a0044a 	mov	r0, #1241513984	; 0x4a000000
3000036c:	e2800008 	add	r0, r0, #8	; 0x8
30000370:	e3a0244a 	mov	r2, #1241513984	; 0x4a000000
30000374:	e2822008 	add	r2, r2, #8	; 0x8
30000378:	e55b100d 	ldrb	r1, [fp, #-13]
3000037c:	e3a03001 	mov	r3, #1	; 0x1
30000380:	e1a03113 	mov	r3, r3, lsl r1
30000384:	e1e01003 	mvn	r1, r3
30000388:	e5923000 	ldr	r3, [r2]
3000038c:	e0033001 	and	r3, r3, r1
30000390:	e5803000 	str	r3, [r0]
30000394:	e24bd00c 	sub	sp, fp, #12	; 0xc
30000398:	e89da800 	ldmia	sp, {fp, sp, pc}
3000039c:	3000cc88 	andcc	ip, r0, r8, lsl #25

300003a0 <S3C2440_IRQHandler>:
300003a0:	e1a0c00d 	mov	ip, sp
300003a4:	e92dd800 	stmdb	sp!, {fp, ip, lr, pc}
300003a8:	e24cb004 	sub	fp, ip, #4	; 0x4
300003ac:	e24dd004 	sub	sp, sp, #4	; 0x4
300003b0:	e3a0344a 	mov	r3, #1241513984	; 0x4a000000
300003b4:	e2833014 	add	r3, r3, #20	; 0x14
300003b8:	e5933000 	ldr	r3, [r3]
300003bc:	e50b3010 	str	r3, [fp, #-16]
300003c0:	e59f2040 	ldr	r2, [pc, #64]	; 30000408 <.text+0x408>
300003c4:	e51b3010 	ldr	r3, [fp, #-16]
300003c8:	e7923103 	ldr	r3, [r2, r3, lsl #2]
300003cc:	e51b0010 	ldr	r0, [fp, #-16]
300003d0:	e1a0e00f 	mov	lr, pc
300003d4:	e1a0f003 	mov	pc, r3
300003d8:	e3a0144a 	mov	r1, #1241513984	; 0x4a000000
300003dc:	e3a02001 	mov	r2, #1	; 0x1
300003e0:	e51b3010 	ldr	r3, [fp, #-16]
300003e4:	e1a03312 	mov	r3, r2, lsl r3
300003e8:	e5813000 	str	r3, [r1]
300003ec:	e3a0244a 	mov	r2, #1241513984	; 0x4a000000
300003f0:	e2822010 	add	r2, r2, #16	; 0x10
300003f4:	e3a01001 	mov	r1, #1	; 0x1
300003f8:	e51b3010 	ldr	r3, [fp, #-16]
300003fc:	e1a03311 	mov	r3, r1, lsl r3
30000400:	e5823000 	str	r3, [r2]
30000404:	e89da808 	ldmia	sp, {r3, fp, sp, pc}
30000408:	3000cc88 	andcc	ip, r0, r8, lsl #25

3000040c <S3C2440_SDRAMInitialized>:
3000040c:	e1a0c00d 	mov	ip, sp
30000410:	e92dd800 	stmdb	sp!, {fp, ip, lr, pc}
30000414:	e24cb004 	sub	fp, ip, #4	; 0x4
30000418:	e3a02312 	mov	r2, #1207959552	; 0x48000000
3000041c:	e3a03312 	mov	r3, #1207959552	; 0x48000000
30000420:	e5933000 	ldr	r3, [r3]
30000424:	e3c3340f 	bic	r3, r3, #251658240	; 0xf000000
30000428:	e5823000 	str	r3, [r2]
3000042c:	e3a02312 	mov	r2, #1207959552	; 0x48000000
30000430:	e3a03312 	mov	r3, #1207959552	; 0x48000000
30000434:	e5933000 	ldr	r3, [r3]
30000438:	e3c3320f 	bic	r3, r3, #-268435456	; 0xf0000000
3000043c:	e5823000 	str	r3, [r2]
30000440:	e3a02312 	mov	r2, #1207959552	; 0x48000000
30000444:	e3a03312 	mov	r3, #1207959552	; 0x48000000
30000448:	e5933000 	ldr	r3, [r3]
3000044c:	e3833422 	orr	r3, r3, #570425344	; 0x22000000
30000450:	e5823000 	str	r3, [r2]
30000454:	e3a02312 	mov	r2, #1207959552	; 0x48000000
30000458:	e282201c 	add	r2, r2, #28	; 0x1c
3000045c:	e3a03312 	mov	r3, #1207959552	; 0x48000000
30000460:	e283301c 	add	r3, r3, #28	; 0x1c
30000464:	e5933000 	ldr	r3, [r3]
30000468:	e3c33906 	bic	r3, r3, #98304	; 0x18000
3000046c:	e3c3300f 	bic	r3, r3, #15	; 0xf
30000470:	e5823000 	str	r3, [r2]
30000474:	e3a02312 	mov	r2, #1207959552	; 0x48000000
30000478:	e282201c 	add	r2, r2, #28	; 0x1c
3000047c:	e3a03312 	mov	r3, #1207959552	; 0x48000000
30000480:	e283301c 	add	r3, r3, #28	; 0x1c
30000484:	e5933000 	ldr	r3, [r3]
30000488:	e3833906 	orr	r3, r3, #98304	; 0x18000
3000048c:	e3833001 	orr	r3, r3, #1	; 0x1
30000490:	e5823000 	str	r3, [r2]
30000494:	e3a02312 	mov	r2, #1207959552	; 0x48000000
30000498:	e2822020 	add	r2, r2, #32	; 0x20
3000049c:	e3a03312 	mov	r3, #1207959552	; 0x48000000
300004a0:	e2833020 	add	r3, r3, #32	; 0x20
300004a4:	e5933000 	ldr	r3, [r3]
300004a8:	e3c33906 	bic	r3, r3, #98304	; 0x18000
300004ac:	e3c3300f 	bic	r3, r3, #15	; 0xf
300004b0:	e5823000 	str	r3, [r2]
300004b4:	e3a02312 	mov	r2, #1207959552	; 0x48000000
300004b8:	e2822020 	add	r2, r2, #32	; 0x20
300004bc:	e3a03312 	mov	r3, #1207959552	; 0x48000000
300004c0:	e2833020 	add	r3, r3, #32	; 0x20
300004c4:	e5933000 	ldr	r3, [r3]
300004c8:	e3833906 	orr	r3, r3, #98304	; 0x18000
300004cc:	e3833001 	orr	r3, r3, #1	; 0x1
300004d0:	e5823000 	str	r3, [r2]
300004d4:	e3a02312 	mov	r2, #1207959552	; 0x48000000
300004d8:	e2822024 	add	r2, r2, #36	; 0x24
300004dc:	e3a03721 	mov	r3, #8650752	; 0x840000
300004e0:	e2833e4f 	add	r3, r3, #1264	; 0x4f0
300004e4:	e2833005 	add	r3, r3, #5	; 0x5
300004e8:	e5823000 	str	r3, [r2]
300004ec:	e3a03312 	mov	r3, #1207959552	; 0x48000000
300004f0:	e2833028 	add	r3, r3, #40	; 0x28
300004f4:	e3a020b1 	mov	r2, #177	; 0xb1
300004f8:	e5832000 	str	r2, [r3]
300004fc:	e3a03312 	mov	r3, #1207959552	; 0x48000000
30000500:	e283302c 	add	r3, r3, #44	; 0x2c
30000504:	e3a02020 	mov	r2, #32	; 0x20
30000508:	e5832000 	str	r2, [r3]
3000050c:	e3a03312 	mov	r3, #1207959552	; 0x48000000
30000510:	e2833030 	add	r3, r3, #48	; 0x30
30000514:	e3a02020 	mov	r2, #32	; 0x20
30000518:	e5832000 	str	r2, [r3]
3000051c:	e89da800 	ldmia	sp, {fp, sp, pc}

30000520 <S3C2440_NandFlashInitialized>:
30000520:	e1a0c00d 	mov	ip, sp
30000524:	e92dd800 	stmdb	sp!, {fp, ip, lr, pc}
30000528:	e24cb004 	sub	fp, ip, #4	; 0x4
3000052c:	e3a0244e 	mov	r2, #1308622848	; 0x4e000000
30000530:	e3a03c01 	mov	r3, #256	; 0x100
30000534:	e5823000 	str	r3, [r2]
30000538:	e3a0344e 	mov	r3, #1308622848	; 0x4e000000
3000053c:	e2833004 	add	r3, r3, #4	; 0x4
30000540:	e3a02013 	mov	r2, #19	; 0x13
30000544:	e5832000 	str	r2, [r3]
30000548:	eb000000 	bl	30000550 <S3C2440_NandFlashReset>
3000054c:	e89da800 	ldmia	sp, {fp, sp, pc}

30000550 <S3C2440_NandFlashReset>:
30000550:	e1a0c00d 	mov	ip, sp
30000554:	e92dd800 	stmdb	sp!, {fp, ip, lr, pc}
30000558:	e24cb004 	sub	fp, ip, #4	; 0x4
3000055c:	eb000004 	bl	30000574 <S3C2440_NandFlashSelect>
30000560:	e3a000ff 	mov	r0, #255	; 0xff
30000564:	eb000018 	bl	300005cc <S3C2440_NandFlash_Write_Command>
30000568:	eb000055 	bl	300006c4 <S3C2440_NandFlash_Wait_Ready>
3000056c:	eb00000b 	bl	300005a0 <S3C2440_NandFlashDeselect>
30000570:	e89da800 	ldmia	sp, {fp, sp, pc}

30000574 <S3C2440_NandFlashSelect>:
30000574:	e1a0c00d 	mov	ip, sp
30000578:	e92dd800 	stmdb	sp!, {fp, ip, lr, pc}
3000057c:	e24cb004 	sub	fp, ip, #4	; 0x4
30000580:	e3a0244e 	mov	r2, #1308622848	; 0x4e000000
30000584:	e2822004 	add	r2, r2, #4	; 0x4
30000588:	e3a0344e 	mov	r3, #1308622848	; 0x4e000000
3000058c:	e2833004 	add	r3, r3, #4	; 0x4
30000590:	e5933000 	ldr	r3, [r3]
30000594:	e3c33002 	bic	r3, r3, #2	; 0x2
30000598:	e5823000 	str	r3, [r2]
3000059c:	e89da800 	ldmia	sp, {fp, sp, pc}

300005a0 <S3C2440_NandFlashDeselect>:
300005a0:	e1a0c00d 	mov	ip, sp
300005a4:	e92dd800 	stmdb	sp!, {fp, ip, lr, pc}
300005a8:	e24cb004 	sub	fp, ip, #4	; 0x4
300005ac:	e3a0244e 	mov	r2, #1308622848	; 0x4e000000
300005b0:	e2822004 	add	r2, r2, #4	; 0x4
300005b4:	e3a0344e 	mov	r3, #1308622848	; 0x4e000000
300005b8:	e2833004 	add	r3, r3, #4	; 0x4
300005bc:	e5933000 	ldr	r3, [r3]
300005c0:	e3833002 	orr	r3, r3, #2	; 0x2
300005c4:	e5823000 	str	r3, [r2]
300005c8:	e89da800 	ldmia	sp, {fp, sp, pc}

300005cc <S3C2440_NandFlash_Write_Command>:
300005cc:	e1a0c00d 	mov	ip, sp
300005d0:	e92dd800 	stmdb	sp!, {fp, ip, lr, pc}
300005d4:	e24cb004 	sub	fp, ip, #4	; 0x4
300005d8:	e24dd008 	sub	sp, sp, #8	; 0x8
300005dc:	e1a03000 	mov	r3, r0
300005e0:	e54b300d 	strb	r3, [fp, #-13]
300005e4:	e3a0344e 	mov	r3, #1308622848	; 0x4e000000
300005e8:	e2833008 	add	r3, r3, #8	; 0x8
300005ec:	e55b200d 	ldrb	r2, [fp, #-13]
300005f0:	e5c32000 	strb	r2, [r3]
300005f4:	e3a03000 	mov	r3, #0	; 0x0
300005f8:	e50b3014 	str	r3, [fp, #-20]
300005fc:	e51b3014 	ldr	r3, [fp, #-20]
30000600:	e3530009 	cmp	r3, #9	; 0x9
30000604:	ca000003 	bgt	30000618 <S3C2440_NandFlash_Write_Command+0x4c>
30000608:	e51b3014 	ldr	r3, [fp, #-20]
3000060c:	e2833001 	add	r3, r3, #1	; 0x1
30000610:	e50b3014 	str	r3, [fp, #-20]
30000614:	eafffff8 	b	300005fc <S3C2440_NandFlash_Write_Command+0x30>
30000618:	e24bd00c 	sub	sp, fp, #12	; 0xc
3000061c:	e89da800 	ldmia	sp, {fp, sp, pc}

30000620 <S3C2440_NandFlash_Write_Address>:
30000620:	e1a0c00d 	mov	ip, sp
30000624:	e92dd800 	stmdb	sp!, {fp, ip, lr, pc}
30000628:	e24cb004 	sub	fp, ip, #4	; 0x4
3000062c:	e24dd008 	sub	sp, sp, #8	; 0x8
30000630:	e1a03000 	mov	r3, r0
30000634:	e54b300d 	strb	r3, [fp, #-13]
30000638:	e3a0344e 	mov	r3, #1308622848	; 0x4e000000
3000063c:	e283300c 	add	r3, r3, #12	; 0xc
30000640:	e55b200d 	ldrb	r2, [fp, #-13]
30000644:	e5c32000 	strb	r2, [r3]
30000648:	e3a03000 	mov	r3, #0	; 0x0
3000064c:	e50b3014 	str	r3, [fp, #-20]
30000650:	e51b3014 	ldr	r3, [fp, #-20]
30000654:	e3530009 	cmp	r3, #9	; 0x9
30000658:	ca000003 	bgt	3000066c <S3C2440_NandFlash_Write_Address+0x4c>
3000065c:	e51b3014 	ldr	r3, [fp, #-20]
30000660:	e2833001 	add	r3, r3, #1	; 0x1
30000664:	e50b3014 	str	r3, [fp, #-20]
30000668:	eafffff8 	b	30000650 <S3C2440_NandFlash_Write_Address+0x30>
3000066c:	e24bd00c 	sub	sp, fp, #12	; 0xc
30000670:	e89da800 	ldmia	sp, {fp, sp, pc}

30000674 <S3C2440_NandFlash_Read_Data>:
30000674:	e1a0c00d 	mov	ip, sp
30000678:	e92dd800 	stmdb	sp!, {fp, ip, lr, pc}
3000067c:	e24cb004 	sub	fp, ip, #4	; 0x4
30000680:	e3a0344e 	mov	r3, #1308622848	; 0x4e000000
30000684:	e2833010 	add	r3, r3, #16	; 0x10
30000688:	e5d33000 	ldrb	r3, [r3]
3000068c:	e20330ff 	and	r3, r3, #255	; 0xff
30000690:	e1a00003 	mov	r0, r3
30000694:	e89da800 	ldmia	sp, {fp, sp, pc}

30000698 <S3C2440_NandFlash_Write_Data>:
30000698:	e1a0c00d 	mov	ip, sp
3000069c:	e92dd800 	stmdb	sp!, {fp, ip, lr, pc}
300006a0:	e24cb004 	sub	fp, ip, #4	; 0x4
300006a4:	e24dd004 	sub	sp, sp, #4	; 0x4
300006a8:	e1a03000 	mov	r3, r0
300006ac:	e54b300d 	strb	r3, [fp, #-13]
300006b0:	e3a0344e 	mov	r3, #1308622848	; 0x4e000000
300006b4:	e2833010 	add	r3, r3, #16	; 0x10
300006b8:	e55b200d 	ldrb	r2, [fp, #-13]
300006bc:	e5c32000 	strb	r2, [r3]
300006c0:	e89da808 	ldmia	sp, {r3, fp, sp, pc}

300006c4 <S3C2440_NandFlash_Wait_Ready>:
300006c4:	e1a0c00d 	mov	ip, sp
300006c8:	e92dd800 	stmdb	sp!, {fp, ip, lr, pc}
300006cc:	e24cb004 	sub	fp, ip, #4	; 0x4
300006d0:	e3a0344e 	mov	r3, #1308622848	; 0x4e000000
300006d4:	e2833020 	add	r3, r3, #32	; 0x20
300006d8:	e5d33000 	ldrb	r3, [r3]
300006dc:	e20330ff 	and	r3, r3, #255	; 0xff
300006e0:	e2033001 	and	r3, r3, #1	; 0x1
300006e4:	e3530000 	cmp	r3, #0	; 0x0
300006e8:	1a000000 	bne	300006f0 <S3C2440_NandFlash_Wait_Ready+0x2c>
300006ec:	eafffff7 	b	300006d0 <S3C2440_NandFlash_Wait_Ready+0xc>
300006f0:	e89da800 	ldmia	sp, {fp, sp, pc}

300006f4 <S3C2440_NandFlash_Write_Data_Col_Address>:
300006f4:	e1a0c00d 	mov	ip, sp
300006f8:	e92dd800 	stmdb	sp!, {fp, ip, lr, pc}
300006fc:	e24cb004 	sub	fp, ip, #4	; 0x4
30000700:	e24dd004 	sub	sp, sp, #4	; 0x4
30000704:	e50b0010 	str	r0, [fp, #-16]
30000708:	e51b3010 	ldr	r3, [fp, #-16]
3000070c:	e20330ff 	and	r3, r3, #255	; 0xff
30000710:	e1a00003 	mov	r0, r3
30000714:	ebffffc1 	bl	30000620 <S3C2440_NandFlash_Write_Address>
30000718:	e51b3010 	ldr	r3, [fp, #-16]
3000071c:	e1a03423 	mov	r3, r3, lsr #8
30000720:	e20330ff 	and	r3, r3, #255	; 0xff
30000724:	e1a00003 	mov	r0, r3
30000728:	ebffffbc 	bl	30000620 <S3C2440_NandFlash_Write_Address>
3000072c:	e89da808 	ldmia	sp, {r3, fp, sp, pc}

30000730 <S3C2440_NandFlash_Write_Data_Row_Address>:
30000730:	e1a0c00d 	mov	ip, sp
30000734:	e92dd800 	stmdb	sp!, {fp, ip, lr, pc}
30000738:	e24cb004 	sub	fp, ip, #4	; 0x4
3000073c:	e24dd004 	sub	sp, sp, #4	; 0x4
30000740:	e50b0010 	str	r0, [fp, #-16]
30000744:	e51b3010 	ldr	r3, [fp, #-16]
30000748:	e20330ff 	and	r3, r3, #255	; 0xff
3000074c:	e1a00003 	mov	r0, r3
30000750:	ebffffb2 	bl	30000620 <S3C2440_NandFlash_Write_Address>
30000754:	e51b3010 	ldr	r3, [fp, #-16]
30000758:	e1a03423 	mov	r3, r3, lsr #8
3000075c:	e20330ff 	and	r3, r3, #255	; 0xff
30000760:	e1a00003 	mov	r0, r3
30000764:	ebffffad 	bl	30000620 <S3C2440_NandFlash_Write_Address>
30000768:	e51b3010 	ldr	r3, [fp, #-16]
3000076c:	e1a03823 	mov	r3, r3, lsr #16
30000770:	e20330ff 	and	r3, r3, #255	; 0xff
30000774:	e1a00003 	mov	r0, r3
30000778:	ebffffa8 	bl	30000620 <S3C2440_NandFlash_Write_Address>
3000077c:	e89da808 	ldmia	sp, {r3, fp, sp, pc}

30000780 <S3C2440_NandFlash_Write_Data_Address>:
30000780:	e1a0c00d 	mov	ip, sp
30000784:	e92dd800 	stmdb	sp!, {fp, ip, lr, pc}
30000788:	e24cb004 	sub	fp, ip, #4	; 0x4
3000078c:	e24dd00c 	sub	sp, sp, #12	; 0xc
30000790:	e50b0010 	str	r0, [fp, #-16]
30000794:	e51b3010 	ldr	r3, [fp, #-16]
30000798:	e1a035a3 	mov	r3, r3, lsr #11
3000079c:	e50b3014 	str	r3, [fp, #-20]
300007a0:	e51b3010 	ldr	r3, [fp, #-16]
300007a4:	e1a03a83 	mov	r3, r3, lsl #21
300007a8:	e1a03aa3 	mov	r3, r3, lsr #21
300007ac:	e50b3018 	str	r3, [fp, #-24]
300007b0:	e51b0018 	ldr	r0, [fp, #-24]
300007b4:	ebffffce 	bl	300006f4 <S3C2440_NandFlash_Write_Data_Col_Address>
300007b8:	e51b0014 	ldr	r0, [fp, #-20]
300007bc:	ebffffdb 	bl	30000730 <S3C2440_NandFlash_Write_Data_Row_Address>
300007c0:	e24bd00c 	sub	sp, fp, #12	; 0xc
300007c4:	e89da800 	ldmia	sp, {fp, sp, pc}

300007c8 <S3C2440_NandFlash_Check_BadBlock>:
300007c8:	e1a0c00d 	mov	ip, sp
300007cc:	e92dd800 	stmdb	sp!, {fp, ip, lr, pc}
300007d0:	e24cb004 	sub	fp, ip, #4	; 0x4
300007d4:	e24dd014 	sub	sp, sp, #20	; 0x14
300007d8:	e50b0010 	str	r0, [fp, #-16]
300007dc:	e51b3010 	ldr	r3, [fp, #-16]
300007e0:	e1a035a3 	mov	r3, r3, lsr #11
300007e4:	e50b3014 	str	r3, [fp, #-20]
300007e8:	e3a03b02 	mov	r3, #2048	; 0x800
300007ec:	e50b3018 	str	r3, [fp, #-24]
300007f0:	ebffff5f 	bl	30000574 <S3C2440_NandFlashSelect>
300007f4:	e3a00000 	mov	r0, #0	; 0x0
300007f8:	ebffff73 	bl	300005cc <S3C2440_NandFlash_Write_Command>
300007fc:	e51b0018 	ldr	r0, [fp, #-24]
30000800:	ebffffbb 	bl	300006f4 <S3C2440_NandFlash_Write_Data_Col_Address>
30000804:	e51b0014 	ldr	r0, [fp, #-20]
30000808:	ebffffc8 	bl	30000730 <S3C2440_NandFlash_Write_Data_Row_Address>
3000080c:	e3a00030 	mov	r0, #48	; 0x30
30000810:	ebffff6d 	bl	300005cc <S3C2440_NandFlash_Write_Command>
30000814:	ebffffaa 	bl	300006c4 <S3C2440_NandFlash_Wait_Ready>
30000818:	ebffff95 	bl	30000674 <S3C2440_NandFlash_Read_Data>
3000081c:	e1a03000 	mov	r3, r0
30000820:	e54b3019 	strb	r3, [fp, #-25]
30000824:	ebffff5d 	bl	300005a0 <S3C2440_NandFlashDeselect>
30000828:	e55b3019 	ldrb	r3, [fp, #-25]
3000082c:	e35300ff 	cmp	r3, #255	; 0xff
30000830:	0a000002 	beq	30000840 <S3C2440_NandFlash_Check_BadBlock+0x78>
30000834:	e3a03001 	mov	r3, #1	; 0x1
30000838:	e50b3020 	str	r3, [fp, #-32]
3000083c:	ea000001 	b	30000848 <S3C2440_NandFlash_Check_BadBlock+0x80>
30000840:	e3a03000 	mov	r3, #0	; 0x0
30000844:	e50b3020 	str	r3, [fp, #-32]
30000848:	e51b0020 	ldr	r0, [fp, #-32]
3000084c:	e24bd00c 	sub	sp, fp, #12	; 0xc
30000850:	e89da800 	ldmia	sp, {fp, sp, pc}

30000854 <S3C2440_NandFlash_Erase>:
30000854:	e1a0c00d 	mov	ip, sp
30000858:	e92dd800 	stmdb	sp!, {fp, ip, lr, pc}
3000085c:	e24cb004 	sub	fp, ip, #4	; 0x4
30000860:	e24dd010 	sub	sp, sp, #16	; 0x10
30000864:	e50b0010 	str	r0, [fp, #-16]
30000868:	e50b1014 	str	r1, [fp, #-20]
3000086c:	e51b3010 	ldr	r3, [fp, #-16]
30000870:	e1a035a3 	mov	r3, r3, lsr #11
30000874:	e50b3018 	str	r3, [fp, #-24]
30000878:	e51b3010 	ldr	r3, [fp, #-16]
3000087c:	e3c334ff 	bic	r3, r3, #-16777216	; 0xff000000
30000880:	e3c338fe 	bic	r3, r3, #16646144	; 0xfe0000
30000884:	e3530000 	cmp	r3, #0	; 0x0
30000888:	1a000005 	bne	300008a4 <S3C2440_NandFlash_Erase+0x50>
3000088c:	e51b3014 	ldr	r3, [fp, #-20]
30000890:	e3c334ff 	bic	r3, r3, #-16777216	; 0xff000000
30000894:	e3c338fe 	bic	r3, r3, #16646144	; 0xfe0000
30000898:	e3530000 	cmp	r3, #0	; 0x0
3000089c:	1a000000 	bne	300008a4 <S3C2440_NandFlash_Erase+0x50>
300008a0:	ea000002 	b	300008b0 <S3C2440_NandFlash_Erase+0x5c>
300008a4:	e3e03000 	mvn	r3, #0	; 0x0
300008a8:	e50b301c 	str	r3, [fp, #-28]
300008ac:	ea000019 	b	30000918 <S3C2440_NandFlash_Erase+0xc4>
300008b0:	ebffff2f 	bl	30000574 <S3C2440_NandFlashSelect>
300008b4:	e51b2014 	ldr	r2, [fp, #-20]
300008b8:	e3e034ff 	mvn	r3, #-16777216	; 0xff000000
300008bc:	e24338fe 	sub	r3, r3, #16646144	; 0xfe0000
300008c0:	e1520003 	cmp	r2, r3
300008c4:	9a000010 	bls	3000090c <S3C2440_NandFlash_Erase+0xb8>
300008c8:	e51b3010 	ldr	r3, [fp, #-16]
300008cc:	e1a035a3 	mov	r3, r3, lsr #11
300008d0:	e50b3018 	str	r3, [fp, #-24]
300008d4:	e3a00060 	mov	r0, #96	; 0x60
300008d8:	ebffff3b 	bl	300005cc <S3C2440_NandFlash_Write_Command>
300008dc:	e51b0018 	ldr	r0, [fp, #-24]
300008e0:	ebffff92 	bl	30000730 <S3C2440_NandFlash_Write_Data_Row_Address>
300008e4:	e3a000d0 	mov	r0, #208	; 0xd0
300008e8:	ebffff37 	bl	300005cc <S3C2440_NandFlash_Write_Command>
300008ec:	ebffff74 	bl	300006c4 <S3C2440_NandFlash_Wait_Ready>
300008f0:	e51b3014 	ldr	r3, [fp, #-20]
300008f4:	e2433802 	sub	r3, r3, #131072	; 0x20000
300008f8:	e50b3014 	str	r3, [fp, #-20]
300008fc:	e51b3010 	ldr	r3, [fp, #-16]
30000900:	e2833802 	add	r3, r3, #131072	; 0x20000
30000904:	e50b3010 	str	r3, [fp, #-16]
30000908:	eaffffe9 	b	300008b4 <S3C2440_NandFlash_Erase+0x60>
3000090c:	ebffff23 	bl	300005a0 <S3C2440_NandFlashDeselect>
30000910:	e3a03000 	mov	r3, #0	; 0x0
30000914:	e50b301c 	str	r3, [fp, #-28]
30000918:	e51b001c 	ldr	r0, [fp, #-28]
3000091c:	e24bd00c 	sub	sp, fp, #12	; 0xc
30000920:	e89da800 	ldmia	sp, {fp, sp, pc}

30000924 <S3C2440_NandFlash_Read>:
30000924:	e1a0c00d 	mov	ip, sp
30000928:	e92dd800 	stmdb	sp!, {fp, ip, lr, pc}
3000092c:	e24cb004 	sub	fp, ip, #4	; 0x4
30000930:	e24dd018 	sub	sp, sp, #24	; 0x18
30000934:	e50b0010 	str	r0, [fp, #-16]
30000938:	e50b1014 	str	r1, [fp, #-20]
3000093c:	e50b2018 	str	r2, [fp, #-24]
30000940:	e3a03000 	mov	r3, #0	; 0x0
30000944:	e50b301c 	str	r3, [fp, #-28]
30000948:	e51b3010 	ldr	r3, [fp, #-16]
3000094c:	e1a035a3 	mov	r3, r3, lsr #11
30000950:	e50b3020 	str	r3, [fp, #-32]
30000954:	e51b3010 	ldr	r3, [fp, #-16]
30000958:	e1a03a83 	mov	r3, r3, lsl #21
3000095c:	e1a03aa3 	mov	r3, r3, lsr #21
30000960:	e50b3024 	str	r3, [fp, #-36]
30000964:	e51b201c 	ldr	r2, [fp, #-28]
30000968:	e51b3018 	ldr	r3, [fp, #-24]
3000096c:	e1520003 	cmp	r2, r3
30000970:	2a00003b 	bcs	30000a64 <S3C2440_NandFlash_Read+0x140>
30000974:	e51b3010 	ldr	r3, [fp, #-16]
30000978:	e3c334ff 	bic	r3, r3, #-16777216	; 0xff000000
3000097c:	e3c338fe 	bic	r3, r3, #16646144	; 0xfe0000
30000980:	e3530000 	cmp	r3, #0	; 0x0
30000984:	1a000008 	bne	300009ac <S3C2440_NandFlash_Read+0x88>
30000988:	e51b0010 	ldr	r0, [fp, #-16]
3000098c:	ebffff8d 	bl	300007c8 <S3C2440_NandFlash_Check_BadBlock>
30000990:	e1a03000 	mov	r3, r0
30000994:	e3530000 	cmp	r3, #0	; 0x0
30000998:	0a000003 	beq	300009ac <S3C2440_NandFlash_Read+0x88>
3000099c:	e51b3010 	ldr	r3, [fp, #-16]
300009a0:	e2833802 	add	r3, r3, #131072	; 0x20000
300009a4:	e50b3010 	str	r3, [fp, #-16]
300009a8:	eaffffed 	b	30000964 <S3C2440_NandFlash_Read+0x40>
300009ac:	ebfffef0 	bl	30000574 <S3C2440_NandFlashSelect>
300009b0:	e3a00000 	mov	r0, #0	; 0x0
300009b4:	ebffff04 	bl	300005cc <S3C2440_NandFlash_Write_Command>
300009b8:	e51b0010 	ldr	r0, [fp, #-16]
300009bc:	ebffff6f 	bl	30000780 <S3C2440_NandFlash_Write_Data_Address>
300009c0:	e3a00030 	mov	r0, #48	; 0x30
300009c4:	ebffff00 	bl	300005cc <S3C2440_NandFlash_Write_Command>
300009c8:	ebffff3d 	bl	300006c4 <S3C2440_NandFlash_Wait_Ready>
300009cc:	e51b2024 	ldr	r2, [fp, #-36]
300009d0:	e3a03e7f 	mov	r3, #2032	; 0x7f0
300009d4:	e283300f 	add	r3, r3, #15	; 0xf
300009d8:	e1520003 	cmp	r2, r3
300009dc:	8a000014 	bhi	30000a34 <S3C2440_NandFlash_Read+0x110>
300009e0:	e51b201c 	ldr	r2, [fp, #-28]
300009e4:	e51b3018 	ldr	r3, [fp, #-24]
300009e8:	e1520003 	cmp	r2, r3
300009ec:	2a000010 	bcs	30000a34 <S3C2440_NandFlash_Read+0x110>
300009f0:	ebffff1f 	bl	30000674 <S3C2440_NandFlash_Read_Data>
300009f4:	e1a0c000 	mov	ip, r0
300009f8:	e24b001c 	sub	r0, fp, #28	; 0x1c
300009fc:	e5902000 	ldr	r2, [r0]
30000a00:	e1a01002 	mov	r1, r2
30000a04:	e51b3014 	ldr	r3, [fp, #-20]
30000a08:	e0813003 	add	r3, r1, r3
30000a0c:	e5c3c000 	strb	ip, [r3]
30000a10:	e2822001 	add	r2, r2, #1	; 0x1
30000a14:	e5802000 	str	r2, [r0]
30000a18:	e51b3010 	ldr	r3, [fp, #-16]
30000a1c:	e2833001 	add	r3, r3, #1	; 0x1
30000a20:	e50b3010 	str	r3, [fp, #-16]
30000a24:	e51b3024 	ldr	r3, [fp, #-36]
30000a28:	e2833001 	add	r3, r3, #1	; 0x1
30000a2c:	e50b3024 	str	r3, [fp, #-36]
30000a30:	eaffffe5 	b	300009cc <S3C2440_NandFlash_Read+0xa8>
30000a34:	e51b201c 	ldr	r2, [fp, #-28]
30000a38:	e51b3018 	ldr	r3, [fp, #-24]
30000a3c:	e1520003 	cmp	r2, r3
30000a40:	1a000000 	bne	30000a48 <S3C2440_NandFlash_Read+0x124>
30000a44:	ea000006 	b	30000a64 <S3C2440_NandFlash_Read+0x140>
30000a48:	e3a03000 	mov	r3, #0	; 0x0
30000a4c:	e50b3024 	str	r3, [fp, #-36]
30000a50:	e51b3020 	ldr	r3, [fp, #-32]
30000a54:	e2833001 	add	r3, r3, #1	; 0x1
30000a58:	e50b3020 	str	r3, [fp, #-32]
30000a5c:	ebfffecf 	bl	300005a0 <S3C2440_NandFlashDeselect>
30000a60:	eaffffbf 	b	30000964 <S3C2440_NandFlash_Read+0x40>
30000a64:	e24bd00c 	sub	sp, fp, #12	; 0xc
30000a68:	e89da800 	ldmia	sp, {fp, sp, pc}

30000a6c <S3C2440_NandFlash_Write>:
30000a6c:	e1a0c00d 	mov	ip, sp
30000a70:	e92dd800 	stmdb	sp!, {fp, ip, lr, pc}
30000a74:	e24cb004 	sub	fp, ip, #4	; 0x4
30000a78:	e24dd018 	sub	sp, sp, #24	; 0x18
30000a7c:	e50b0010 	str	r0, [fp, #-16]
30000a80:	e50b1014 	str	r1, [fp, #-20]
30000a84:	e50b2018 	str	r2, [fp, #-24]
30000a88:	e3a03000 	mov	r3, #0	; 0x0
30000a8c:	e50b301c 	str	r3, [fp, #-28]
30000a90:	e51b3010 	ldr	r3, [fp, #-16]
30000a94:	e1a035a3 	mov	r3, r3, lsr #11
30000a98:	e50b3020 	str	r3, [fp, #-32]
30000a9c:	e51b3010 	ldr	r3, [fp, #-16]
30000aa0:	e1a03a83 	mov	r3, r3, lsl #21
30000aa4:	e1a03aa3 	mov	r3, r3, lsr #21
30000aa8:	e50b3024 	str	r3, [fp, #-36]
30000aac:	e51b201c 	ldr	r2, [fp, #-28]
30000ab0:	e51b3018 	ldr	r3, [fp, #-24]
30000ab4:	e1520003 	cmp	r2, r3
30000ab8:	2a00003b 	bcs	30000bac <S3C2440_NandFlash_Write+0x140>
30000abc:	e51b3010 	ldr	r3, [fp, #-16]
30000ac0:	e3c334ff 	bic	r3, r3, #-16777216	; 0xff000000
30000ac4:	e3c338fe 	bic	r3, r3, #16646144	; 0xfe0000
30000ac8:	e3530000 	cmp	r3, #0	; 0x0
30000acc:	1a000008 	bne	30000af4 <S3C2440_NandFlash_Write+0x88>
30000ad0:	e51b0010 	ldr	r0, [fp, #-16]
30000ad4:	ebffff3b 	bl	300007c8 <S3C2440_NandFlash_Check_BadBlock>
30000ad8:	e1a03000 	mov	r3, r0
30000adc:	e3530000 	cmp	r3, #0	; 0x0
30000ae0:	0a000003 	beq	30000af4 <S3C2440_NandFlash_Write+0x88>
30000ae4:	e51b3010 	ldr	r3, [fp, #-16]
30000ae8:	e2833802 	add	r3, r3, #131072	; 0x20000
30000aec:	e50b3010 	str	r3, [fp, #-16]
30000af0:	eaffffed 	b	30000aac <S3C2440_NandFlash_Write+0x40>
30000af4:	ebfffe9e 	bl	30000574 <S3C2440_NandFlashSelect>
30000af8:	e3a00080 	mov	r0, #128	; 0x80
30000afc:	ebfffeb2 	bl	300005cc <S3C2440_NandFlash_Write_Command>
30000b00:	e51b0010 	ldr	r0, [fp, #-16]
30000b04:	ebffff1d 	bl	30000780 <S3C2440_NandFlash_Write_Data_Address>
30000b08:	e51b2024 	ldr	r2, [fp, #-36]
30000b0c:	e3a03e7f 	mov	r3, #2032	; 0x7f0
30000b10:	e283300f 	add	r3, r3, #15	; 0xf
30000b14:	e1520003 	cmp	r2, r3
30000b18:	8a000014 	bhi	30000b70 <S3C2440_NandFlash_Write+0x104>
30000b1c:	e51b201c 	ldr	r2, [fp, #-28]
30000b20:	e51b3018 	ldr	r3, [fp, #-24]
30000b24:	e1520003 	cmp	r2, r3
30000b28:	2a000010 	bcs	30000b70 <S3C2440_NandFlash_Write+0x104>
30000b2c:	e24b001c 	sub	r0, fp, #28	; 0x1c
30000b30:	e5902000 	ldr	r2, [r0]
30000b34:	e1a01002 	mov	r1, r2
30000b38:	e51b3014 	ldr	r3, [fp, #-20]
30000b3c:	e0813003 	add	r3, r1, r3
30000b40:	e5d33000 	ldrb	r3, [r3]
30000b44:	e2822001 	add	r2, r2, #1	; 0x1
30000b48:	e5802000 	str	r2, [r0]
30000b4c:	e1a00003 	mov	r0, r3
30000b50:	ebfffed0 	bl	30000698 <S3C2440_NandFlash_Write_Data>
30000b54:	e51b3010 	ldr	r3, [fp, #-16]
30000b58:	e2833001 	add	r3, r3, #1	; 0x1
30000b5c:	e50b3010 	str	r3, [fp, #-16]
30000b60:	e51b3024 	ldr	r3, [fp, #-36]
30000b64:	e2833001 	add	r3, r3, #1	; 0x1
30000b68:	e50b3024 	str	r3, [fp, #-36]
30000b6c:	eaffffe5 	b	30000b08 <S3C2440_NandFlash_Write+0x9c>
30000b70:	e3a00010 	mov	r0, #16	; 0x10
30000b74:	ebfffe94 	bl	300005cc <S3C2440_NandFlash_Write_Command>
30000b78:	ebfffed1 	bl	300006c4 <S3C2440_NandFlash_Wait_Ready>
30000b7c:	e51b201c 	ldr	r2, [fp, #-28]
30000b80:	e51b3018 	ldr	r3, [fp, #-24]
30000b84:	e1520003 	cmp	r2, r3
30000b88:	1a000000 	bne	30000b90 <S3C2440_NandFlash_Write+0x124>
30000b8c:	ea000006 	b	30000bac <S3C2440_NandFlash_Write+0x140>
30000b90:	e3a03000 	mov	r3, #0	; 0x0
30000b94:	e50b3024 	str	r3, [fp, #-36]
30000b98:	e51b3020 	ldr	r3, [fp, #-32]
30000b9c:	e2833001 	add	r3, r3, #1	; 0x1
30000ba0:	e50b3020 	str	r3, [fp, #-32]
30000ba4:	ebfffe7d 	bl	300005a0 <S3C2440_NandFlashDeselect>
30000ba8:	eaffffbf 	b	30000aac <S3C2440_NandFlash_Write+0x40>
30000bac:	e24bd00c 	sub	sp, fp, #12	; 0xc
30000bb0:	e89da800 	ldmia	sp, {fp, sp, pc}

30000bb4 <S3C2440_NorFlashInitialized>:
30000bb4:	e1a0c00d 	mov	ip, sp
30000bb8:	e92dd800 	stmdb	sp!, {fp, ip, lr, pc}
30000bbc:	e24cb004 	sub	fp, ip, #4	; 0x4
30000bc0:	e3a02312 	mov	r2, #1207959552	; 0x48000000
30000bc4:	e2822004 	add	r2, r2, #4	; 0x4
30000bc8:	e3a03312 	mov	r3, #1207959552	; 0x48000000
30000bcc:	e2833004 	add	r3, r3, #4	; 0x4
30000bd0:	e5933000 	ldr	r3, [r3]
30000bd4:	e3833c07 	orr	r3, r3, #1792	; 0x700
30000bd8:	e5823000 	str	r3, [r2]
30000bdc:	e3a02312 	mov	r2, #1207959552	; 0x48000000
30000be0:	e2822004 	add	r2, r2, #4	; 0x4
30000be4:	e3a03312 	mov	r3, #1207959552	; 0x48000000
30000be8:	e2833004 	add	r3, r3, #4	; 0x4
30000bec:	e5933000 	ldr	r3, [r3]
30000bf0:	e3c33c02 	bic	r3, r3, #512	; 0x200
30000bf4:	e5823000 	str	r3, [r2]
30000bf8:	e89da800 	ldmia	sp, {fp, sp, pc}

30000bfc <S3C2440_NorFlash_ChipWrite_HalfWord>:
30000bfc:	e1a0c00d 	mov	ip, sp
30000c00:	e92dd800 	stmdb	sp!, {fp, ip, lr, pc}
30000c04:	e24cb004 	sub	fp, ip, #4	; 0x4
30000c08:	e24dd010 	sub	sp, sp, #16	; 0x10
30000c0c:	e50b0010 	str	r0, [fp, #-16]
30000c10:	e50b1014 	str	r1, [fp, #-20]
30000c14:	e1a03002 	mov	r3, r2
30000c18:	e14b31b6 	strh	r3, [fp, #-22]
30000c1c:	e51b3014 	ldr	r3, [fp, #-20]
30000c20:	e1a02083 	mov	r2, r3, lsl #1
30000c24:	e51b3010 	ldr	r3, [fp, #-16]
30000c28:	e0823003 	add	r3, r2, r3
30000c2c:	e50b301c 	str	r3, [fp, #-28]
30000c30:	e51b201c 	ldr	r2, [fp, #-28]
30000c34:	e15b31b6 	ldrh	r3, [fp, #-22]
30000c38:	e1c230b0 	strh	r3, [r2]
30000c3c:	e24bd00c 	sub	sp, fp, #12	; 0xc
30000c40:	e89da800 	ldmia	sp, {fp, sp, pc}

30000c44 <S3C2440_NorFlash_ChipRead_HalfWord>:
30000c44:	e1a0c00d 	mov	ip, sp
30000c48:	e92dd800 	stmdb	sp!, {fp, ip, lr, pc}
30000c4c:	e24cb004 	sub	fp, ip, #4	; 0x4
30000c50:	e24dd00c 	sub	sp, sp, #12	; 0xc
30000c54:	e50b0010 	str	r0, [fp, #-16]
30000c58:	e50b1014 	str	r1, [fp, #-20]
30000c5c:	e51b3014 	ldr	r3, [fp, #-20]
30000c60:	e1a02083 	mov	r2, r3, lsl #1
30000c64:	e51b3010 	ldr	r3, [fp, #-16]
30000c68:	e0823003 	add	r3, r2, r3
30000c6c:	e50b3018 	str	r3, [fp, #-24]
30000c70:	e51b3018 	ldr	r3, [fp, #-24]
30000c74:	e1d330b0 	ldrh	r3, [r3]
30000c78:	e1a03803 	mov	r3, r3, lsl #16
30000c7c:	e1a03823 	mov	r3, r3, lsr #16
30000c80:	e1a00003 	mov	r0, r3
30000c84:	e24bd00c 	sub	sp, fp, #12	; 0xc
30000c88:	e89da800 	ldmia	sp, {fp, sp, pc}

30000c8c <S3C2440_NorFlash_Write_Command>:
30000c8c:	e1a0c00d 	mov	ip, sp
30000c90:	e92dd800 	stmdb	sp!, {fp, ip, lr, pc}
30000c94:	e24cb004 	sub	fp, ip, #4	; 0x4
30000c98:	e24dd008 	sub	sp, sp, #8	; 0x8
30000c9c:	e50b0010 	str	r0, [fp, #-16]
30000ca0:	e1a03001 	mov	r3, r1
30000ca4:	e14b31b2 	strh	r3, [fp, #-18]
30000ca8:	e15b31b2 	ldrh	r3, [fp, #-18]
30000cac:	e3a00000 	mov	r0, #0	; 0x0
30000cb0:	e51b1010 	ldr	r1, [fp, #-16]
30000cb4:	e1a02003 	mov	r2, r3
30000cb8:	ebffffcf 	bl	30000bfc <S3C2440_NorFlash_ChipWrite_HalfWord>
30000cbc:	e24bd00c 	sub	sp, fp, #12	; 0xc
30000cc0:	e89da800 	ldmia	sp, {fp, sp, pc}

30000cc4 <S3C2440_NorFlash_Read_Data>:
30000cc4:	e1a0c00d 	mov	ip, sp
30000cc8:	e92dd800 	stmdb	sp!, {fp, ip, lr, pc}
30000ccc:	e24cb004 	sub	fp, ip, #4	; 0x4
30000cd0:	e24dd004 	sub	sp, sp, #4	; 0x4
30000cd4:	e50b0010 	str	r0, [fp, #-16]
30000cd8:	e3a00000 	mov	r0, #0	; 0x0
30000cdc:	e51b1010 	ldr	r1, [fp, #-16]
30000ce0:	ebffffd7 	bl	30000c44 <S3C2440_NorFlash_ChipRead_HalfWord>
30000ce4:	e1a03000 	mov	r3, r0
30000ce8:	e1a03803 	mov	r3, r3, lsl #16
30000cec:	e1a03823 	mov	r3, r3, lsr #16
30000cf0:	e1a00003 	mov	r0, r3
30000cf4:	e89da808 	ldmia	sp, {r3, fp, sp, pc}

30000cf8 <S3C2440_NorFlash_Wait_Ready>:
30000cf8:	e1a0c00d 	mov	ip, sp
30000cfc:	e92dd800 	stmdb	sp!, {fp, ip, lr, pc}
30000d00:	e24cb004 	sub	fp, ip, #4	; 0x4
30000d04:	e24dd00c 	sub	sp, sp, #12	; 0xc
30000d08:	e50b0010 	str	r0, [fp, #-16]
30000d0c:	e51b0010 	ldr	r0, [fp, #-16]
30000d10:	ebffffeb 	bl	30000cc4 <S3C2440_NorFlash_Read_Data>
30000d14:	e1a03000 	mov	r3, r0
30000d18:	e1a03803 	mov	r3, r3, lsl #16
30000d1c:	e1a03823 	mov	r3, r3, lsr #16
30000d20:	e50b3018 	str	r3, [fp, #-24]
30000d24:	e51b0010 	ldr	r0, [fp, #-16]
30000d28:	ebffffe5 	bl	30000cc4 <S3C2440_NorFlash_Read_Data>
30000d2c:	e1a03000 	mov	r3, r0
30000d30:	e1a03803 	mov	r3, r3, lsl #16
30000d34:	e1a03823 	mov	r3, r3, lsr #16
30000d38:	e50b3014 	str	r3, [fp, #-20]
30000d3c:	e51b3014 	ldr	r3, [fp, #-20]
30000d40:	e2032040 	and	r2, r3, #64	; 0x40
30000d44:	e51b3018 	ldr	r3, [fp, #-24]
30000d48:	e2033040 	and	r3, r3, #64	; 0x40
30000d4c:	e1520003 	cmp	r2, r3
30000d50:	0a000008 	beq	30000d78 <S3C2440_NorFlash_Wait_Ready+0x80>
30000d54:	e51b3014 	ldr	r3, [fp, #-20]
30000d58:	e50b3018 	str	r3, [fp, #-24]
30000d5c:	e51b0010 	ldr	r0, [fp, #-16]
30000d60:	ebffffd7 	bl	30000cc4 <S3C2440_NorFlash_Read_Data>
30000d64:	e1a03000 	mov	r3, r0
30000d68:	e1a03803 	mov	r3, r3, lsl #16
30000d6c:	e1a03823 	mov	r3, r3, lsr #16
30000d70:	e50b3014 	str	r3, [fp, #-20]
30000d74:	eafffff0 	b	30000d3c <S3C2440_NorFlash_Wait_Ready+0x44>
30000d78:	e24bd00c 	sub	sp, fp, #12	; 0xc
30000d7c:	e89da800 	ldmia	sp, {fp, sp, pc}

30000d80 <S3C2440_NorFlash_Erase>:
30000d80:	e1a0c00d 	mov	ip, sp
30000d84:	e92dd800 	stmdb	sp!, {fp, ip, lr, pc}
30000d88:	e24cb004 	sub	fp, ip, #4	; 0x4
30000d8c:	e24dd004 	sub	sp, sp, #4	; 0x4
30000d90:	e50b0010 	str	r0, [fp, #-16]
30000d94:	e3a00e55 	mov	r0, #1360	; 0x550
30000d98:	e2800005 	add	r0, r0, #5	; 0x5
30000d9c:	e3a010aa 	mov	r1, #170	; 0xaa
30000da0:	ebffffb9 	bl	30000c8c <S3C2440_NorFlash_Write_Command>
30000da4:	e3a00faa 	mov	r0, #680	; 0x2a8
30000da8:	e2800002 	add	r0, r0, #2	; 0x2
30000dac:	e3a01055 	mov	r1, #85	; 0x55
30000db0:	ebffffb5 	bl	30000c8c <S3C2440_NorFlash_Write_Command>
30000db4:	e3a00e55 	mov	r0, #1360	; 0x550
30000db8:	e2800005 	add	r0, r0, #5	; 0x5
30000dbc:	e3a01080 	mov	r1, #128	; 0x80
30000dc0:	ebffffb1 	bl	30000c8c <S3C2440_NorFlash_Write_Command>
30000dc4:	e3a00e55 	mov	r0, #1360	; 0x550
30000dc8:	e2800005 	add	r0, r0, #5	; 0x5
30000dcc:	e3a010aa 	mov	r1, #170	; 0xaa
30000dd0:	ebffffad 	bl	30000c8c <S3C2440_NorFlash_Write_Command>
30000dd4:	e3a00faa 	mov	r0, #680	; 0x2a8
30000dd8:	e2800002 	add	r0, r0, #2	; 0x2
30000ddc:	e3a01055 	mov	r1, #85	; 0x55
30000de0:	ebffffa9 	bl	30000c8c <S3C2440_NorFlash_Write_Command>
30000de4:	e51b3010 	ldr	r3, [fp, #-16]
30000de8:	e1a030a3 	mov	r3, r3, lsr #1
30000dec:	e1a00003 	mov	r0, r3
30000df0:	e3a01030 	mov	r1, #48	; 0x30
30000df4:	ebffffa4 	bl	30000c8c <S3C2440_NorFlash_Write_Command>
30000df8:	e51b3010 	ldr	r3, [fp, #-16]
30000dfc:	e1a030a3 	mov	r3, r3, lsr #1
30000e00:	e1a00003 	mov	r0, r3
30000e04:	ebffffbb 	bl	30000cf8 <S3C2440_NorFlash_Wait_Ready>
30000e08:	e89da808 	ldmia	sp, {r3, fp, sp, pc}

30000e0c <S3C2440_NorFlash_Read>:
30000e0c:	e1a0c00d 	mov	ip, sp
30000e10:	e92dd800 	stmdb	sp!, {fp, ip, lr, pc}
30000e14:	e24cb004 	sub	fp, ip, #4	; 0x4
30000e18:	e24dd018 	sub	sp, sp, #24	; 0x18
30000e1c:	e50b0010 	str	r0, [fp, #-16]
30000e20:	e50b1014 	str	r1, [fp, #-20]
30000e24:	e50b2018 	str	r2, [fp, #-24]
30000e28:	e3a03000 	mov	r3, #0	; 0x0
30000e2c:	e50b301c 	str	r3, [fp, #-28]
30000e30:	e51b3010 	ldr	r3, [fp, #-16]
30000e34:	e50b3020 	str	r3, [fp, #-32]
30000e38:	e51b3020 	ldr	r3, [fp, #-32]
30000e3c:	e50b3024 	str	r3, [fp, #-36]
30000e40:	e51b3018 	ldr	r3, [fp, #-24]
30000e44:	e2433001 	sub	r3, r3, #1	; 0x1
30000e48:	e50b3018 	str	r3, [fp, #-24]
30000e4c:	e3730001 	cmn	r3, #1	; 0x1
30000e50:	0a00000d 	beq	30000e8c <S3C2440_NorFlash_Read+0x80>
30000e54:	e24bc01c 	sub	ip, fp, #28	; 0x1c
30000e58:	e59c1000 	ldr	r1, [ip]
30000e5c:	e1a02001 	mov	r2, r1
30000e60:	e51b3014 	ldr	r3, [fp, #-20]
30000e64:	e082e003 	add	lr, r2, r3
30000e68:	e24b2024 	sub	r2, fp, #36	; 0x24
30000e6c:	e5923000 	ldr	r3, [r2]
30000e70:	e5d30000 	ldrb	r0, [r3]
30000e74:	e2833001 	add	r3, r3, #1	; 0x1
30000e78:	e5823000 	str	r3, [r2]
30000e7c:	e5ce0000 	strb	r0, [lr]
30000e80:	e2811001 	add	r1, r1, #1	; 0x1
30000e84:	e58c1000 	str	r1, [ip]
30000e88:	eaffffec 	b	30000e40 <S3C2440_NorFlash_Read+0x34>
30000e8c:	e24bd00c 	sub	sp, fp, #12	; 0xc
30000e90:	e89da800 	ldmia	sp, {fp, sp, pc}

30000e94 <S3C2440_NorFlash_Write>:
30000e94:	e1a0c00d 	mov	ip, sp
30000e98:	e92dd800 	stmdb	sp!, {fp, ip, lr, pc}
30000e9c:	e24cb004 	sub	fp, ip, #4	; 0x4
30000ea0:	e24dd01c 	sub	sp, sp, #28	; 0x1c
30000ea4:	e50b0010 	str	r0, [fp, #-16]
30000ea8:	e50b1014 	str	r1, [fp, #-20]
30000eac:	e50b2018 	str	r2, [fp, #-24]
30000eb0:	e3a03001 	mov	r3, #1	; 0x1
30000eb4:	e50b3020 	str	r3, [fp, #-32]
30000eb8:	e3a03000 	mov	r3, #0	; 0x0
30000ebc:	e50b3024 	str	r3, [fp, #-36]
30000ec0:	e3a03000 	mov	r3, #0	; 0x0
30000ec4:	e50b3028 	str	r3, [fp, #-40]
30000ec8:	e51b3010 	ldr	r3, [fp, #-16]
30000ecc:	e50b301c 	str	r3, [fp, #-28]
30000ed0:	e51b2014 	ldr	r2, [fp, #-20]
30000ed4:	e51b3024 	ldr	r3, [fp, #-36]
30000ed8:	e0823003 	add	r3, r2, r3
30000edc:	e5d33000 	ldrb	r3, [r3]
30000ee0:	e3530000 	cmp	r3, #0	; 0x0
30000ee4:	0a000032 	beq	30000fb4 <S3C2440_NorFlash_Write+0x120>
30000ee8:	e51b2014 	ldr	r2, [fp, #-20]
30000eec:	e51b3020 	ldr	r3, [fp, #-32]
30000ef0:	e0823003 	add	r3, r2, r3
30000ef4:	e5d33000 	ldrb	r3, [r3]
30000ef8:	e3530000 	cmp	r3, #0	; 0x0
30000efc:	0a00002c 	beq	30000fb4 <S3C2440_NorFlash_Write+0x120>
30000f00:	e51b2014 	ldr	r2, [fp, #-20]
30000f04:	e51b3024 	ldr	r3, [fp, #-36]
30000f08:	e0823003 	add	r3, r2, r3
30000f0c:	e5d31000 	ldrb	r1, [r3]
30000f10:	e51b2014 	ldr	r2, [fp, #-20]
30000f14:	e51b3020 	ldr	r3, [fp, #-32]
30000f18:	e0823003 	add	r3, r2, r3
30000f1c:	e5d33000 	ldrb	r3, [r3]
30000f20:	e1a03403 	mov	r3, r3, lsl #8
30000f24:	e0813003 	add	r3, r1, r3
30000f28:	e50b3028 	str	r3, [fp, #-40]
30000f2c:	e3a00e55 	mov	r0, #1360	; 0x550
30000f30:	e2800005 	add	r0, r0, #5	; 0x5
30000f34:	e3a010aa 	mov	r1, #170	; 0xaa
30000f38:	ebffff53 	bl	30000c8c <S3C2440_NorFlash_Write_Command>
30000f3c:	e3a00faa 	mov	r0, #680	; 0x2a8
30000f40:	e2800002 	add	r0, r0, #2	; 0x2
30000f44:	e3a01055 	mov	r1, #85	; 0x55
30000f48:	ebffff4f 	bl	30000c8c <S3C2440_NorFlash_Write_Command>
30000f4c:	e3a00e55 	mov	r0, #1360	; 0x550
30000f50:	e2800005 	add	r0, r0, #5	; 0x5
30000f54:	e3a010a0 	mov	r1, #160	; 0xa0
30000f58:	ebffff4b 	bl	30000c8c <S3C2440_NorFlash_Write_Command>
30000f5c:	e51b301c 	ldr	r3, [fp, #-28]
30000f60:	e1a020a3 	mov	r2, r3, lsr #1
30000f64:	e51b3028 	ldr	r3, [fp, #-40]
30000f68:	e1a03803 	mov	r3, r3, lsl #16
30000f6c:	e1a03823 	mov	r3, r3, lsr #16
30000f70:	e1a00002 	mov	r0, r2
30000f74:	e1a01003 	mov	r1, r3
30000f78:	ebffff43 	bl	30000c8c <S3C2440_NorFlash_Write_Command>
30000f7c:	e51b301c 	ldr	r3, [fp, #-28]
30000f80:	e1a030a3 	mov	r3, r3, lsr #1
30000f84:	e1a00003 	mov	r0, r3
30000f88:	ebffff5a 	bl	30000cf8 <S3C2440_NorFlash_Wait_Ready>
30000f8c:	e51b3020 	ldr	r3, [fp, #-32]
30000f90:	e2833002 	add	r3, r3, #2	; 0x2
30000f94:	e50b3020 	str	r3, [fp, #-32]
30000f98:	e51b3024 	ldr	r3, [fp, #-36]
30000f9c:	e2833002 	add	r3, r3, #2	; 0x2
30000fa0:	e50b3024 	str	r3, [fp, #-36]
30000fa4:	e51b301c 	ldr	r3, [fp, #-28]
30000fa8:	e2833002 	add	r3, r3, #2	; 0x2
30000fac:	e50b301c 	str	r3, [fp, #-28]
30000fb0:	eaffffc6 	b	30000ed0 <S3C2440_NorFlash_Write+0x3c>
30000fb4:	e51b2014 	ldr	r2, [fp, #-20]
30000fb8:	e51b3024 	ldr	r3, [fp, #-36]
30000fbc:	e0823003 	add	r3, r2, r3
30000fc0:	e5d33000 	ldrb	r3, [r3]
30000fc4:	e50b3028 	str	r3, [fp, #-40]
30000fc8:	e3a00e55 	mov	r0, #1360	; 0x550
30000fcc:	e2800005 	add	r0, r0, #5	; 0x5
30000fd0:	e3a010aa 	mov	r1, #170	; 0xaa
30000fd4:	ebffff2c 	bl	30000c8c <S3C2440_NorFlash_Write_Command>
30000fd8:	e3a00faa 	mov	r0, #680	; 0x2a8
30000fdc:	e2800002 	add	r0, r0, #2	; 0x2
30000fe0:	e3a01055 	mov	r1, #85	; 0x55
30000fe4:	ebffff28 	bl	30000c8c <S3C2440_NorFlash_Write_Command>
30000fe8:	e3a00e55 	mov	r0, #1360	; 0x550
30000fec:	e2800005 	add	r0, r0, #5	; 0x5
30000ff0:	e3a010a0 	mov	r1, #160	; 0xa0
30000ff4:	ebffff24 	bl	30000c8c <S3C2440_NorFlash_Write_Command>
30000ff8:	e51b301c 	ldr	r3, [fp, #-28]
30000ffc:	e1a020a3 	mov	r2, r3, lsr #1
30001000:	e51b3028 	ldr	r3, [fp, #-40]
30001004:	e1a03803 	mov	r3, r3, lsl #16
30001008:	e1a03823 	mov	r3, r3, lsr #16
3000100c:	e1a00002 	mov	r0, r2
30001010:	e1a01003 	mov	r1, r3
30001014:	ebffff1c 	bl	30000c8c <S3C2440_NorFlash_Write_Command>
30001018:	e51b301c 	ldr	r3, [fp, #-28]
3000101c:	e1a030a3 	mov	r3, r3, lsr #1
30001020:	e1a00003 	mov	r0, r3
30001024:	ebffff33 	bl	30000cf8 <S3C2440_NorFlash_Wait_Ready>
30001028:	e24bd00c 	sub	sp, fp, #12	; 0xc
3000102c:	e89da800 	ldmia	sp, {fp, sp, pc}

30001030 <printException>:
30001030:	e1a0c00d 	mov	ip, sp
30001034:	e92dd800 	stmdb	sp!, {fp, ip, lr, pc}
30001038:	e24cb004 	sub	fp, ip, #4	; 0x4
3000103c:	e24dd008 	sub	sp, sp, #8	; 0x8
30001040:	e50b0010 	str	r0, [fp, #-16]
30001044:	e50b1014 	str	r1, [fp, #-20]
30001048:	eb000187 	bl	3000166c <S3C2440_LedInitialized>
3000104c:	eb000198 	bl	300016b4 <S3C2440_KeyInitialized>
30001050:	eb0001b6 	bl	30001730 <S3C2440_Uart0Initialized>
30001054:	e59f002c 	ldr	r0, [pc, #44]	; 30001088 <.text+0x1088>
30001058:	eb001846 	bl	30007178 <standard_putchar_callback>
3000105c:	e59f0028 	ldr	r0, [pc, #40]	; 3000108c <.text+0x108c>
30001060:	e51b1014 	ldr	r1, [fp, #-20]
30001064:	eb0017b6 	bl	30006f44 <printf_>
30001068:	e59f0020 	ldr	r0, [pc, #32]	; 30001090 <.text+0x1090>
3000106c:	e51b1010 	ldr	r1, [fp, #-16]
30001070:	eb0017b3 	bl	30006f44 <printf_>
30001074:	e59f0018 	ldr	r0, [pc, #24]	; 30001094 <.text+0x1094>
30001078:	e51b1014 	ldr	r1, [fp, #-20]
3000107c:	eb0017b0 	bl	30006f44 <printf_>
30001080:	e24bd00c 	sub	sp, fp, #12	; 0xc
30001084:	e89da800 	ldmia	sp, {fp, sp, pc}
30001088:	300017f4 	strccd	r1, [r0], -r4
3000108c:	3000b13c 	andcc	fp, r0, ip, lsr r1
30001090:	3000b150 	andcc	fp, r0, r0, asr r1
30001094:	3000b164 	andcc	fp, r0, r4, ror #2

30001098 <printSWIVal>:
30001098:	e1a0c00d 	mov	ip, sp
3000109c:	e92dd800 	stmdb	sp!, {fp, ip, lr, pc}
300010a0:	e24cb004 	sub	fp, ip, #4	; 0x4
300010a4:	e24dd008 	sub	sp, sp, #8	; 0x8
300010a8:	e50b0010 	str	r0, [fp, #-16]
300010ac:	e51b3010 	ldr	r3, [fp, #-16]
300010b0:	e5933000 	ldr	r3, [r3]
300010b4:	e3c334ff 	bic	r3, r3, #-16777216	; 0xff000000
300010b8:	e50b3014 	str	r3, [fp, #-20]
300010bc:	eb00016a 	bl	3000166c <S3C2440_LedInitialized>
300010c0:	eb00017b 	bl	300016b4 <S3C2440_KeyInitialized>
300010c4:	eb000199 	bl	30001730 <S3C2440_Uart0Initialized>
300010c8:	e59f0014 	ldr	r0, [pc, #20]	; 300010e4 <.text+0x10e4>
300010cc:	eb001829 	bl	30007178 <standard_putchar_callback>
300010d0:	e59f0010 	ldr	r0, [pc, #16]	; 300010e8 <.text+0x10e8>
300010d4:	e51b1014 	ldr	r1, [fp, #-20]
300010d8:	eb001799 	bl	30006f44 <printf_>
300010dc:	e24bd00c 	sub	sp, fp, #12	; 0xc
300010e0:	e89da800 	ldmia	sp, {fp, sp, pc}
300010e4:	300017f4 	strccd	r1, [r0], -r4
300010e8:	3000b178 	andcc	fp, r0, r8, ror r1

300010ec <debugPrint1>:
300010ec:	e1a0c00d 	mov	ip, sp
300010f0:	e92dd800 	stmdb	sp!, {fp, ip, lr, pc}
300010f4:	e24cb004 	sub	fp, ip, #4	; 0x4
300010f8:	eb00018c 	bl	30001730 <S3C2440_Uart0Initialized>
300010fc:	e59f0004 	ldr	r0, [pc, #4]	; 30001108 <.text+0x1108>
30001100:	eb0001de 	bl	30001880 <S3C2440_Uart0_Puts>
30001104:	e89da800 	ldmia	sp, {fp, sp, pc}
30001108:	3000b188 	andcc	fp, r0, r8, lsl #3

3000110c <debugPrint2>:
3000110c:	e1a0c00d 	mov	ip, sp
30001110:	e92dd800 	stmdb	sp!, {fp, ip, lr, pc}
30001114:	e24cb004 	sub	fp, ip, #4	; 0x4
30001118:	eb000184 	bl	30001730 <S3C2440_Uart0Initialized>
3000111c:	e59f0004 	ldr	r0, [pc, #4]	; 30001128 <.text+0x1128>
30001120:	eb0001d6 	bl	30001880 <S3C2440_Uart0_Puts>
30001124:	e89da800 	ldmia	sp, {fp, sp, pc}
30001128:	3000b194 	mulcc	r0, r4, r1

3000112c <main>:
3000112c:	e1a0c00d 	mov	ip, sp
30001130:	e92dd800 	stmdb	sp!, {fp, ip, lr, pc}
30001134:	e24cb004 	sub	fp, ip, #4	; 0x4
30001138:	e24dd008 	sub	sp, sp, #8	; 0x8
3000113c:	e50b0010 	str	r0, [fp, #-16]
30001140:	e50b1014 	str	r1, [fp, #-20]
30001144:	eb000148 	bl	3000166c <S3C2440_LedInitialized>
30001148:	eb000159 	bl	300016b4 <S3C2440_KeyInitialized>
3000114c:	eb000177 	bl	30001730 <S3C2440_Uart0Initialized>
30001150:	eb000202 	bl	30001960 <S3C2440_EXTI_Init>
30001154:	eb0003f0 	bl	3000211c <S3C2440_TIMER0_Init>
30001158:	eb000429 	bl	30002204 <S3C2440_TIMER1_Init>
3000115c:	e59f00b4 	ldr	r0, [pc, #180]	; 30001218 <.text+0x1218>
30001160:	eb001804 	bl	30007178 <standard_putchar_callback>
30001164:	e59f00ac 	ldr	r0, [pc, #172]	; 30001218 <.text+0x1218>
30001168:	eb001916 	bl	300075c8 <string_putchar_callback>
3000116c:	e59f00a8 	ldr	r0, [pc, #168]	; 3000121c <.text+0x121c>
30001170:	eb00191e 	bl	300075f0 <string_getchar_callback>
30001174:	e59f00a4 	ldr	r0, [pc, #164]	; 30001220 <.text+0x1220>
30001178:	e3a01000 	mov	r1, #0	; 0x0
3000117c:	e59f20a0 	ldr	r2, [pc, #160]	; 30001224 <.text+0x1224>
30001180:	eb000262 	bl	30001b10 <S3C2440_EXTI_Register>
30001184:	e59f009c 	ldr	r0, [pc, #156]	; 30001228 <.text+0x1228>
30001188:	e3a01002 	mov	r1, #2	; 0x2
3000118c:	e59f2098 	ldr	r2, [pc, #152]	; 3000122c <.text+0x122c>
30001190:	eb00025e 	bl	30001b10 <S3C2440_EXTI_Register>
30001194:	e59f0094 	ldr	r0, [pc, #148]	; 30001230 <.text+0x1230>
30001198:	e3a01005 	mov	r1, #5	; 0x5
3000119c:	e59f2090 	ldr	r2, [pc, #144]	; 30001234 <.text+0x1234>
300011a0:	eb00025a 	bl	30001b10 <S3C2440_EXTI_Register>
300011a4:	e59f008c 	ldr	r0, [pc, #140]	; 30001238 <.text+0x1238>
300011a8:	e3a0100a 	mov	r1, #10	; 0xa
300011ac:	e59f2088 	ldr	r2, [pc, #136]	; 3000123c <.text+0x123c>
300011b0:	eb00044d 	bl	300022ec <S3C2440_TIMER_Register>
300011b4:	e59f0084 	ldr	r0, [pc, #132]	; 30001240 <.text+0x1240>
300011b8:	e3a0100b 	mov	r1, #11	; 0xb
300011bc:	e59f2080 	ldr	r2, [pc, #128]	; 30001244 <.text+0x1244>
300011c0:	eb000449 	bl	300022ec <S3C2440_TIMER_Register>
300011c4:	e59f007c 	ldr	r0, [pc, #124]	; 30001248 <.text+0x1248>
300011c8:	e3a01000 	mov	r1, #0	; 0x0
300011cc:	e3a02001 	mov	r2, #1	; 0x1
300011d0:	eb001786 	bl	30006ff0 <printfln_>
300011d4:	e59f0070 	ldr	r0, [pc, #112]	; 3000124c <.text+0x124c>
300011d8:	eb001784 	bl	30006ff0 <printfln_>
300011dc:	e59f306c 	ldr	r3, [pc, #108]	; 30001250 <.text+0x1250>
300011e0:	e59f006c 	ldr	r0, [pc, #108]	; 30001254 <.text+0x1254>
300011e4:	e5931000 	ldr	r1, [r3]
300011e8:	eb001780 	bl	30006ff0 <printfln_>
300011ec:	eb000b5d 	bl	30003f68 <S3C2440_TouchScreen_Init>
300011f0:	e3e004ff 	mvn	r0, #-16777216	; 0xff000000
300011f4:	e240073f 	sub	r0, r0, #16515072	; 0xfc0000
300011f8:	eb001baa 	bl	300080a8 <delay_simulate>
300011fc:	e3e004ff 	mvn	r0, #-16777216	; 0xff000000
30001200:	e240073f 	sub	r0, r0, #16515072	; 0xfc0000
30001204:	eb001ba7 	bl	300080a8 <delay_simulate>
30001208:	e3e004ff 	mvn	r0, #-16777216	; 0xff000000
3000120c:	e240073f 	sub	r0, r0, #16515072	; 0xfc0000
30001210:	eb001ba4 	bl	300080a8 <delay_simulate>
30001214:	eafffff5 	b	300011f0 <main+0xc4>
30001218:	300017f4 	strccd	r1, [r0], -r4
3000121c:	30001840 	andcc	r1, r0, r0, asr #16
30001220:	3000b1d8 	ldrccd	fp, [r0], -r8
30001224:	30001e08 	andcc	r1, r0, r8, lsl #28
30001228:	3000b1e4 	andcc	fp, r0, r4, ror #3
3000122c:	30001ea8 	andcc	r1, r0, r8, lsr #29
30001230:	3000b1f0 	strccd	fp, [r0], -r0
30001234:	30001f48 	andcc	r1, r0, r8, asr #30
30001238:	3000b1fc 	strccd	fp, [r0], -ip
3000123c:	300025e4 	andcc	r2, r0, r4, ror #11
30001240:	3000b208 	andcc	fp, r0, r8, lsl #4
30001244:	300026dc 	ldrccd	r2, [r0], -ip
30001248:	3000b214 	andcc	fp, r0, r4, lsl r2
3000124c:	3000b234 	andcc	fp, r0, r4, lsr r2
30001250:	3000caa0 	andcc	ip, r0, r0, lsr #21
30001254:	3000b25c 	andcc	fp, r0, ip, asr r2
	...

30001260 <__udivsi3>:
30001260:	e2512001 	subs	r2, r1, #1	; 0x1
30001264:	01a0f00e 	moveq	pc, lr
30001268:	3a0000e5 	bcc	30001604 <Ldiv0>
3000126c:	e1500001 	cmp	r0, r1
30001270:	9a000022 	bls	30001300 <__udivsi3+0xa0>
30001274:	e1110002 	tst	r1, r2
30001278:	0a000023 	beq	3000130c <__udivsi3+0xac>
3000127c:	e311020e 	tst	r1, #-536870912	; 0xe0000000
30001280:	01a01181 	moveq	r1, r1, lsl #3
30001284:	03a03008 	moveq	r3, #8	; 0x8
30001288:	13a03001 	movne	r3, #1	; 0x1
3000128c:	e3510201 	cmp	r1, #268435456	; 0x10000000
30001290:	31510000 	cmpcc	r1, r0
30001294:	31a01201 	movcc	r1, r1, lsl #4
30001298:	31a03203 	movcc	r3, r3, lsl #4
3000129c:	3afffffa 	bcc	3000128c <__udivsi3+0x2c>
300012a0:	e3510102 	cmp	r1, #-2147483648	; 0x80000000
300012a4:	31510000 	cmpcc	r1, r0
300012a8:	31a01081 	movcc	r1, r1, lsl #1
300012ac:	31a03083 	movcc	r3, r3, lsl #1
300012b0:	3afffffa 	bcc	300012a0 <__udivsi3+0x40>
300012b4:	e3a02000 	mov	r2, #0	; 0x0
300012b8:	e1500001 	cmp	r0, r1
300012bc:	20400001 	subcs	r0, r0, r1
300012c0:	21822003 	orrcs	r2, r2, r3
300012c4:	e15000a1 	cmp	r0, r1, lsr #1
300012c8:	204000a1 	subcs	r0, r0, r1, lsr #1
300012cc:	218220a3 	orrcs	r2, r2, r3, lsr #1
300012d0:	e1500121 	cmp	r0, r1, lsr #2
300012d4:	20400121 	subcs	r0, r0, r1, lsr #2
300012d8:	21822123 	orrcs	r2, r2, r3, lsr #2
300012dc:	e15001a1 	cmp	r0, r1, lsr #3
300012e0:	204001a1 	subcs	r0, r0, r1, lsr #3
300012e4:	218221a3 	orrcs	r2, r2, r3, lsr #3
300012e8:	e3500000 	cmp	r0, #0	; 0x0
300012ec:	11b03223 	movnes	r3, r3, lsr #4
300012f0:	11a01221 	movne	r1, r1, lsr #4
300012f4:	1affffef 	bne	300012b8 <__udivsi3+0x58>
300012f8:	e1a00002 	mov	r0, r2
300012fc:	e1a0f00e 	mov	pc, lr
30001300:	03a00001 	moveq	r0, #1	; 0x1
30001304:	13a00000 	movne	r0, #0	; 0x0
30001308:	e1a0f00e 	mov	pc, lr
3000130c:	e3510801 	cmp	r1, #65536	; 0x10000
30001310:	21a01821 	movcs	r1, r1, lsr #16
30001314:	23a02010 	movcs	r2, #16	; 0x10
30001318:	33a02000 	movcc	r2, #0	; 0x0
3000131c:	e3510c01 	cmp	r1, #256	; 0x100
30001320:	21a01421 	movcs	r1, r1, lsr #8
30001324:	22822008 	addcs	r2, r2, #8	; 0x8
30001328:	e3510010 	cmp	r1, #16	; 0x10
3000132c:	21a01221 	movcs	r1, r1, lsr #4
30001330:	22822004 	addcs	r2, r2, #4	; 0x4
30001334:	e3510004 	cmp	r1, #4	; 0x4
30001338:	82822003 	addhi	r2, r2, #3	; 0x3
3000133c:	908220a1 	addls	r2, r2, r1, lsr #1
30001340:	e1a00230 	mov	r0, r0, lsr r2
30001344:	e1a0f00e 	mov	pc, lr
30001348:	90909090 	umulllss	r9, r0, r0, r0
3000134c:	90909090 	umulllss	r9, r0, r0, r0

30001350 <__umodsi3>:
30001350:	e2512001 	subs	r2, r1, #1	; 0x1
30001354:	3a0000aa 	bcc	30001604 <Ldiv0>
30001358:	11500001 	cmpne	r0, r1
3000135c:	03a00000 	moveq	r0, #0	; 0x0
30001360:	81110002 	tsthi	r1, r2
30001364:	00000002 	andeq	r0, r0, r2
30001368:	91a0f00e 	movls	pc, lr
3000136c:	e3a02000 	mov	r2, #0	; 0x0
30001370:	e3510201 	cmp	r1, #268435456	; 0x10000000
30001374:	31510000 	cmpcc	r1, r0
30001378:	31a01201 	movcc	r1, r1, lsl #4
3000137c:	32822004 	addcc	r2, r2, #4	; 0x4
30001380:	3afffffa 	bcc	30001370 <__umodsi3+0x20>
30001384:	e3510102 	cmp	r1, #-2147483648	; 0x80000000
30001388:	31510000 	cmpcc	r1, r0
3000138c:	31a01081 	movcc	r1, r1, lsl #1
30001390:	32822001 	addcc	r2, r2, #1	; 0x1
30001394:	3afffffa 	bcc	30001384 <__umodsi3+0x34>
30001398:	e2522003 	subs	r2, r2, #3	; 0x3
3000139c:	ba00000e 	blt	300013dc <__umodsi3+0x8c>
300013a0:	e1500001 	cmp	r0, r1
300013a4:	20400001 	subcs	r0, r0, r1
300013a8:	e15000a1 	cmp	r0, r1, lsr #1
300013ac:	204000a1 	subcs	r0, r0, r1, lsr #1
300013b0:	e1500121 	cmp	r0, r1, lsr #2
300013b4:	20400121 	subcs	r0, r0, r1, lsr #2
300013b8:	e15001a1 	cmp	r0, r1, lsr #3
300013bc:	204001a1 	subcs	r0, r0, r1, lsr #3
300013c0:	e3500001 	cmp	r0, #1	; 0x1
300013c4:	e1a01221 	mov	r1, r1, lsr #4
300013c8:	a2522004 	subges	r2, r2, #4	; 0x4
300013cc:	aafffff3 	bge	300013a0 <__umodsi3+0x50>
300013d0:	e3120003 	tst	r2, #3	; 0x3
300013d4:	13300000 	teqne	r0, #0	; 0x0
300013d8:	0a00000a 	beq	30001408 <__umodsi3+0xb8>
300013dc:	e3720002 	cmn	r2, #2	; 0x2
300013e0:	ba000006 	blt	30001400 <__umodsi3+0xb0>
300013e4:	0a000002 	beq	300013f4 <__umodsi3+0xa4>
300013e8:	e1500001 	cmp	r0, r1
300013ec:	20400001 	subcs	r0, r0, r1
300013f0:	e1a010a1 	mov	r1, r1, lsr #1
300013f4:	e1500001 	cmp	r0, r1
300013f8:	20400001 	subcs	r0, r0, r1
300013fc:	e1a010a1 	mov	r1, r1, lsr #1
30001400:	e1500001 	cmp	r0, r1
30001404:	20400001 	subcs	r0, r0, r1
30001408:	e1a0f00e 	mov	pc, lr
3000140c:	90909090 	umulllss	r9, r0, r0, r0

30001410 <__divsi3>:
30001410:	e3510000 	cmp	r1, #0	; 0x0
30001414:	e020c001 	eor	ip, r0, r1
30001418:	0a000079 	beq	30001604 <Ldiv0>
3000141c:	42611000 	rsbmi	r1, r1, #0	; 0x0
30001420:	e2512001 	subs	r2, r1, #1	; 0x1
30001424:	0a000027 	beq	300014c8 <__divsi3+0xb8>
30001428:	e1b03000 	movs	r3, r0
3000142c:	42603000 	rsbmi	r3, r0, #0	; 0x0
30001430:	e1530001 	cmp	r3, r1
30001434:	9a000026 	bls	300014d4 <__divsi3+0xc4>
30001438:	e1110002 	tst	r1, r2
3000143c:	0a000028 	beq	300014e4 <__divsi3+0xd4>
30001440:	e311020e 	tst	r1, #-536870912	; 0xe0000000
30001444:	01a01181 	moveq	r1, r1, lsl #3
30001448:	03a02008 	moveq	r2, #8	; 0x8
3000144c:	13a02001 	movne	r2, #1	; 0x1
30001450:	e3510201 	cmp	r1, #268435456	; 0x10000000
30001454:	31510003 	cmpcc	r1, r3
30001458:	31a01201 	movcc	r1, r1, lsl #4
3000145c:	31a02202 	movcc	r2, r2, lsl #4
30001460:	3afffffa 	bcc	30001450 <__divsi3+0x40>
30001464:	e3510102 	cmp	r1, #-2147483648	; 0x80000000
30001468:	31510003 	cmpcc	r1, r3
3000146c:	31a01081 	movcc	r1, r1, lsl #1
30001470:	31a02082 	movcc	r2, r2, lsl #1
30001474:	3afffffa 	bcc	30001464 <__divsi3+0x54>
30001478:	e3a00000 	mov	r0, #0	; 0x0
3000147c:	e1530001 	cmp	r3, r1
30001480:	20433001 	subcs	r3, r3, r1
30001484:	21800002 	orrcs	r0, r0, r2
30001488:	e15300a1 	cmp	r3, r1, lsr #1
3000148c:	204330a1 	subcs	r3, r3, r1, lsr #1
30001490:	218000a2 	orrcs	r0, r0, r2, lsr #1
30001494:	e1530121 	cmp	r3, r1, lsr #2
30001498:	20433121 	subcs	r3, r3, r1, lsr #2
3000149c:	21800122 	orrcs	r0, r0, r2, lsr #2
300014a0:	e15301a1 	cmp	r3, r1, lsr #3
300014a4:	204331a1 	subcs	r3, r3, r1, lsr #3
300014a8:	218001a2 	orrcs	r0, r0, r2, lsr #3
300014ac:	e3530000 	cmp	r3, #0	; 0x0
300014b0:	11b02222 	movnes	r2, r2, lsr #4
300014b4:	11a01221 	movne	r1, r1, lsr #4
300014b8:	1affffef 	bne	3000147c <__divsi3+0x6c>
300014bc:	e35c0000 	cmp	ip, #0	; 0x0
300014c0:	42600000 	rsbmi	r0, r0, #0	; 0x0
300014c4:	e1a0f00e 	mov	pc, lr
300014c8:	e13c0000 	teq	ip, r0
300014cc:	42600000 	rsbmi	r0, r0, #0	; 0x0
300014d0:	e1a0f00e 	mov	pc, lr
300014d4:	33a00000 	movcc	r0, #0	; 0x0
300014d8:	01a00fcc 	moveq	r0, ip, asr #31
300014dc:	03800001 	orreq	r0, r0, #1	; 0x1
300014e0:	e1a0f00e 	mov	pc, lr
300014e4:	e3510801 	cmp	r1, #65536	; 0x10000
300014e8:	21a01821 	movcs	r1, r1, lsr #16
300014ec:	23a02010 	movcs	r2, #16	; 0x10
300014f0:	33a02000 	movcc	r2, #0	; 0x0
300014f4:	e3510c01 	cmp	r1, #256	; 0x100
300014f8:	21a01421 	movcs	r1, r1, lsr #8
300014fc:	22822008 	addcs	r2, r2, #8	; 0x8
30001500:	e3510010 	cmp	r1, #16	; 0x10
30001504:	21a01221 	movcs	r1, r1, lsr #4
30001508:	22822004 	addcs	r2, r2, #4	; 0x4
3000150c:	e3510004 	cmp	r1, #4	; 0x4
30001510:	82822003 	addhi	r2, r2, #3	; 0x3
30001514:	908220a1 	addls	r2, r2, r1, lsr #1
30001518:	e35c0000 	cmp	ip, #0	; 0x0
3000151c:	e1a00233 	mov	r0, r3, lsr r2
30001520:	42600000 	rsbmi	r0, r0, #0	; 0x0
30001524:	e1a0f00e 	mov	pc, lr
30001528:	90909090 	umulllss	r9, r0, r0, r0
3000152c:	90909090 	umulllss	r9, r0, r0, r0

30001530 <__modsi3>:
30001530:	e3510000 	cmp	r1, #0	; 0x0
30001534:	0a000032 	beq	30001604 <Ldiv0>
30001538:	42611000 	rsbmi	r1, r1, #0	; 0x0
3000153c:	e1b0c000 	movs	ip, r0
30001540:	42600000 	rsbmi	r0, r0, #0	; 0x0
30001544:	e2512001 	subs	r2, r1, #1	; 0x1
30001548:	11500001 	cmpne	r0, r1
3000154c:	03a00000 	moveq	r0, #0	; 0x0
30001550:	81110002 	tsthi	r1, r2
30001554:	00000002 	andeq	r0, r0, r2
30001558:	9a000026 	bls	300015f8 <__modsi3+0xc8>
3000155c:	e3a02000 	mov	r2, #0	; 0x0
30001560:	e3510201 	cmp	r1, #268435456	; 0x10000000
30001564:	31510000 	cmpcc	r1, r0
30001568:	31a01201 	movcc	r1, r1, lsl #4
3000156c:	32822004 	addcc	r2, r2, #4	; 0x4
30001570:	3afffffa 	bcc	30001560 <__modsi3+0x30>
30001574:	e3510102 	cmp	r1, #-2147483648	; 0x80000000
30001578:	31510000 	cmpcc	r1, r0
3000157c:	31a01081 	movcc	r1, r1, lsl #1
30001580:	32822001 	addcc	r2, r2, #1	; 0x1
30001584:	3afffffa 	bcc	30001574 <__modsi3+0x44>
30001588:	e2522003 	subs	r2, r2, #3	; 0x3
3000158c:	ba00000e 	blt	300015cc <__modsi3+0x9c>
30001590:	e1500001 	cmp	r0, r1
30001594:	20400001 	subcs	r0, r0, r1
30001598:	e15000a1 	cmp	r0, r1, lsr #1
3000159c:	204000a1 	subcs	r0, r0, r1, lsr #1
300015a0:	e1500121 	cmp	r0, r1, lsr #2
300015a4:	20400121 	subcs	r0, r0, r1, lsr #2
300015a8:	e15001a1 	cmp	r0, r1, lsr #3
300015ac:	204001a1 	subcs	r0, r0, r1, lsr #3
300015b0:	e3500001 	cmp	r0, #1	; 0x1
300015b4:	e1a01221 	mov	r1, r1, lsr #4
300015b8:	a2522004 	subges	r2, r2, #4	; 0x4
300015bc:	aafffff3 	bge	30001590 <__modsi3+0x60>
300015c0:	e3120003 	tst	r2, #3	; 0x3
300015c4:	13300000 	teqne	r0, #0	; 0x0
300015c8:	0a00000a 	beq	300015f8 <__modsi3+0xc8>
300015cc:	e3720002 	cmn	r2, #2	; 0x2
300015d0:	ba000006 	blt	300015f0 <__modsi3+0xc0>
300015d4:	0a000002 	beq	300015e4 <__modsi3+0xb4>
300015d8:	e1500001 	cmp	r0, r1
300015dc:	20400001 	subcs	r0, r0, r1
300015e0:	e1a010a1 	mov	r1, r1, lsr #1
300015e4:	e1500001 	cmp	r0, r1
300015e8:	20400001 	subcs	r0, r0, r1
300015ec:	e1a010a1 	mov	r1, r1, lsr #1
300015f0:	e1500001 	cmp	r0, r1
300015f4:	20400001 	subcs	r0, r0, r1
300015f8:	e35c0000 	cmp	ip, #0	; 0x0
300015fc:	42600000 	rsbmi	r0, r0, #0	; 0x0
30001600:	e1a0f00e 	mov	pc, lr

30001604 <Ldiv0>:
30001604:	e52de004 	str	lr, [sp, #-4]!
30001608:	e3a00000 	mov	r0, #0	; 0x0
3000160c:	e49df004 	ldr	pc, [sp], #4

30001610 <led_on>:
30001610:	e1a0c00d 	mov	ip, sp
30001614:	e92dd800 	stmdb	sp!, {fp, ip, lr, pc}
30001618:	e24cb004 	sub	fp, ip, #4	; 0x4
3000161c:	e24dd004 	sub	sp, sp, #4	; 0x4
30001620:	e50b0010 	str	r0, [fp, #-16]
30001624:	e3a03456 	mov	r3, #1442840576	; 0x56000000
30001628:	e2833050 	add	r3, r3, #80	; 0x50
3000162c:	e3a02c15 	mov	r2, #5376	; 0x1500
30001630:	e5832000 	str	r2, [r3]
30001634:	e51b3010 	ldr	r3, [fp, #-16]
30001638:	e3530001 	cmp	r3, #1	; 0x1
3000163c:	1a000004 	bne	30001654 <led_on+0x44>
30001640:	e3a03456 	mov	r3, #1442840576	; 0x56000000
30001644:	e2833054 	add	r3, r3, #84	; 0x54
30001648:	e3a02000 	mov	r2, #0	; 0x0
3000164c:	e5832000 	str	r2, [r3]
30001650:	ea000003 	b	30001664 <led_on+0x54>
30001654:	e3a03456 	mov	r3, #1442840576	; 0x56000000
30001658:	e2833054 	add	r3, r3, #84	; 0x54
3000165c:	e3e02000 	mvn	r2, #0	; 0x0
30001660:	e5832000 	str	r2, [r3]
30001664:	e1a00003 	mov	r0, r3
30001668:	e89da808 	ldmia	sp, {r3, fp, sp, pc}

3000166c <S3C2440_LedInitialized>:
3000166c:	e1a0c00d 	mov	ip, sp
30001670:	e92dd800 	stmdb	sp!, {fp, ip, lr, pc}
30001674:	e24cb004 	sub	fp, ip, #4	; 0x4
30001678:	e3a02456 	mov	r2, #1442840576	; 0x56000000
3000167c:	e2822050 	add	r2, r2, #80	; 0x50
30001680:	e3a03456 	mov	r3, #1442840576	; 0x56000000
30001684:	e2833050 	add	r3, r3, #80	; 0x50
30001688:	e5933000 	ldr	r3, [r3]
3000168c:	e3c33c3f 	bic	r3, r3, #16128	; 0x3f00
30001690:	e5823000 	str	r3, [r2]
30001694:	e3a02456 	mov	r2, #1442840576	; 0x56000000
30001698:	e2822050 	add	r2, r2, #80	; 0x50
3000169c:	e3a03456 	mov	r3, #1442840576	; 0x56000000
300016a0:	e2833050 	add	r3, r3, #80	; 0x50
300016a4:	e5933000 	ldr	r3, [r3]
300016a8:	e3833c15 	orr	r3, r3, #5376	; 0x1500
300016ac:	e5823000 	str	r3, [r2]
300016b0:	e89da800 	ldmia	sp, {fp, sp, pc}

300016b4 <S3C2440_KeyInitialized>:
300016b4:	e1a0c00d 	mov	ip, sp
300016b8:	e92dd800 	stmdb	sp!, {fp, ip, lr, pc}
300016bc:	e24cb004 	sub	fp, ip, #4	; 0x4
300016c0:	e3a02456 	mov	r2, #1442840576	; 0x56000000
300016c4:	e2822050 	add	r2, r2, #80	; 0x50
300016c8:	e3a03456 	mov	r3, #1442840576	; 0x56000000
300016cc:	e2833050 	add	r3, r3, #80	; 0x50
300016d0:	e5933000 	ldr	r3, [r3]
300016d4:	e3c33033 	bic	r3, r3, #51	; 0x33
300016d8:	e5823000 	str	r3, [r2]
300016dc:	e3a02456 	mov	r2, #1442840576	; 0x56000000
300016e0:	e2822050 	add	r2, r2, #80	; 0x50
300016e4:	e3a03456 	mov	r3, #1442840576	; 0x56000000
300016e8:	e2833050 	add	r3, r3, #80	; 0x50
300016ec:	e5933000 	ldr	r3, [r3]
300016f0:	e5823000 	str	r3, [r2]
300016f4:	e3a02456 	mov	r2, #1442840576	; 0x56000000
300016f8:	e2822060 	add	r2, r2, #96	; 0x60
300016fc:	e3a03456 	mov	r3, #1442840576	; 0x56000000
30001700:	e2833060 	add	r3, r3, #96	; 0x60
30001704:	e5933000 	ldr	r3, [r3]
30001708:	e3c33503 	bic	r3, r3, #12582912	; 0xc00000
3000170c:	e3c330c0 	bic	r3, r3, #192	; 0xc0
30001710:	e5823000 	str	r3, [r2]
30001714:	e3a02456 	mov	r2, #1442840576	; 0x56000000
30001718:	e2822060 	add	r2, r2, #96	; 0x60
3000171c:	e3a03456 	mov	r3, #1442840576	; 0x56000000
30001720:	e2833060 	add	r3, r3, #96	; 0x60
30001724:	e5933000 	ldr	r3, [r3]
30001728:	e5823000 	str	r3, [r2]
3000172c:	e89da800 	ldmia	sp, {fp, sp, pc}

30001730 <S3C2440_Uart0Initialized>:
30001730:	e1a0c00d 	mov	ip, sp
30001734:	e92dd800 	stmdb	sp!, {fp, ip, lr, pc}
30001738:	e24cb004 	sub	fp, ip, #4	; 0x4
3000173c:	e3a02456 	mov	r2, #1442840576	; 0x56000000
30001740:	e2822070 	add	r2, r2, #112	; 0x70
30001744:	e3a03456 	mov	r3, #1442840576	; 0x56000000
30001748:	e2833070 	add	r3, r3, #112	; 0x70
3000174c:	e5933000 	ldr	r3, [r3]
30001750:	e3c330f0 	bic	r3, r3, #240	; 0xf0
30001754:	e5823000 	str	r3, [r2]
30001758:	e3a02456 	mov	r2, #1442840576	; 0x56000000
3000175c:	e2822070 	add	r2, r2, #112	; 0x70
30001760:	e3a03456 	mov	r3, #1442840576	; 0x56000000
30001764:	e2833070 	add	r3, r3, #112	; 0x70
30001768:	e5933000 	ldr	r3, [r3]
3000176c:	e38330a0 	orr	r3, r3, #160	; 0xa0
30001770:	e5823000 	str	r3, [r2]
30001774:	e3a02456 	mov	r2, #1442840576	; 0x56000000
30001778:	e2822078 	add	r2, r2, #120	; 0x78
3000177c:	e3a03456 	mov	r3, #1442840576	; 0x56000000
30001780:	e2833078 	add	r3, r3, #120	; 0x78
30001784:	e5933000 	ldr	r3, [r3]
30001788:	e3c3300c 	bic	r3, r3, #12	; 0xc
3000178c:	e5823000 	str	r3, [r2]
30001790:	e3a02245 	mov	r2, #1342177284	; 0x50000004
30001794:	e3a03245 	mov	r3, #1342177284	; 0x50000004
30001798:	e5933000 	ldr	r3, [r3]
3000179c:	e3c3300f 	bic	r3, r3, #15	; 0xf
300017a0:	e5823000 	str	r3, [r2]
300017a4:	e3a02245 	mov	r2, #1342177284	; 0x50000004
300017a8:	e3a03245 	mov	r3, #1342177284	; 0x50000004
300017ac:	e5933000 	ldr	r3, [r3]
300017b0:	e3833005 	orr	r3, r3, #5	; 0x5
300017b4:	e5823000 	str	r3, [r2]
300017b8:	e3a03205 	mov	r3, #1342177280	; 0x50000000
300017bc:	e2833028 	add	r3, r3, #40	; 0x28
300017c0:	e3a0201a 	mov	r2, #26	; 0x1a
300017c4:	e5832000 	str	r2, [r3]
300017c8:	e3a02205 	mov	r2, #1342177280	; 0x50000000
300017cc:	e3a03205 	mov	r3, #1342177280	; 0x50000000
300017d0:	e5933000 	ldr	r3, [r3]
300017d4:	e3c33003 	bic	r3, r3, #3	; 0x3
300017d8:	e5823000 	str	r3, [r2]
300017dc:	e3a02205 	mov	r2, #1342177280	; 0x50000000
300017e0:	e3a03205 	mov	r3, #1342177280	; 0x50000000
300017e4:	e5933000 	ldr	r3, [r3]
300017e8:	e3833003 	orr	r3, r3, #3	; 0x3
300017ec:	e5823000 	str	r3, [r2]
300017f0:	e89da800 	ldmia	sp, {fp, sp, pc}

300017f4 <S3C2440_Uart0_Putchar>:
300017f4:	e1a0c00d 	mov	ip, sp
300017f8:	e92dd800 	stmdb	sp!, {fp, ip, lr, pc}
300017fc:	e24cb004 	sub	fp, ip, #4	; 0x4
30001800:	e24dd004 	sub	sp, sp, #4	; 0x4
30001804:	e50b0010 	str	r0, [fp, #-16]
30001808:	e3a03205 	mov	r3, #1342177280	; 0x50000000
3000180c:	e2833010 	add	r3, r3, #16	; 0x10
30001810:	e5933000 	ldr	r3, [r3]
30001814:	e2033004 	and	r3, r3, #4	; 0x4
30001818:	e3530000 	cmp	r3, #0	; 0x0
3000181c:	1a000000 	bne	30001824 <S3C2440_Uart0_Putchar+0x30>
30001820:	eafffff8 	b	30001808 <S3C2440_Uart0_Putchar+0x14>
30001824:	e3a03205 	mov	r3, #1342177280	; 0x50000000
30001828:	e2833020 	add	r3, r3, #32	; 0x20
3000182c:	e51b2010 	ldr	r2, [fp, #-16]
30001830:	e5c32000 	strb	r2, [r3]
30001834:	e51b3010 	ldr	r3, [fp, #-16]
30001838:	e1a00003 	mov	r0, r3
3000183c:	e89da808 	ldmia	sp, {r3, fp, sp, pc}

30001840 <S3C2440_Uart0_Getchar>:
30001840:	e1a0c00d 	mov	ip, sp
30001844:	e92dd800 	stmdb	sp!, {fp, ip, lr, pc}
30001848:	e24cb004 	sub	fp, ip, #4	; 0x4
3000184c:	e3a03205 	mov	r3, #1342177280	; 0x50000000
30001850:	e2833010 	add	r3, r3, #16	; 0x10
30001854:	e5933000 	ldr	r3, [r3]
30001858:	e2033001 	and	r3, r3, #1	; 0x1
3000185c:	e3530000 	cmp	r3, #0	; 0x0
30001860:	1a000000 	bne	30001868 <S3C2440_Uart0_Getchar+0x28>
30001864:	eafffff8 	b	3000184c <S3C2440_Uart0_Getchar+0xc>
30001868:	e3a03205 	mov	r3, #1342177280	; 0x50000000
3000186c:	e2833024 	add	r3, r3, #36	; 0x24
30001870:	e5d33000 	ldrb	r3, [r3]
30001874:	e20330ff 	and	r3, r3, #255	; 0xff
30001878:	e1a00003 	mov	r0, r3
3000187c:	e89da800 	ldmia	sp, {fp, sp, pc}

30001880 <S3C2440_Uart0_Puts>:
30001880:	e1a0c00d 	mov	ip, sp
30001884:	e92dd800 	stmdb	sp!, {fp, ip, lr, pc}
30001888:	e24cb004 	sub	fp, ip, #4	; 0x4
3000188c:	e24dd008 	sub	sp, sp, #8	; 0x8
30001890:	e50b0010 	str	r0, [fp, #-16]
30001894:	e3a03000 	mov	r3, #0	; 0x0
30001898:	e50b3014 	str	r3, [fp, #-20]
3000189c:	e51b3010 	ldr	r3, [fp, #-16]
300018a0:	e5d33000 	ldrb	r3, [r3]
300018a4:	e3530000 	cmp	r3, #0	; 0x0
300018a8:	0a00000b 	beq	300018dc <S3C2440_Uart0_Puts+0x5c>
300018ac:	e24b1010 	sub	r1, fp, #16	; 0x10
300018b0:	e5913000 	ldr	r3, [r1]
300018b4:	e1a02003 	mov	r2, r3
300018b8:	e5d22000 	ldrb	r2, [r2]
300018bc:	e2833001 	add	r3, r3, #1	; 0x1
300018c0:	e5813000 	str	r3, [r1]
300018c4:	e1a00002 	mov	r0, r2
300018c8:	ebffffc9 	bl	300017f4 <S3C2440_Uart0_Putchar>
300018cc:	e51b3014 	ldr	r3, [fp, #-20]
300018d0:	e2833001 	add	r3, r3, #1	; 0x1
300018d4:	e50b3014 	str	r3, [fp, #-20]
300018d8:	eaffffef 	b	3000189c <S3C2440_Uart0_Puts+0x1c>
300018dc:	e51b3014 	ldr	r3, [fp, #-20]
300018e0:	e1a00003 	mov	r0, r3
300018e4:	e24bd00c 	sub	sp, fp, #12	; 0xc
300018e8:	e89da800 	ldmia	sp, {fp, sp, pc}

300018ec <S3C2440_Uart0_Gets>:
300018ec:	e1a0c00d 	mov	ip, sp
300018f0:	e92dd800 	stmdb	sp!, {fp, ip, lr, pc}
300018f4:	e24cb004 	sub	fp, ip, #4	; 0x4
300018f8:	e24dd00c 	sub	sp, sp, #12	; 0xc
300018fc:	e50b0010 	str	r0, [fp, #-16]
30001900:	e3a03000 	mov	r3, #0	; 0x0
30001904:	e50b3014 	str	r3, [fp, #-20]
30001908:	ebffffcc 	bl	30001840 <S3C2440_Uart0_Getchar>
3000190c:	e1a03000 	mov	r3, r0
30001910:	e54b3015 	strb	r3, [fp, #-21]
30001914:	e55b3015 	ldrb	r3, [fp, #-21]
30001918:	e20330ff 	and	r3, r3, #255	; 0xff
3000191c:	e353000a 	cmp	r3, #10	; 0xa
30001920:	0a00000a 	beq	30001950 <S3C2440_Uart0_Gets+0x64>
30001924:	e24b0010 	sub	r0, fp, #16	; 0x10
30001928:	e5903000 	ldr	r3, [r0]
3000192c:	e1a01003 	mov	r1, r3
30001930:	e55b2015 	ldrb	r2, [fp, #-21]
30001934:	e5c12000 	strb	r2, [r1]
30001938:	e2833001 	add	r3, r3, #1	; 0x1
3000193c:	e5803000 	str	r3, [r0]
30001940:	e51b3014 	ldr	r3, [fp, #-20]
30001944:	e2833001 	add	r3, r3, #1	; 0x1
30001948:	e50b3014 	str	r3, [fp, #-20]
3000194c:	eaffffed 	b	30001908 <S3C2440_Uart0_Gets+0x1c>
30001950:	e51b3014 	ldr	r3, [fp, #-20]
30001954:	e1a00003 	mov	r0, r3
30001958:	e24bd00c 	sub	sp, fp, #12	; 0xc
3000195c:	e89da800 	ldmia	sp, {fp, sp, pc}

30001960 <S3C2440_EXTI_Init>:
30001960:	e1a0c00d 	mov	ip, sp
30001964:	e92dd800 	stmdb	sp!, {fp, ip, lr, pc}
30001968:	e24cb004 	sub	fp, ip, #4	; 0x4
3000196c:	e3a02456 	mov	r2, #1442840576	; 0x56000000
30001970:	e2822050 	add	r2, r2, #80	; 0x50
30001974:	e3a03456 	mov	r3, #1442840576	; 0x56000000
30001978:	e2833050 	add	r3, r3, #80	; 0x50
3000197c:	e5933000 	ldr	r3, [r3]
30001980:	e3c33033 	bic	r3, r3, #51	; 0x33
30001984:	e5823000 	str	r3, [r2]
30001988:	e3a02456 	mov	r2, #1442840576	; 0x56000000
3000198c:	e2822050 	add	r2, r2, #80	; 0x50
30001990:	e3a03456 	mov	r3, #1442840576	; 0x56000000
30001994:	e2833050 	add	r3, r3, #80	; 0x50
30001998:	e5933000 	ldr	r3, [r3]
3000199c:	e3833022 	orr	r3, r3, #34	; 0x22
300019a0:	e5823000 	str	r3, [r2]
300019a4:	e3a02456 	mov	r2, #1442840576	; 0x56000000
300019a8:	e2822060 	add	r2, r2, #96	; 0x60
300019ac:	e3a03456 	mov	r3, #1442840576	; 0x56000000
300019b0:	e2833060 	add	r3, r3, #96	; 0x60
300019b4:	e5933000 	ldr	r3, [r3]
300019b8:	e3c33503 	bic	r3, r3, #12582912	; 0xc00000
300019bc:	e3c330c0 	bic	r3, r3, #192	; 0xc0
300019c0:	e5823000 	str	r3, [r2]
300019c4:	e3a02456 	mov	r2, #1442840576	; 0x56000000
300019c8:	e2822060 	add	r2, r2, #96	; 0x60
300019cc:	e3a03456 	mov	r3, #1442840576	; 0x56000000
300019d0:	e2833060 	add	r3, r3, #96	; 0x60
300019d4:	e5933000 	ldr	r3, [r3]
300019d8:	e3833502 	orr	r3, r3, #8388608	; 0x800000
300019dc:	e3833080 	orr	r3, r3, #128	; 0x80
300019e0:	e5823000 	str	r3, [r2]
300019e4:	e3a02456 	mov	r2, #1442840576	; 0x56000000
300019e8:	e2822088 	add	r2, r2, #136	; 0x88
300019ec:	e3a03456 	mov	r3, #1442840576	; 0x56000000
300019f0:	e2833088 	add	r3, r3, #136	; 0x88
300019f4:	e5933000 	ldr	r3, [r3]
300019f8:	e3c33007 	bic	r3, r3, #7	; 0x7
300019fc:	e5823000 	str	r3, [r2]
30001a00:	e3a02456 	mov	r2, #1442840576	; 0x56000000
30001a04:	e2822088 	add	r2, r2, #136	; 0x88
30001a08:	e3a03456 	mov	r3, #1442840576	; 0x56000000
30001a0c:	e2833088 	add	r3, r3, #136	; 0x88
30001a10:	e5933000 	ldr	r3, [r3]
30001a14:	e3833007 	orr	r3, r3, #7	; 0x7
30001a18:	e5823000 	str	r3, [r2]
30001a1c:	e3a02456 	mov	r2, #1442840576	; 0x56000000
30001a20:	e2822088 	add	r2, r2, #136	; 0x88
30001a24:	e3a03456 	mov	r3, #1442840576	; 0x56000000
30001a28:	e2833088 	add	r3, r3, #136	; 0x88
30001a2c:	e5933000 	ldr	r3, [r3]
30001a30:	e3c33c07 	bic	r3, r3, #1792	; 0x700
30001a34:	e5823000 	str	r3, [r2]
30001a38:	e3a02456 	mov	r2, #1442840576	; 0x56000000
30001a3c:	e2822088 	add	r2, r2, #136	; 0x88
30001a40:	e3a03456 	mov	r3, #1442840576	; 0x56000000
30001a44:	e2833088 	add	r3, r3, #136	; 0x88
30001a48:	e5933000 	ldr	r3, [r3]
30001a4c:	e3833c07 	orr	r3, r3, #1792	; 0x700
30001a50:	e5823000 	str	r3, [r2]
30001a54:	e3a02456 	mov	r2, #1442840576	; 0x56000000
30001a58:	e282208c 	add	r2, r2, #140	; 0x8c
30001a5c:	e3a03456 	mov	r3, #1442840576	; 0x56000000
30001a60:	e283308c 	add	r3, r3, #140	; 0x8c
30001a64:	e5933000 	ldr	r3, [r3]
30001a68:	e3c33a07 	bic	r3, r3, #28672	; 0x7000
30001a6c:	e5823000 	str	r3, [r2]
30001a70:	e3a02456 	mov	r2, #1442840576	; 0x56000000
30001a74:	e282208c 	add	r2, r2, #140	; 0x8c
30001a78:	e3a03456 	mov	r3, #1442840576	; 0x56000000
30001a7c:	e283308c 	add	r3, r3, #140	; 0x8c
30001a80:	e5933000 	ldr	r3, [r3]
30001a84:	e3833a07 	orr	r3, r3, #28672	; 0x7000
30001a88:	e5823000 	str	r3, [r2]
30001a8c:	e3a02456 	mov	r2, #1442840576	; 0x56000000
30001a90:	e2822090 	add	r2, r2, #144	; 0x90
30001a94:	e3a03456 	mov	r3, #1442840576	; 0x56000000
30001a98:	e2833090 	add	r3, r3, #144	; 0x90
30001a9c:	e5933000 	ldr	r3, [r3]
30001aa0:	e3c33a07 	bic	r3, r3, #28672	; 0x7000
30001aa4:	e5823000 	str	r3, [r2]
30001aa8:	e3a02456 	mov	r2, #1442840576	; 0x56000000
30001aac:	e2822090 	add	r2, r2, #144	; 0x90
30001ab0:	e3a03456 	mov	r3, #1442840576	; 0x56000000
30001ab4:	e2833090 	add	r3, r3, #144	; 0x90
30001ab8:	e5933000 	ldr	r3, [r3]
30001abc:	e3833a07 	orr	r3, r3, #28672	; 0x7000
30001ac0:	e5823000 	str	r3, [r2]
30001ac4:	e3a02456 	mov	r2, #1442840576	; 0x56000000
30001ac8:	e28220a4 	add	r2, r2, #164	; 0xa4
30001acc:	e3a03456 	mov	r3, #1442840576	; 0x56000000
30001ad0:	e28330a4 	add	r3, r3, #164	; 0xa4
30001ad4:	e5933000 	ldr	r3, [r3]
30001ad8:	e3c33702 	bic	r3, r3, #524288	; 0x80000
30001adc:	e3c33b02 	bic	r3, r3, #2048	; 0x800
30001ae0:	e5823000 	str	r3, [r2]
30001ae4:	e3a00000 	mov	r0, #0	; 0x0
30001ae8:	e59f101c 	ldr	r1, [pc, #28]	; 30001b0c <.text+0x1b0c>
30001aec:	ebfffa12 	bl	3000033c <S3C2440_IRQRegister>
30001af0:	e3a00002 	mov	r0, #2	; 0x2
30001af4:	e59f1010 	ldr	r1, [pc, #16]	; 30001b0c <.text+0x1b0c>
30001af8:	ebfffa0f 	bl	3000033c <S3C2440_IRQRegister>
30001afc:	e3a00005 	mov	r0, #5	; 0x5
30001b00:	e59f1004 	ldr	r1, [pc, #4]	; 30001b0c <.text+0x1b0c>
30001b04:	ebfffa0c 	bl	3000033c <S3C2440_IRQRegister>
30001b08:	e89da800 	ldmia	sp, {fp, sp, pc}
30001b0c:	30001d30 	andcc	r1, r0, r0, lsr sp

30001b10 <S3C2440_EXTI_Register>:
30001b10:	e1a0c00d 	mov	ip, sp
30001b14:	e92dd800 	stmdb	sp!, {fp, ip, lr, pc}
30001b18:	e24cb004 	sub	fp, ip, #4	; 0x4
30001b1c:	e24dd014 	sub	sp, sp, #20	; 0x14
30001b20:	e50b0010 	str	r0, [fp, #-16]
30001b24:	e1a03001 	mov	r3, r1
30001b28:	e50b2018 	str	r2, [fp, #-24]
30001b2c:	e54b3011 	strb	r3, [fp, #-17]
30001b30:	e3a03000 	mov	r3, #0	; 0x0
30001b34:	e50b301c 	str	r3, [fp, #-28]
30001b38:	e51b301c 	ldr	r3, [fp, #-28]
30001b3c:	e353001f 	cmp	r3, #31	; 0x1f
30001b40:	ca000031 	bgt	30001c0c <S3C2440_EXTI_Register+0xfc>
30001b44:	e59f10d4 	ldr	r1, [pc, #212]	; 30001c20 <.text+0x1c20>
30001b48:	e51b201c 	ldr	r2, [fp, #-28]
30001b4c:	e3a00008 	mov	r0, #8	; 0x8
30001b50:	e1a03002 	mov	r3, r2
30001b54:	e1a03083 	mov	r3, r3, lsl #1
30001b58:	e0833002 	add	r3, r3, r2
30001b5c:	e1a03103 	mov	r3, r3, lsl #2
30001b60:	e0833001 	add	r3, r3, r1
30001b64:	e0833000 	add	r3, r3, r0
30001b68:	e5933000 	ldr	r3, [r3]
30001b6c:	e3530000 	cmp	r3, #0	; 0x0
30001b70:	1a000021 	bne	30001bfc <S3C2440_EXTI_Register+0xec>
30001b74:	e59f10a4 	ldr	r1, [pc, #164]	; 30001c20 <.text+0x1c20>
30001b78:	e51b201c 	ldr	r2, [fp, #-28]
30001b7c:	e1a03002 	mov	r3, r2
30001b80:	e1a03083 	mov	r3, r3, lsl #1
30001b84:	e0833002 	add	r3, r3, r2
30001b88:	e1a03103 	mov	r3, r3, lsl #2
30001b8c:	e0832001 	add	r2, r3, r1
30001b90:	e51b3010 	ldr	r3, [fp, #-16]
30001b94:	e5823000 	str	r3, [r2]
30001b98:	e59f1080 	ldr	r1, [pc, #128]	; 30001c20 <.text+0x1c20>
30001b9c:	e51b201c 	ldr	r2, [fp, #-28]
30001ba0:	e3a00004 	mov	r0, #4	; 0x4
30001ba4:	e1a03002 	mov	r3, r2
30001ba8:	e1a03083 	mov	r3, r3, lsl #1
30001bac:	e0833002 	add	r3, r3, r2
30001bb0:	e1a03103 	mov	r3, r3, lsl #2
30001bb4:	e0833001 	add	r3, r3, r1
30001bb8:	e0832000 	add	r2, r3, r0
30001bbc:	e55b3011 	ldrb	r3, [fp, #-17]
30001bc0:	e5c23000 	strb	r3, [r2]
30001bc4:	e59f1054 	ldr	r1, [pc, #84]	; 30001c20 <.text+0x1c20>
30001bc8:	e51b201c 	ldr	r2, [fp, #-28]
30001bcc:	e3a00008 	mov	r0, #8	; 0x8
30001bd0:	e1a03002 	mov	r3, r2
30001bd4:	e1a03083 	mov	r3, r3, lsl #1
30001bd8:	e0833002 	add	r3, r3, r2
30001bdc:	e1a03103 	mov	r3, r3, lsl #2
30001be0:	e0833001 	add	r3, r3, r1
30001be4:	e0832000 	add	r2, r3, r0
30001be8:	e51b3018 	ldr	r3, [fp, #-24]
30001bec:	e5823000 	str	r3, [r2]
30001bf0:	e3a03000 	mov	r3, #0	; 0x0
30001bf4:	e50b3020 	str	r3, [fp, #-32]
30001bf8:	ea000005 	b	30001c14 <S3C2440_EXTI_Register+0x104>
30001bfc:	e51b301c 	ldr	r3, [fp, #-28]
30001c00:	e2833001 	add	r3, r3, #1	; 0x1
30001c04:	e50b301c 	str	r3, [fp, #-28]
30001c08:	eaffffca 	b	30001b38 <S3C2440_EXTI_Register+0x28>
30001c0c:	e3e03000 	mvn	r3, #0	; 0x0
30001c10:	e50b3020 	str	r3, [fp, #-32]
30001c14:	e51b0020 	ldr	r0, [fp, #-32]
30001c18:	e24bd00c 	sub	sp, fp, #12	; 0xc
30001c1c:	e89da800 	ldmia	sp, {fp, sp, pc}
30001c20:	3000cd0c 	andcc	ip, r0, ip, lsl #26

30001c24 <S3C2440_EXTI_Unregister>:
30001c24:	e1a0c00d 	mov	ip, sp
30001c28:	e92dd800 	stmdb	sp!, {fp, ip, lr, pc}
30001c2c:	e24cb004 	sub	fp, ip, #4	; 0x4
30001c30:	e24dd00c 	sub	sp, sp, #12	; 0xc
30001c34:	e50b0010 	str	r0, [fp, #-16]
30001c38:	e3a03000 	mov	r3, #0	; 0x0
30001c3c:	e50b3014 	str	r3, [fp, #-20]
30001c40:	e51b3014 	ldr	r3, [fp, #-20]
30001c44:	e353001f 	cmp	r3, #31	; 0x1f
30001c48:	ca000032 	bgt	30001d18 <S3C2440_EXTI_Unregister+0xf4>
30001c4c:	e59f10d8 	ldr	r1, [pc, #216]	; 30001d2c <.text+0x1d2c>
30001c50:	e51b2014 	ldr	r2, [fp, #-20]
30001c54:	e1a03002 	mov	r3, r2
30001c58:	e1a03083 	mov	r3, r3, lsl #1
30001c5c:	e0833002 	add	r3, r3, r2
30001c60:	e1a03103 	mov	r3, r3, lsl #2
30001c64:	e0833001 	add	r3, r3, r1
30001c68:	e5930000 	ldr	r0, [r3]
30001c6c:	e51b1010 	ldr	r1, [fp, #-16]
30001c70:	eb00181e 	bl	30007cf0 <strcmp>
30001c74:	e1a03000 	mov	r3, r0
30001c78:	e3530000 	cmp	r3, #0	; 0x0
30001c7c:	1a000021 	bne	30001d08 <S3C2440_EXTI_Unregister+0xe4>
30001c80:	e59f10a4 	ldr	r1, [pc, #164]	; 30001d2c <.text+0x1d2c>
30001c84:	e51b2014 	ldr	r2, [fp, #-20]
30001c88:	e1a03002 	mov	r3, r2
30001c8c:	e1a03083 	mov	r3, r3, lsl #1
30001c90:	e0833002 	add	r3, r3, r2
30001c94:	e1a03103 	mov	r3, r3, lsl #2
30001c98:	e0832001 	add	r2, r3, r1
30001c9c:	e3a03000 	mov	r3, #0	; 0x0
30001ca0:	e5823000 	str	r3, [r2]
30001ca4:	e59f1080 	ldr	r1, [pc, #128]	; 30001d2c <.text+0x1d2c>
30001ca8:	e51b2014 	ldr	r2, [fp, #-20]
30001cac:	e3a00004 	mov	r0, #4	; 0x4
30001cb0:	e1a03002 	mov	r3, r2
30001cb4:	e1a03083 	mov	r3, r3, lsl #1
30001cb8:	e0833002 	add	r3, r3, r2
30001cbc:	e1a03103 	mov	r3, r3, lsl #2
30001cc0:	e0833001 	add	r3, r3, r1
30001cc4:	e0832000 	add	r2, r3, r0
30001cc8:	e3a03000 	mov	r3, #0	; 0x0
30001ccc:	e5c23000 	strb	r3, [r2]
30001cd0:	e59f1054 	ldr	r1, [pc, #84]	; 30001d2c <.text+0x1d2c>
30001cd4:	e51b2014 	ldr	r2, [fp, #-20]
30001cd8:	e3a00008 	mov	r0, #8	; 0x8
30001cdc:	e1a03002 	mov	r3, r2
30001ce0:	e1a03083 	mov	r3, r3, lsl #1
30001ce4:	e0833002 	add	r3, r3, r2
30001ce8:	e1a03103 	mov	r3, r3, lsl #2
30001cec:	e0833001 	add	r3, r3, r1
30001cf0:	e0832000 	add	r2, r3, r0
30001cf4:	e3a03000 	mov	r3, #0	; 0x0
30001cf8:	e5823000 	str	r3, [r2]
30001cfc:	e3a03000 	mov	r3, #0	; 0x0
30001d00:	e50b3018 	str	r3, [fp, #-24]
30001d04:	ea000005 	b	30001d20 <S3C2440_EXTI_Unregister+0xfc>
30001d08:	e51b3014 	ldr	r3, [fp, #-20]
30001d0c:	e2833001 	add	r3, r3, #1	; 0x1
30001d10:	e50b3014 	str	r3, [fp, #-20]
30001d14:	eaffffc9 	b	30001c40 <S3C2440_EXTI_Unregister+0x1c>
30001d18:	e3e03000 	mvn	r3, #0	; 0x0
30001d1c:	e50b3018 	str	r3, [fp, #-24]
30001d20:	e51b0018 	ldr	r0, [fp, #-24]
30001d24:	e24bd00c 	sub	sp, fp, #12	; 0xc
30001d28:	e89da800 	ldmia	sp, {fp, sp, pc}
30001d2c:	3000cd0c 	andcc	ip, r0, ip, lsl #26

30001d30 <S3C2440_EXTI_Irq>:
30001d30:	e1a0c00d 	mov	ip, sp
30001d34:	e92dd800 	stmdb	sp!, {fp, ip, lr, pc}
30001d38:	e24cb004 	sub	fp, ip, #4	; 0x4
30001d3c:	e24dd008 	sub	sp, sp, #8	; 0x8
30001d40:	e50b0010 	str	r0, [fp, #-16]
30001d44:	e3a03000 	mov	r3, #0	; 0x0
30001d48:	e50b3014 	str	r3, [fp, #-20]
30001d4c:	e51b3014 	ldr	r3, [fp, #-20]
30001d50:	e353001f 	cmp	r3, #31	; 0x1f
30001d54:	ca000028 	bgt	30001dfc <S3C2440_EXTI_Irq+0xcc>
30001d58:	e59f10a4 	ldr	r1, [pc, #164]	; 30001e04 <.text+0x1e04>
30001d5c:	e51b2014 	ldr	r2, [fp, #-20]
30001d60:	e3a00008 	mov	r0, #8	; 0x8
30001d64:	e1a03002 	mov	r3, r2
30001d68:	e1a03083 	mov	r3, r3, lsl #1
30001d6c:	e0833002 	add	r3, r3, r2
30001d70:	e1a03103 	mov	r3, r3, lsl #2
30001d74:	e0833001 	add	r3, r3, r1
30001d78:	e0833000 	add	r3, r3, r0
30001d7c:	e5933000 	ldr	r3, [r3]
30001d80:	e3530000 	cmp	r3, #0	; 0x0
30001d84:	0a000018 	beq	30001dec <S3C2440_EXTI_Irq+0xbc>
30001d88:	e59f1074 	ldr	r1, [pc, #116]	; 30001e04 <.text+0x1e04>
30001d8c:	e51b2014 	ldr	r2, [fp, #-20]
30001d90:	e3a00004 	mov	r0, #4	; 0x4
30001d94:	e1a03002 	mov	r3, r2
30001d98:	e1a03083 	mov	r3, r3, lsl #1
30001d9c:	e0833002 	add	r3, r3, r2
30001da0:	e1a03103 	mov	r3, r3, lsl #2
30001da4:	e0833001 	add	r3, r3, r1
30001da8:	e0833000 	add	r3, r3, r0
30001dac:	e5d32000 	ldrb	r2, [r3]
30001db0:	e51b3010 	ldr	r3, [fp, #-16]
30001db4:	e1520003 	cmp	r2, r3
30001db8:	1a00000b 	bne	30001dec <S3C2440_EXTI_Irq+0xbc>
30001dbc:	e59f1040 	ldr	r1, [pc, #64]	; 30001e04 <.text+0x1e04>
30001dc0:	e51b2014 	ldr	r2, [fp, #-20]
30001dc4:	e3a00008 	mov	r0, #8	; 0x8
30001dc8:	e1a03002 	mov	r3, r2
30001dcc:	e1a03083 	mov	r3, r3, lsl #1
30001dd0:	e0833002 	add	r3, r3, r2
30001dd4:	e1a03103 	mov	r3, r3, lsl #2
30001dd8:	e0833001 	add	r3, r3, r1
30001ddc:	e0833000 	add	r3, r3, r0
30001de0:	e5933000 	ldr	r3, [r3]
30001de4:	e1a0e00f 	mov	lr, pc
30001de8:	e1a0f003 	mov	pc, r3
30001dec:	e51b3014 	ldr	r3, [fp, #-20]
30001df0:	e2833001 	add	r3, r3, #1	; 0x1
30001df4:	e50b3014 	str	r3, [fp, #-20]
30001df8:	eaffffd3 	b	30001d4c <S3C2440_EXTI_Irq+0x1c>
30001dfc:	e24bd00c 	sub	sp, fp, #12	; 0xc
30001e00:	e89da800 	ldmia	sp, {fp, sp, pc}
30001e04:	3000cd0c 	andcc	ip, r0, ip, lsl #26

30001e08 <S3C2440_EXTI_LED1_Irq_Demo>:
30001e08:	e1a0c00d 	mov	ip, sp
30001e0c:	e92dd800 	stmdb	sp!, {fp, ip, lr, pc}
30001e10:	e24cb004 	sub	fp, ip, #4	; 0x4
30001e14:	e24dd004 	sub	sp, sp, #4	; 0x4
30001e18:	e3a03456 	mov	r3, #1442840576	; 0x56000000
30001e1c:	e28330a8 	add	r3, r3, #168	; 0xa8
30001e20:	e5933000 	ldr	r3, [r3]
30001e24:	e50b3010 	str	r3, [fp, #-16]
30001e28:	e3a03456 	mov	r3, #1442840576	; 0x56000000
30001e2c:	e2833054 	add	r3, r3, #84	; 0x54
30001e30:	e5933000 	ldr	r3, [r3]
30001e34:	e2033001 	and	r3, r3, #1	; 0x1
30001e38:	e3530000 	cmp	r3, #0	; 0x0
30001e3c:	0a000014 	beq	30001e94 <S3C2440_EXTI_LED1_Irq_Demo+0x8c>
30001e40:	e3a03456 	mov	r3, #1442840576	; 0x56000000
30001e44:	e2833054 	add	r3, r3, #84	; 0x54
30001e48:	e5933000 	ldr	r3, [r3]
30001e4c:	e2033010 	and	r3, r3, #16	; 0x10
30001e50:	e3530000 	cmp	r3, #0	; 0x0
30001e54:	0a000007 	beq	30001e78 <S3C2440_EXTI_LED1_Irq_Demo+0x70>
30001e58:	e3a02456 	mov	r2, #1442840576	; 0x56000000
30001e5c:	e2822054 	add	r2, r2, #84	; 0x54
30001e60:	e3a03456 	mov	r3, #1442840576	; 0x56000000
30001e64:	e2833054 	add	r3, r3, #84	; 0x54
30001e68:	e5933000 	ldr	r3, [r3]
30001e6c:	e3c33010 	bic	r3, r3, #16	; 0x10
30001e70:	e5823000 	str	r3, [r2]
30001e74:	ea000006 	b	30001e94 <S3C2440_EXTI_LED1_Irq_Demo+0x8c>
30001e78:	e3a02456 	mov	r2, #1442840576	; 0x56000000
30001e7c:	e2822054 	add	r2, r2, #84	; 0x54
30001e80:	e3a03456 	mov	r3, #1442840576	; 0x56000000
30001e84:	e2833054 	add	r3, r3, #84	; 0x54
30001e88:	e5933000 	ldr	r3, [r3]
30001e8c:	e3833010 	orr	r3, r3, #16	; 0x10
30001e90:	e5823000 	str	r3, [r2]
30001e94:	e3a03456 	mov	r3, #1442840576	; 0x56000000
30001e98:	e28330a8 	add	r3, r3, #168	; 0xa8
30001e9c:	e51b2010 	ldr	r2, [fp, #-16]
30001ea0:	e5832000 	str	r2, [r3]
30001ea4:	e89da808 	ldmia	sp, {r3, fp, sp, pc}

30001ea8 <S3C2440_EXTI_LED2_Irq_Demo>:
30001ea8:	e1a0c00d 	mov	ip, sp
30001eac:	e92dd800 	stmdb	sp!, {fp, ip, lr, pc}
30001eb0:	e24cb004 	sub	fp, ip, #4	; 0x4
30001eb4:	e24dd004 	sub	sp, sp, #4	; 0x4
30001eb8:	e3a03456 	mov	r3, #1442840576	; 0x56000000
30001ebc:	e28330a8 	add	r3, r3, #168	; 0xa8
30001ec0:	e5933000 	ldr	r3, [r3]
30001ec4:	e50b3010 	str	r3, [fp, #-16]
30001ec8:	e3a03456 	mov	r3, #1442840576	; 0x56000000
30001ecc:	e2833054 	add	r3, r3, #84	; 0x54
30001ed0:	e5933000 	ldr	r3, [r3]
30001ed4:	e2033004 	and	r3, r3, #4	; 0x4
30001ed8:	e3530000 	cmp	r3, #0	; 0x0
30001edc:	0a000014 	beq	30001f34 <S3C2440_EXTI_LED2_Irq_Demo+0x8c>
30001ee0:	e3a03456 	mov	r3, #1442840576	; 0x56000000
30001ee4:	e2833054 	add	r3, r3, #84	; 0x54
30001ee8:	e5933000 	ldr	r3, [r3]
30001eec:	e2033020 	and	r3, r3, #32	; 0x20
30001ef0:	e3530000 	cmp	r3, #0	; 0x0
30001ef4:	0a000007 	beq	30001f18 <S3C2440_EXTI_LED2_Irq_Demo+0x70>
30001ef8:	e3a02456 	mov	r2, #1442840576	; 0x56000000
30001efc:	e2822054 	add	r2, r2, #84	; 0x54
30001f00:	e3a03456 	mov	r3, #1442840576	; 0x56000000
30001f04:	e2833054 	add	r3, r3, #84	; 0x54
30001f08:	e5933000 	ldr	r3, [r3]
30001f0c:	e3c33020 	bic	r3, r3, #32	; 0x20
30001f10:	e5823000 	str	r3, [r2]
30001f14:	ea000006 	b	30001f34 <S3C2440_EXTI_LED2_Irq_Demo+0x8c>
30001f18:	e3a02456 	mov	r2, #1442840576	; 0x56000000
30001f1c:	e2822054 	add	r2, r2, #84	; 0x54
30001f20:	e3a03456 	mov	r3, #1442840576	; 0x56000000
30001f24:	e2833054 	add	r3, r3, #84	; 0x54
30001f28:	e5933000 	ldr	r3, [r3]
30001f2c:	e3833020 	orr	r3, r3, #32	; 0x20
30001f30:	e5823000 	str	r3, [r2]
30001f34:	e3a03456 	mov	r3, #1442840576	; 0x56000000
30001f38:	e28330a8 	add	r3, r3, #168	; 0xa8
30001f3c:	e51b2010 	ldr	r2, [fp, #-16]
30001f40:	e5832000 	str	r2, [r3]
30001f44:	e89da808 	ldmia	sp, {r3, fp, sp, pc}

30001f48 <S3C2440_EXTI_LED3_Irq_Demo>:
30001f48:	e1a0c00d 	mov	ip, sp
30001f4c:	e92dd800 	stmdb	sp!, {fp, ip, lr, pc}
30001f50:	e24cb004 	sub	fp, ip, #4	; 0x4
30001f54:	e24dd004 	sub	sp, sp, #4	; 0x4
30001f58:	e3a03456 	mov	r3, #1442840576	; 0x56000000
30001f5c:	e28330a8 	add	r3, r3, #168	; 0xa8
30001f60:	e5933000 	ldr	r3, [r3]
30001f64:	e50b3010 	str	r3, [fp, #-16]
30001f68:	e51b3010 	ldr	r3, [fp, #-16]
30001f6c:	e2033b02 	and	r3, r3, #2048	; 0x800
30001f70:	e3530000 	cmp	r3, #0	; 0x0
30001f74:	0a00001a 	beq	30001fe4 <S3C2440_EXTI_LED3_Irq_Demo+0x9c>
30001f78:	e3a03456 	mov	r3, #1442840576	; 0x56000000
30001f7c:	e2833064 	add	r3, r3, #100	; 0x64
30001f80:	e5933000 	ldr	r3, [r3]
30001f84:	e2033008 	and	r3, r3, #8	; 0x8
30001f88:	e3530000 	cmp	r3, #0	; 0x0
30001f8c:	0a000014 	beq	30001fe4 <S3C2440_EXTI_LED3_Irq_Demo+0x9c>
30001f90:	e3a03456 	mov	r3, #1442840576	; 0x56000000
30001f94:	e2833054 	add	r3, r3, #84	; 0x54
30001f98:	e5933000 	ldr	r3, [r3]
30001f9c:	e2033040 	and	r3, r3, #64	; 0x40
30001fa0:	e3530000 	cmp	r3, #0	; 0x0
30001fa4:	0a000007 	beq	30001fc8 <S3C2440_EXTI_LED3_Irq_Demo+0x80>
30001fa8:	e3a02456 	mov	r2, #1442840576	; 0x56000000
30001fac:	e2822054 	add	r2, r2, #84	; 0x54
30001fb0:	e3a03456 	mov	r3, #1442840576	; 0x56000000
30001fb4:	e2833054 	add	r3, r3, #84	; 0x54
30001fb8:	e5933000 	ldr	r3, [r3]
30001fbc:	e3c33040 	bic	r3, r3, #64	; 0x40
30001fc0:	e5823000 	str	r3, [r2]
30001fc4:	ea000006 	b	30001fe4 <S3C2440_EXTI_LED3_Irq_Demo+0x9c>
30001fc8:	e3a02456 	mov	r2, #1442840576	; 0x56000000
30001fcc:	e2822054 	add	r2, r2, #84	; 0x54
30001fd0:	e3a03456 	mov	r3, #1442840576	; 0x56000000
30001fd4:	e2833054 	add	r3, r3, #84	; 0x54
30001fd8:	e5933000 	ldr	r3, [r3]
30001fdc:	e3833040 	orr	r3, r3, #64	; 0x40
30001fe0:	e5823000 	str	r3, [r2]
30001fe4:	e51b3010 	ldr	r3, [fp, #-16]
30001fe8:	e2033702 	and	r3, r3, #524288	; 0x80000
30001fec:	e3530000 	cmp	r3, #0	; 0x0
30001ff0:	0a000044 	beq	30002108 <S3C2440_EXTI_LED3_Irq_Demo+0x1c0>
30001ff4:	e3a03456 	mov	r3, #1442840576	; 0x56000000
30001ff8:	e2833064 	add	r3, r3, #100	; 0x64
30001ffc:	e5933000 	ldr	r3, [r3]
30002000:	e2033b02 	and	r3, r3, #2048	; 0x800
30002004:	e3530000 	cmp	r3, #0	; 0x0
30002008:	0a00003e 	beq	30002108 <S3C2440_EXTI_LED3_Irq_Demo+0x1c0>
3000200c:	e3a03456 	mov	r3, #1442840576	; 0x56000000
30002010:	e2833054 	add	r3, r3, #84	; 0x54
30002014:	e5933000 	ldr	r3, [r3]
30002018:	e2033010 	and	r3, r3, #16	; 0x10
3000201c:	e3530000 	cmp	r3, #0	; 0x0
30002020:	0a000007 	beq	30002044 <S3C2440_EXTI_LED3_Irq_Demo+0xfc>
30002024:	e3a02456 	mov	r2, #1442840576	; 0x56000000
30002028:	e2822054 	add	r2, r2, #84	; 0x54
3000202c:	e3a03456 	mov	r3, #1442840576	; 0x56000000
30002030:	e2833054 	add	r3, r3, #84	; 0x54
30002034:	e5933000 	ldr	r3, [r3]
30002038:	e3c33010 	bic	r3, r3, #16	; 0x10
3000203c:	e5823000 	str	r3, [r2]
30002040:	ea000006 	b	30002060 <S3C2440_EXTI_LED3_Irq_Demo+0x118>
30002044:	e3a02456 	mov	r2, #1442840576	; 0x56000000
30002048:	e2822054 	add	r2, r2, #84	; 0x54
3000204c:	e3a03456 	mov	r3, #1442840576	; 0x56000000
30002050:	e2833054 	add	r3, r3, #84	; 0x54
30002054:	e5933000 	ldr	r3, [r3]
30002058:	e3833010 	orr	r3, r3, #16	; 0x10
3000205c:	e5823000 	str	r3, [r2]
30002060:	e3a03456 	mov	r3, #1442840576	; 0x56000000
30002064:	e2833054 	add	r3, r3, #84	; 0x54
30002068:	e5933000 	ldr	r3, [r3]
3000206c:	e2033020 	and	r3, r3, #32	; 0x20
30002070:	e3530000 	cmp	r3, #0	; 0x0
30002074:	0a000007 	beq	30002098 <S3C2440_EXTI_LED3_Irq_Demo+0x150>
30002078:	e3a02456 	mov	r2, #1442840576	; 0x56000000
3000207c:	e2822054 	add	r2, r2, #84	; 0x54
30002080:	e3a03456 	mov	r3, #1442840576	; 0x56000000
30002084:	e2833054 	add	r3, r3, #84	; 0x54
30002088:	e5933000 	ldr	r3, [r3]
3000208c:	e3c33020 	bic	r3, r3, #32	; 0x20
30002090:	e5823000 	str	r3, [r2]
30002094:	ea000006 	b	300020b4 <S3C2440_EXTI_LED3_Irq_Demo+0x16c>
30002098:	e3a02456 	mov	r2, #1442840576	; 0x56000000
3000209c:	e2822054 	add	r2, r2, #84	; 0x54
300020a0:	e3a03456 	mov	r3, #1442840576	; 0x56000000
300020a4:	e2833054 	add	r3, r3, #84	; 0x54
300020a8:	e5933000 	ldr	r3, [r3]
300020ac:	e3833020 	orr	r3, r3, #32	; 0x20
300020b0:	e5823000 	str	r3, [r2]
300020b4:	e3a03456 	mov	r3, #1442840576	; 0x56000000
300020b8:	e2833054 	add	r3, r3, #84	; 0x54
300020bc:	e5933000 	ldr	r3, [r3]
300020c0:	e2033040 	and	r3, r3, #64	; 0x40
300020c4:	e3530000 	cmp	r3, #0	; 0x0
300020c8:	0a000007 	beq	300020ec <S3C2440_EXTI_LED3_Irq_Demo+0x1a4>
300020cc:	e3a02456 	mov	r2, #1442840576	; 0x56000000
300020d0:	e2822054 	add	r2, r2, #84	; 0x54
300020d4:	e3a03456 	mov	r3, #1442840576	; 0x56000000
300020d8:	e2833054 	add	r3, r3, #84	; 0x54
300020dc:	e5933000 	ldr	r3, [r3]
300020e0:	e3c33040 	bic	r3, r3, #64	; 0x40
300020e4:	e5823000 	str	r3, [r2]
300020e8:	ea000006 	b	30002108 <S3C2440_EXTI_LED3_Irq_Demo+0x1c0>
300020ec:	e3a02456 	mov	r2, #1442840576	; 0x56000000
300020f0:	e2822054 	add	r2, r2, #84	; 0x54
300020f4:	e3a03456 	mov	r3, #1442840576	; 0x56000000
300020f8:	e2833054 	add	r3, r3, #84	; 0x54
300020fc:	e5933000 	ldr	r3, [r3]
30002100:	e3833040 	orr	r3, r3, #64	; 0x40
30002104:	e5823000 	str	r3, [r2]
30002108:	e3a03456 	mov	r3, #1442840576	; 0x56000000
3000210c:	e28330a8 	add	r3, r3, #168	; 0xa8
30002110:	e51b2010 	ldr	r2, [fp, #-16]
30002114:	e5832000 	str	r2, [r3]
30002118:	e89da808 	ldmia	sp, {r3, fp, sp, pc}

3000211c <S3C2440_TIMER0_Init>:
3000211c:	e1a0c00d 	mov	ip, sp
30002120:	e92dd800 	stmdb	sp!, {fp, ip, lr, pc}
30002124:	e24cb004 	sub	fp, ip, #4	; 0x4
30002128:	e3a02451 	mov	r2, #1358954496	; 0x51000000
3000212c:	e3a03451 	mov	r3, #1358954496	; 0x51000000
30002130:	e5933000 	ldr	r3, [r3]
30002134:	e3c330ff 	bic	r3, r3, #255	; 0xff
30002138:	e5823000 	str	r3, [r2]
3000213c:	e3a02451 	mov	r2, #1358954496	; 0x51000000
30002140:	e3a03451 	mov	r3, #1358954496	; 0x51000000
30002144:	e5933000 	ldr	r3, [r3]
30002148:	e3833031 	orr	r3, r3, #49	; 0x31
3000214c:	e5823000 	str	r3, [r2]
30002150:	e3a02451 	mov	r2, #1358954496	; 0x51000000
30002154:	e2822004 	add	r2, r2, #4	; 0x4
30002158:	e3a03451 	mov	r3, #1358954496	; 0x51000000
3000215c:	e2833004 	add	r3, r3, #4	; 0x4
30002160:	e5933000 	ldr	r3, [r3]
30002164:	e3c3300f 	bic	r3, r3, #15	; 0xf
30002168:	e5823000 	str	r3, [r2]
3000216c:	e3a02451 	mov	r2, #1358954496	; 0x51000000
30002170:	e2822004 	add	r2, r2, #4	; 0x4
30002174:	e3a03451 	mov	r3, #1358954496	; 0x51000000
30002178:	e2833004 	add	r3, r3, #4	; 0x4
3000217c:	e5933000 	ldr	r3, [r3]
30002180:	e3833003 	orr	r3, r3, #3	; 0x3
30002184:	e5823000 	str	r3, [r2]
30002188:	e3a02451 	mov	r2, #1358954496	; 0x51000000
3000218c:	e282200c 	add	r2, r2, #12	; 0xc
30002190:	e3a03e27 	mov	r3, #624	; 0x270
30002194:	e2833001 	add	r3, r3, #1	; 0x1
30002198:	e5823000 	str	r3, [r2]
3000219c:	e3a02451 	mov	r2, #1358954496	; 0x51000000
300021a0:	e2822008 	add	r2, r2, #8	; 0x8
300021a4:	e3a03451 	mov	r3, #1358954496	; 0x51000000
300021a8:	e2833008 	add	r3, r3, #8	; 0x8
300021ac:	e5933000 	ldr	r3, [r3]
300021b0:	e3833002 	orr	r3, r3, #2	; 0x2
300021b4:	e5823000 	str	r3, [r2]
300021b8:	e3a02451 	mov	r2, #1358954496	; 0x51000000
300021bc:	e2822008 	add	r2, r2, #8	; 0x8
300021c0:	e3a03451 	mov	r3, #1358954496	; 0x51000000
300021c4:	e2833008 	add	r3, r3, #8	; 0x8
300021c8:	e5933000 	ldr	r3, [r3]
300021cc:	e3c33002 	bic	r3, r3, #2	; 0x2
300021d0:	e5823000 	str	r3, [r2]
300021d4:	e3a02451 	mov	r2, #1358954496	; 0x51000000
300021d8:	e2822008 	add	r2, r2, #8	; 0x8
300021dc:	e3a03451 	mov	r3, #1358954496	; 0x51000000
300021e0:	e2833008 	add	r3, r3, #8	; 0x8
300021e4:	e5933000 	ldr	r3, [r3]
300021e8:	e3833009 	orr	r3, r3, #9	; 0x9
300021ec:	e5823000 	str	r3, [r2]
300021f0:	e3a0000a 	mov	r0, #10	; 0xa
300021f4:	e59f1004 	ldr	r1, [pc, #4]	; 30002200 <.text+0x2200>
300021f8:	ebfff84f 	bl	3000033c <S3C2440_IRQRegister>
300021fc:	e89da800 	ldmia	sp, {fp, sp, pc}
30002200:	3000250c 	andcc	r2, r0, ip, lsl #10

30002204 <S3C2440_TIMER1_Init>:
30002204:	e1a0c00d 	mov	ip, sp
30002208:	e92dd800 	stmdb	sp!, {fp, ip, lr, pc}
3000220c:	e24cb004 	sub	fp, ip, #4	; 0x4
30002210:	e3a02451 	mov	r2, #1358954496	; 0x51000000
30002214:	e3a03451 	mov	r3, #1358954496	; 0x51000000
30002218:	e5933000 	ldr	r3, [r3]
3000221c:	e3c330ff 	bic	r3, r3, #255	; 0xff
30002220:	e5823000 	str	r3, [r2]
30002224:	e3a02451 	mov	r2, #1358954496	; 0x51000000
30002228:	e3a03451 	mov	r3, #1358954496	; 0x51000000
3000222c:	e5933000 	ldr	r3, [r3]
30002230:	e3833031 	orr	r3, r3, #49	; 0x31
30002234:	e5823000 	str	r3, [r2]
30002238:	e3a02451 	mov	r2, #1358954496	; 0x51000000
3000223c:	e2822004 	add	r2, r2, #4	; 0x4
30002240:	e3a03451 	mov	r3, #1358954496	; 0x51000000
30002244:	e2833004 	add	r3, r3, #4	; 0x4
30002248:	e5933000 	ldr	r3, [r3]
3000224c:	e3c330f0 	bic	r3, r3, #240	; 0xf0
30002250:	e5823000 	str	r3, [r2]
30002254:	e3a02451 	mov	r2, #1358954496	; 0x51000000
30002258:	e2822004 	add	r2, r2, #4	; 0x4
3000225c:	e3a03451 	mov	r3, #1358954496	; 0x51000000
30002260:	e2833004 	add	r3, r3, #4	; 0x4
30002264:	e5933000 	ldr	r3, [r3]
30002268:	e3833030 	orr	r3, r3, #48	; 0x30
3000226c:	e5823000 	str	r3, [r2]
30002270:	e3a02451 	mov	r2, #1358954496	; 0x51000000
30002274:	e2822018 	add	r2, r2, #24	; 0x18
30002278:	e3a03d61 	mov	r3, #6208	; 0x1840
3000227c:	e283302a 	add	r3, r3, #42	; 0x2a
30002280:	e5823000 	str	r3, [r2]
30002284:	e3a02451 	mov	r2, #1358954496	; 0x51000000
30002288:	e2822008 	add	r2, r2, #8	; 0x8
3000228c:	e3a03451 	mov	r3, #1358954496	; 0x51000000
30002290:	e2833008 	add	r3, r3, #8	; 0x8
30002294:	e5933000 	ldr	r3, [r3]
30002298:	e3833c02 	orr	r3, r3, #512	; 0x200
3000229c:	e5823000 	str	r3, [r2]
300022a0:	e3a02451 	mov	r2, #1358954496	; 0x51000000
300022a4:	e2822008 	add	r2, r2, #8	; 0x8
300022a8:	e3a03451 	mov	r3, #1358954496	; 0x51000000
300022ac:	e2833008 	add	r3, r3, #8	; 0x8
300022b0:	e5933000 	ldr	r3, [r3]
300022b4:	e3c33c02 	bic	r3, r3, #512	; 0x200
300022b8:	e5823000 	str	r3, [r2]
300022bc:	e3a02451 	mov	r2, #1358954496	; 0x51000000
300022c0:	e2822008 	add	r2, r2, #8	; 0x8
300022c4:	e3a03451 	mov	r3, #1358954496	; 0x51000000
300022c8:	e2833008 	add	r3, r3, #8	; 0x8
300022cc:	e5933000 	ldr	r3, [r3]
300022d0:	e3833c09 	orr	r3, r3, #2304	; 0x900
300022d4:	e5823000 	str	r3, [r2]
300022d8:	e3a0000b 	mov	r0, #11	; 0xb
300022dc:	e59f1004 	ldr	r1, [pc, #4]	; 300022e8 <.text+0x22e8>
300022e0:	ebfff815 	bl	3000033c <S3C2440_IRQRegister>
300022e4:	e89da800 	ldmia	sp, {fp, sp, pc}
300022e8:	3000250c 	andcc	r2, r0, ip, lsl #10

300022ec <S3C2440_TIMER_Register>:
300022ec:	e1a0c00d 	mov	ip, sp
300022f0:	e92dd800 	stmdb	sp!, {fp, ip, lr, pc}
300022f4:	e24cb004 	sub	fp, ip, #4	; 0x4
300022f8:	e24dd014 	sub	sp, sp, #20	; 0x14
300022fc:	e50b0010 	str	r0, [fp, #-16]
30002300:	e1a03001 	mov	r3, r1
30002304:	e50b2018 	str	r2, [fp, #-24]
30002308:	e54b3011 	strb	r3, [fp, #-17]
3000230c:	e3a03000 	mov	r3, #0	; 0x0
30002310:	e50b301c 	str	r3, [fp, #-28]
30002314:	e51b301c 	ldr	r3, [fp, #-28]
30002318:	e353001f 	cmp	r3, #31	; 0x1f
3000231c:	ca000031 	bgt	300023e8 <S3C2440_TIMER_Register+0xfc>
30002320:	e59f10d4 	ldr	r1, [pc, #212]	; 300023fc <.text+0x23fc>
30002324:	e51b201c 	ldr	r2, [fp, #-28]
30002328:	e3a00008 	mov	r0, #8	; 0x8
3000232c:	e1a03002 	mov	r3, r2
30002330:	e1a03083 	mov	r3, r3, lsl #1
30002334:	e0833002 	add	r3, r3, r2
30002338:	e1a03103 	mov	r3, r3, lsl #2
3000233c:	e0833001 	add	r3, r3, r1
30002340:	e0833000 	add	r3, r3, r0
30002344:	e5933000 	ldr	r3, [r3]
30002348:	e3530000 	cmp	r3, #0	; 0x0
3000234c:	1a000021 	bne	300023d8 <S3C2440_TIMER_Register+0xec>
30002350:	e59f10a4 	ldr	r1, [pc, #164]	; 300023fc <.text+0x23fc>
30002354:	e51b201c 	ldr	r2, [fp, #-28]
30002358:	e1a03002 	mov	r3, r2
3000235c:	e1a03083 	mov	r3, r3, lsl #1
30002360:	e0833002 	add	r3, r3, r2
30002364:	e1a03103 	mov	r3, r3, lsl #2
30002368:	e0832001 	add	r2, r3, r1
3000236c:	e51b3010 	ldr	r3, [fp, #-16]
30002370:	e5823000 	str	r3, [r2]
30002374:	e59f1080 	ldr	r1, [pc, #128]	; 300023fc <.text+0x23fc>
30002378:	e51b201c 	ldr	r2, [fp, #-28]
3000237c:	e3a00004 	mov	r0, #4	; 0x4
30002380:	e1a03002 	mov	r3, r2
30002384:	e1a03083 	mov	r3, r3, lsl #1
30002388:	e0833002 	add	r3, r3, r2
3000238c:	e1a03103 	mov	r3, r3, lsl #2
30002390:	e0833001 	add	r3, r3, r1
30002394:	e0832000 	add	r2, r3, r0
30002398:	e55b3011 	ldrb	r3, [fp, #-17]
3000239c:	e5c23000 	strb	r3, [r2]
300023a0:	e59f1054 	ldr	r1, [pc, #84]	; 300023fc <.text+0x23fc>
300023a4:	e51b201c 	ldr	r2, [fp, #-28]
300023a8:	e3a00008 	mov	r0, #8	; 0x8
300023ac:	e1a03002 	mov	r3, r2
300023b0:	e1a03083 	mov	r3, r3, lsl #1
300023b4:	e0833002 	add	r3, r3, r2
300023b8:	e1a03103 	mov	r3, r3, lsl #2
300023bc:	e0833001 	add	r3, r3, r1
300023c0:	e0832000 	add	r2, r3, r0
300023c4:	e51b3018 	ldr	r3, [fp, #-24]
300023c8:	e5823000 	str	r3, [r2]
300023cc:	e3a03000 	mov	r3, #0	; 0x0
300023d0:	e50b3020 	str	r3, [fp, #-32]
300023d4:	ea000005 	b	300023f0 <S3C2440_TIMER_Register+0x104>
300023d8:	e51b301c 	ldr	r3, [fp, #-28]
300023dc:	e2833001 	add	r3, r3, #1	; 0x1
300023e0:	e50b301c 	str	r3, [fp, #-28]
300023e4:	eaffffca 	b	30002314 <S3C2440_TIMER_Register+0x28>
300023e8:	e3e03000 	mvn	r3, #0	; 0x0
300023ec:	e50b3020 	str	r3, [fp, #-32]
300023f0:	e51b0020 	ldr	r0, [fp, #-32]
300023f4:	e24bd00c 	sub	sp, fp, #12	; 0xc
300023f8:	e89da800 	ldmia	sp, {fp, sp, pc}
300023fc:	3000ce8c 	andcc	ip, r0, ip, lsl #29

30002400 <S3C2440_TIMER_Unregister>:
30002400:	e1a0c00d 	mov	ip, sp
30002404:	e92dd800 	stmdb	sp!, {fp, ip, lr, pc}
30002408:	e24cb004 	sub	fp, ip, #4	; 0x4
3000240c:	e24dd00c 	sub	sp, sp, #12	; 0xc
30002410:	e50b0010 	str	r0, [fp, #-16]
30002414:	e3a03000 	mov	r3, #0	; 0x0
30002418:	e50b3014 	str	r3, [fp, #-20]
3000241c:	e51b3014 	ldr	r3, [fp, #-20]
30002420:	e353001f 	cmp	r3, #31	; 0x1f
30002424:	ca000032 	bgt	300024f4 <S3C2440_TIMER_Unregister+0xf4>
30002428:	e59f10d8 	ldr	r1, [pc, #216]	; 30002508 <.text+0x2508>
3000242c:	e51b2014 	ldr	r2, [fp, #-20]
30002430:	e1a03002 	mov	r3, r2
30002434:	e1a03083 	mov	r3, r3, lsl #1
30002438:	e0833002 	add	r3, r3, r2
3000243c:	e1a03103 	mov	r3, r3, lsl #2
30002440:	e0833001 	add	r3, r3, r1
30002444:	e5930000 	ldr	r0, [r3]
30002448:	e51b1010 	ldr	r1, [fp, #-16]
3000244c:	eb001627 	bl	30007cf0 <strcmp>
30002450:	e1a03000 	mov	r3, r0
30002454:	e3530000 	cmp	r3, #0	; 0x0
30002458:	1a000021 	bne	300024e4 <S3C2440_TIMER_Unregister+0xe4>
3000245c:	e59f10a4 	ldr	r1, [pc, #164]	; 30002508 <.text+0x2508>
30002460:	e51b2014 	ldr	r2, [fp, #-20]
30002464:	e1a03002 	mov	r3, r2
30002468:	e1a03083 	mov	r3, r3, lsl #1
3000246c:	e0833002 	add	r3, r3, r2
30002470:	e1a03103 	mov	r3, r3, lsl #2
30002474:	e0832001 	add	r2, r3, r1
30002478:	e3a03000 	mov	r3, #0	; 0x0
3000247c:	e5823000 	str	r3, [r2]
30002480:	e59f1080 	ldr	r1, [pc, #128]	; 30002508 <.text+0x2508>
30002484:	e51b2014 	ldr	r2, [fp, #-20]
30002488:	e3a00004 	mov	r0, #4	; 0x4
3000248c:	e1a03002 	mov	r3, r2
30002490:	e1a03083 	mov	r3, r3, lsl #1
30002494:	e0833002 	add	r3, r3, r2
30002498:	e1a03103 	mov	r3, r3, lsl #2
3000249c:	e0833001 	add	r3, r3, r1
300024a0:	e0832000 	add	r2, r3, r0
300024a4:	e3a03000 	mov	r3, #0	; 0x0
300024a8:	e5c23000 	strb	r3, [r2]
300024ac:	e59f1054 	ldr	r1, [pc, #84]	; 30002508 <.text+0x2508>
300024b0:	e51b2014 	ldr	r2, [fp, #-20]
300024b4:	e3a00008 	mov	r0, #8	; 0x8
300024b8:	e1a03002 	mov	r3, r2
300024bc:	e1a03083 	mov	r3, r3, lsl #1
300024c0:	e0833002 	add	r3, r3, r2
300024c4:	e1a03103 	mov	r3, r3, lsl #2
300024c8:	e0833001 	add	r3, r3, r1
300024cc:	e0832000 	add	r2, r3, r0
300024d0:	e3a03000 	mov	r3, #0	; 0x0
300024d4:	e5823000 	str	r3, [r2]
300024d8:	e3a03000 	mov	r3, #0	; 0x0
300024dc:	e50b3018 	str	r3, [fp, #-24]
300024e0:	ea000005 	b	300024fc <S3C2440_TIMER_Unregister+0xfc>
300024e4:	e51b3014 	ldr	r3, [fp, #-20]
300024e8:	e2833001 	add	r3, r3, #1	; 0x1
300024ec:	e50b3014 	str	r3, [fp, #-20]
300024f0:	eaffffc9 	b	3000241c <S3C2440_TIMER_Unregister+0x1c>
300024f4:	e3e03000 	mvn	r3, #0	; 0x0
300024f8:	e50b3018 	str	r3, [fp, #-24]
300024fc:	e51b0018 	ldr	r0, [fp, #-24]
30002500:	e24bd00c 	sub	sp, fp, #12	; 0xc
30002504:	e89da800 	ldmia	sp, {fp, sp, pc}
30002508:	3000ce8c 	andcc	ip, r0, ip, lsl #29

3000250c <S3C2440_TIMER_Irq>:
3000250c:	e1a0c00d 	mov	ip, sp
30002510:	e92dd800 	stmdb	sp!, {fp, ip, lr, pc}
30002514:	e24cb004 	sub	fp, ip, #4	; 0x4
30002518:	e24dd008 	sub	sp, sp, #8	; 0x8
3000251c:	e50b0010 	str	r0, [fp, #-16]
30002520:	e3a03000 	mov	r3, #0	; 0x0
30002524:	e50b3014 	str	r3, [fp, #-20]
30002528:	e51b3014 	ldr	r3, [fp, #-20]
3000252c:	e353001f 	cmp	r3, #31	; 0x1f
30002530:	ca000028 	bgt	300025d8 <S3C2440_TIMER_Irq+0xcc>
30002534:	e59f10a4 	ldr	r1, [pc, #164]	; 300025e0 <.text+0x25e0>
30002538:	e51b2014 	ldr	r2, [fp, #-20]
3000253c:	e3a00008 	mov	r0, #8	; 0x8
30002540:	e1a03002 	mov	r3, r2
30002544:	e1a03083 	mov	r3, r3, lsl #1
30002548:	e0833002 	add	r3, r3, r2
3000254c:	e1a03103 	mov	r3, r3, lsl #2
30002550:	e0833001 	add	r3, r3, r1
30002554:	e0833000 	add	r3, r3, r0
30002558:	e5933000 	ldr	r3, [r3]
3000255c:	e3530000 	cmp	r3, #0	; 0x0
30002560:	0a000018 	beq	300025c8 <S3C2440_TIMER_Irq+0xbc>
30002564:	e59f1074 	ldr	r1, [pc, #116]	; 300025e0 <.text+0x25e0>
30002568:	e51b2014 	ldr	r2, [fp, #-20]
3000256c:	e3a00004 	mov	r0, #4	; 0x4
30002570:	e1a03002 	mov	r3, r2
30002574:	e1a03083 	mov	r3, r3, lsl #1
30002578:	e0833002 	add	r3, r3, r2
3000257c:	e1a03103 	mov	r3, r3, lsl #2
30002580:	e0833001 	add	r3, r3, r1
30002584:	e0833000 	add	r3, r3, r0
30002588:	e5d32000 	ldrb	r2, [r3]
3000258c:	e51b3010 	ldr	r3, [fp, #-16]
30002590:	e1520003 	cmp	r2, r3
30002594:	1a00000b 	bne	300025c8 <S3C2440_TIMER_Irq+0xbc>
30002598:	e59f1040 	ldr	r1, [pc, #64]	; 300025e0 <.text+0x25e0>
3000259c:	e51b2014 	ldr	r2, [fp, #-20]
300025a0:	e3a00008 	mov	r0, #8	; 0x8
300025a4:	e1a03002 	mov	r3, r2
300025a8:	e1a03083 	mov	r3, r3, lsl #1
300025ac:	e0833002 	add	r3, r3, r2
300025b0:	e1a03103 	mov	r3, r3, lsl #2
300025b4:	e0833001 	add	r3, r3, r1
300025b8:	e0833000 	add	r3, r3, r0
300025bc:	e5933000 	ldr	r3, [r3]
300025c0:	e1a0e00f 	mov	lr, pc
300025c4:	e1a0f003 	mov	pc, r3
300025c8:	e51b3014 	ldr	r3, [fp, #-20]
300025cc:	e2833001 	add	r3, r3, #1	; 0x1
300025d0:	e50b3014 	str	r3, [fp, #-20]
300025d4:	eaffffd3 	b	30002528 <S3C2440_TIMER_Irq+0x1c>
300025d8:	e24bd00c 	sub	sp, fp, #12	; 0xc
300025dc:	e89da800 	ldmia	sp, {fp, sp, pc}
300025e0:	3000ce8c 	andcc	ip, r0, ip, lsl #29

300025e4 <S3C2440_TIMER0_LED_Irq_Demo>:
300025e4:	e1a0c00d 	mov	ip, sp
300025e8:	e92dd800 	stmdb	sp!, {fp, ip, lr, pc}
300025ec:	e24cb004 	sub	fp, ip, #4	; 0x4
300025f0:	e59f20dc 	ldr	r2, [pc, #220]	; 300026d4 <.text+0x26d4>
300025f4:	e5d21000 	ldrb	r1, [r2]
300025f8:	e2813001 	add	r3, r1, #1	; 0x1
300025fc:	e5c23000 	strb	r3, [r2]
30002600:	e20130ff 	and	r3, r1, #255	; 0xff
30002604:	e3530031 	cmp	r3, #49	; 0x31
30002608:	8a000000 	bhi	30002610 <S3C2440_TIMER0_LED_Irq_Demo+0x2c>
3000260c:	ea00002f 	b	300026d0 <S3C2440_TIMER0_LED_Irq_Demo+0xec>
30002610:	e59f20bc 	ldr	r2, [pc, #188]	; 300026d4 <.text+0x26d4>
30002614:	e3a03000 	mov	r3, #0	; 0x0
30002618:	e5c23000 	strb	r3, [r2]
3000261c:	e59f20b4 	ldr	r2, [pc, #180]	; 300026d8 <.text+0x26d8>
30002620:	e59f30b0 	ldr	r3, [pc, #176]	; 300026d8 <.text+0x26d8>
30002624:	e5d33000 	ldrb	r3, [r3]
30002628:	e2833001 	add	r3, r3, #1	; 0x1
3000262c:	e5c23000 	strb	r3, [r2]
30002630:	e59f30a0 	ldr	r3, [pc, #160]	; 300026d8 <.text+0x26d8>
30002634:	e5d33000 	ldrb	r3, [r3]
30002638:	e2033001 	and	r3, r3, #1	; 0x1
3000263c:	e3530000 	cmp	r3, #0	; 0x0
30002640:	0a000007 	beq	30002664 <S3C2440_TIMER0_LED_Irq_Demo+0x80>
30002644:	e3a02456 	mov	r2, #1442840576	; 0x56000000
30002648:	e2822054 	add	r2, r2, #84	; 0x54
3000264c:	e3a03456 	mov	r3, #1442840576	; 0x56000000
30002650:	e2833054 	add	r3, r3, #84	; 0x54
30002654:	e5933000 	ldr	r3, [r3]
30002658:	e3c33010 	bic	r3, r3, #16	; 0x10
3000265c:	e5823000 	str	r3, [r2]
30002660:	ea000006 	b	30002680 <S3C2440_TIMER0_LED_Irq_Demo+0x9c>
30002664:	e3a02456 	mov	r2, #1442840576	; 0x56000000
30002668:	e2822054 	add	r2, r2, #84	; 0x54
3000266c:	e3a03456 	mov	r3, #1442840576	; 0x56000000
30002670:	e2833054 	add	r3, r3, #84	; 0x54
30002674:	e5933000 	ldr	r3, [r3]
30002678:	e3833010 	orr	r3, r3, #16	; 0x10
3000267c:	e5823000 	str	r3, [r2]
30002680:	e59f3050 	ldr	r3, [pc, #80]	; 300026d8 <.text+0x26d8>
30002684:	e5d33000 	ldrb	r3, [r3]
30002688:	e2033002 	and	r3, r3, #2	; 0x2
3000268c:	e3530000 	cmp	r3, #0	; 0x0
30002690:	0a000007 	beq	300026b4 <S3C2440_TIMER0_LED_Irq_Demo+0xd0>
30002694:	e3a02456 	mov	r2, #1442840576	; 0x56000000
30002698:	e2822054 	add	r2, r2, #84	; 0x54
3000269c:	e3a03456 	mov	r3, #1442840576	; 0x56000000
300026a0:	e2833054 	add	r3, r3, #84	; 0x54
300026a4:	e5933000 	ldr	r3, [r3]
300026a8:	e3c33020 	bic	r3, r3, #32	; 0x20
300026ac:	e5823000 	str	r3, [r2]
300026b0:	ea000006 	b	300026d0 <S3C2440_TIMER0_LED_Irq_Demo+0xec>
300026b4:	e3a02456 	mov	r2, #1442840576	; 0x56000000
300026b8:	e2822054 	add	r2, r2, #84	; 0x54
300026bc:	e3a03456 	mov	r3, #1442840576	; 0x56000000
300026c0:	e2833054 	add	r3, r3, #84	; 0x54
300026c4:	e5933000 	ldr	r3, [r3]
300026c8:	e3833020 	orr	r3, r3, #32	; 0x20
300026cc:	e5823000 	str	r3, [r2]
300026d0:	e89da800 	ldmia	sp, {fp, sp, pc}
300026d4:	3000cc1d 	andcc	ip, r0, sp, lsl ip
300026d8:	3000cc1c 	andcc	ip, r0, ip, lsl ip

300026dc <S3C2440_TIMER1_LED_Irq_Demo>:
300026dc:	e1a0c00d 	mov	ip, sp
300026e0:	e92dd800 	stmdb	sp!, {fp, ip, lr, pc}
300026e4:	e24cb004 	sub	fp, ip, #4	; 0x4
300026e8:	e59f208c 	ldr	r2, [pc, #140]	; 3000277c <.text+0x277c>
300026ec:	e5d21000 	ldrb	r1, [r2]
300026f0:	e2813001 	add	r3, r1, #1	; 0x1
300026f4:	e5c23000 	strb	r3, [r2]
300026f8:	e20130ff 	and	r3, r1, #255	; 0xff
300026fc:	e3530001 	cmp	r3, #1	; 0x1
30002700:	8a000000 	bhi	30002708 <S3C2440_TIMER1_LED_Irq_Demo+0x2c>
30002704:	ea00001b 	b	30002778 <S3C2440_TIMER1_LED_Irq_Demo+0x9c>
30002708:	e59f206c 	ldr	r2, [pc, #108]	; 3000277c <.text+0x277c>
3000270c:	e3a03000 	mov	r3, #0	; 0x0
30002710:	e5c23000 	strb	r3, [r2]
30002714:	e59f2064 	ldr	r2, [pc, #100]	; 30002780 <.text+0x2780>
30002718:	e59f3060 	ldr	r3, [pc, #96]	; 30002780 <.text+0x2780>
3000271c:	e5d33000 	ldrb	r3, [r3]
30002720:	e2833001 	add	r3, r3, #1	; 0x1
30002724:	e5c23000 	strb	r3, [r2]
30002728:	e59f3050 	ldr	r3, [pc, #80]	; 30002780 <.text+0x2780>
3000272c:	e5d33000 	ldrb	r3, [r3]
30002730:	e2033001 	and	r3, r3, #1	; 0x1
30002734:	e3530000 	cmp	r3, #0	; 0x0
30002738:	0a000007 	beq	3000275c <S3C2440_TIMER1_LED_Irq_Demo+0x80>
3000273c:	e3a02456 	mov	r2, #1442840576	; 0x56000000
30002740:	e2822054 	add	r2, r2, #84	; 0x54
30002744:	e3a03456 	mov	r3, #1442840576	; 0x56000000
30002748:	e2833054 	add	r3, r3, #84	; 0x54
3000274c:	e5933000 	ldr	r3, [r3]
30002750:	e3c33040 	bic	r3, r3, #64	; 0x40
30002754:	e5823000 	str	r3, [r2]
30002758:	ea000006 	b	30002778 <S3C2440_TIMER1_LED_Irq_Demo+0x9c>
3000275c:	e3a02456 	mov	r2, #1442840576	; 0x56000000
30002760:	e2822054 	add	r2, r2, #84	; 0x54
30002764:	e3a03456 	mov	r3, #1442840576	; 0x56000000
30002768:	e2833054 	add	r3, r3, #84	; 0x54
3000276c:	e5933000 	ldr	r3, [r3]
30002770:	e3833040 	orr	r3, r3, #64	; 0x40
30002774:	e5823000 	str	r3, [r2]
30002778:	e89da800 	ldmia	sp, {fp, sp, pc}
3000277c:	3000cc1f 	andcc	ip, r0, pc, lsl ip
30002780:	3000cc1e 	andcc	ip, r0, lr, lsl ip

30002784 <LCD_Font_Print_char>:
30002784:	e1a0c00d 	mov	ip, sp
30002788:	e92dd800 	stmdb	sp!, {fp, ip, lr, pc}
3000278c:	e24cb004 	sub	fp, ip, #4	; 0x4
30002790:	e24dd024 	sub	sp, sp, #36	; 0x24
30002794:	e50b0010 	str	r0, [fp, #-16]
30002798:	e50b1014 	str	r1, [fp, #-20]
3000279c:	e50b301c 	str	r3, [fp, #-28]
300027a0:	e1a03002 	mov	r3, r2
300027a4:	e54b3015 	strb	r3, [fp, #-21]
300027a8:	e55b3015 	ldrb	r3, [fp, #-21]
300027ac:	e1a02203 	mov	r2, r3, lsl #4
300027b0:	e59f30b8 	ldr	r3, [pc, #184]	; 30002870 <.text+0x2870>
300027b4:	e0823003 	add	r3, r2, r3
300027b8:	e50b3020 	str	r3, [fp, #-32]
300027bc:	e51b3014 	ldr	r3, [fp, #-20]
300027c0:	e50b302c 	str	r3, [fp, #-44]
300027c4:	e51b3014 	ldr	r3, [fp, #-20]
300027c8:	e2832010 	add	r2, r3, #16	; 0x10
300027cc:	e51b302c 	ldr	r3, [fp, #-44]
300027d0:	e1520003 	cmp	r2, r3
300027d4:	da000023 	ble	30002868 <LCD_Font_Print_char+0xe4>
300027d8:	e24b2020 	sub	r2, fp, #32	; 0x20
300027dc:	e5923000 	ldr	r3, [r2]
300027e0:	e5d31000 	ldrb	r1, [r3]
300027e4:	e2833001 	add	r3, r3, #1	; 0x1
300027e8:	e5823000 	str	r3, [r2]
300027ec:	e54b1021 	strb	r1, [fp, #-33]
300027f0:	e3a03007 	mov	r3, #7	; 0x7
300027f4:	e50b3028 	str	r3, [fp, #-40]
300027f8:	e51b3010 	ldr	r3, [fp, #-16]
300027fc:	e50b3030 	str	r3, [fp, #-48]
30002800:	e51b3010 	ldr	r3, [fp, #-16]
30002804:	e2832008 	add	r2, r3, #8	; 0x8
30002808:	e51b3030 	ldr	r3, [fp, #-48]
3000280c:	e1520003 	cmp	r2, r3
30002810:	da000010 	ble	30002858 <LCD_Font_Print_char+0xd4>
30002814:	e55b2021 	ldrb	r2, [fp, #-33]
30002818:	e51b3028 	ldr	r3, [fp, #-40]
3000281c:	e1a03352 	mov	r3, r2, asr r3
30002820:	e2033001 	and	r3, r3, #1	; 0x1
30002824:	e3530000 	cmp	r3, #0	; 0x0
30002828:	0a000003 	beq	3000283c <LCD_Font_Print_char+0xb8>
3000282c:	e51b0030 	ldr	r0, [fp, #-48]
30002830:	e51b102c 	ldr	r1, [fp, #-44]
30002834:	e51b201c 	ldr	r2, [fp, #-28]
30002838:	eb000074 	bl	30002a10 <LCD_FrameBuffer_Pixel>
3000283c:	e51b3028 	ldr	r3, [fp, #-40]
30002840:	e2433001 	sub	r3, r3, #1	; 0x1
30002844:	e50b3028 	str	r3, [fp, #-40]
30002848:	e51b3030 	ldr	r3, [fp, #-48]
3000284c:	e2833001 	add	r3, r3, #1	; 0x1
30002850:	e50b3030 	str	r3, [fp, #-48]
30002854:	eaffffe9 	b	30002800 <LCD_Font_Print_char+0x7c>
30002858:	e51b302c 	ldr	r3, [fp, #-44]
3000285c:	e2833001 	add	r3, r3, #1	; 0x1
30002860:	e50b302c 	str	r3, [fp, #-44]
30002864:	eaffffd6 	b	300027c4 <LCD_Font_Print_char+0x40>
30002868:	e24bd00c 	sub	sp, fp, #12	; 0xc
3000286c:	e89da800 	ldmia	sp, {fp, sp, pc}
30002870:	3000b480 	andcc	fp, r0, r0, lsl #9

30002874 <LCD_Font_Print_string>:
30002874:	e1a0c00d 	mov	ip, sp
30002878:	e92dd800 	stmdb	sp!, {fp, ip, lr, pc}
3000287c:	e24cb004 	sub	fp, ip, #4	; 0x4
30002880:	e24dd014 	sub	sp, sp, #20	; 0x14
30002884:	e50b0010 	str	r0, [fp, #-16]
30002888:	e50b1014 	str	r1, [fp, #-20]
3000288c:	e50b2018 	str	r2, [fp, #-24]
30002890:	e50b301c 	str	r3, [fp, #-28]
30002894:	e3a03000 	mov	r3, #0	; 0x0
30002898:	e50b3020 	str	r3, [fp, #-32]
3000289c:	e51b2018 	ldr	r2, [fp, #-24]
300028a0:	e51b3020 	ldr	r3, [fp, #-32]
300028a4:	e0823003 	add	r3, r2, r3
300028a8:	e5d33000 	ldrb	r3, [r3]
300028ac:	e3530000 	cmp	r3, #0	; 0x0
300028b0:	0a00002c 	beq	30002968 <LCD_Font_Print_string+0xf4>
300028b4:	e51b2018 	ldr	r2, [fp, #-24]
300028b8:	e51b3020 	ldr	r3, [fp, #-32]
300028bc:	e0823003 	add	r3, r2, r3
300028c0:	e5d33000 	ldrb	r3, [r3]
300028c4:	e353000a 	cmp	r3, #10	; 0xa
300028c8:	1a000003 	bne	300028dc <LCD_Font_Print_string+0x68>
300028cc:	e51b3014 	ldr	r3, [fp, #-20]
300028d0:	e2833010 	add	r3, r3, #16	; 0x10
300028d4:	e50b3014 	str	r3, [fp, #-20]
300028d8:	ea00001e 	b	30002958 <LCD_Font_Print_string+0xe4>
300028dc:	e51b2018 	ldr	r2, [fp, #-24]
300028e0:	e51b3020 	ldr	r3, [fp, #-32]
300028e4:	e0823003 	add	r3, r2, r3
300028e8:	e5d33000 	ldrb	r3, [r3]
300028ec:	e353000d 	cmp	r3, #13	; 0xd
300028f0:	1a000002 	bne	30002900 <LCD_Font_Print_string+0x8c>
300028f4:	e3a03000 	mov	r3, #0	; 0x0
300028f8:	e50b3010 	str	r3, [fp, #-16]
300028fc:	ea000015 	b	30002958 <LCD_Font_Print_string+0xe4>
30002900:	e51b2018 	ldr	r2, [fp, #-24]
30002904:	e51b3020 	ldr	r3, [fp, #-32]
30002908:	e0823003 	add	r3, r2, r3
3000290c:	e5d33000 	ldrb	r3, [r3]
30002910:	e51b0010 	ldr	r0, [fp, #-16]
30002914:	e51b1014 	ldr	r1, [fp, #-20]
30002918:	e1a02003 	mov	r2, r3
3000291c:	e51b301c 	ldr	r3, [fp, #-28]
30002920:	ebffff97 	bl	30002784 <LCD_Font_Print_char>
30002924:	e51b3010 	ldr	r3, [fp, #-16]
30002928:	e2833008 	add	r3, r3, #8	; 0x8
3000292c:	e50b3010 	str	r3, [fp, #-16]
30002930:	e59f3038 	ldr	r3, [pc, #56]	; 30002970 <.text+0x2970>
30002934:	e5932000 	ldr	r2, [r3]
30002938:	e51b3010 	ldr	r3, [fp, #-16]
3000293c:	e1520003 	cmp	r2, r3
30002940:	ca000004 	bgt	30002958 <LCD_Font_Print_string+0xe4>
30002944:	e3a03000 	mov	r3, #0	; 0x0
30002948:	e50b3010 	str	r3, [fp, #-16]
3000294c:	e51b3014 	ldr	r3, [fp, #-20]
30002950:	e2833010 	add	r3, r3, #16	; 0x10
30002954:	e50b3014 	str	r3, [fp, #-20]
30002958:	e51b3020 	ldr	r3, [fp, #-32]
3000295c:	e2833001 	add	r3, r3, #1	; 0x1
30002960:	e50b3020 	str	r3, [fp, #-32]
30002964:	eaffffcc 	b	3000289c <LCD_Font_Print_string+0x28>
30002968:	e24bd00c 	sub	sp, fp, #12	; 0xc
3000296c:	e89da800 	ldmia	sp, {fp, sp, pc}
30002970:	3000d00c 	andcc	sp, r0, ip

30002974 <conver32bppto16bpp>:
30002974:	e1a0c00d 	mov	ip, sp
30002978:	e92dd800 	stmdb	sp!, {fp, ip, lr, pc}
3000297c:	e24cb004 	sub	fp, ip, #4	; 0x4
30002980:	e24dd010 	sub	sp, sp, #16	; 0x10
30002984:	e50b0010 	str	r0, [fp, #-16]
30002988:	e51b3010 	ldr	r3, [fp, #-16]
3000298c:	e1a03823 	mov	r3, r3, lsr #16
30002990:	e20330ff 	and	r3, r3, #255	; 0xff
30002994:	e50b3014 	str	r3, [fp, #-20]
30002998:	e51b3010 	ldr	r3, [fp, #-16]
3000299c:	e1a03423 	mov	r3, r3, lsr #8
300029a0:	e20330ff 	and	r3, r3, #255	; 0xff
300029a4:	e50b3018 	str	r3, [fp, #-24]
300029a8:	e51b3010 	ldr	r3, [fp, #-16]
300029ac:	e20330ff 	and	r3, r3, #255	; 0xff
300029b0:	e50b301c 	str	r3, [fp, #-28]
300029b4:	e51b3014 	ldr	r3, [fp, #-20]
300029b8:	e1a031c3 	mov	r3, r3, asr #3
300029bc:	e50b3014 	str	r3, [fp, #-20]
300029c0:	e51b3018 	ldr	r3, [fp, #-24]
300029c4:	e1a03143 	mov	r3, r3, asr #2
300029c8:	e50b3018 	str	r3, [fp, #-24]
300029cc:	e51b301c 	ldr	r3, [fp, #-28]
300029d0:	e1a031c3 	mov	r3, r3, asr #3
300029d4:	e50b301c 	str	r3, [fp, #-28]
300029d8:	e51b3014 	ldr	r3, [fp, #-20]
300029dc:	e1a02583 	mov	r2, r3, lsl #11
300029e0:	e51b3018 	ldr	r3, [fp, #-24]
300029e4:	e1a03283 	mov	r3, r3, lsl #5
300029e8:	e1823003 	orr	r3, r2, r3
300029ec:	e51b201c 	ldr	r2, [fp, #-28]
300029f0:	e1a01003 	mov	r1, r3
300029f4:	e1a03002 	mov	r3, r2
300029f8:	e1813003 	orr	r3, r1, r3
300029fc:	e1a03803 	mov	r3, r3, lsl #16
30002a00:	e1a03823 	mov	r3, r3, lsr #16
30002a04:	e1a00003 	mov	r0, r3
30002a08:	e24bd00c 	sub	sp, fp, #12	; 0xc
30002a0c:	e89da800 	ldmia	sp, {fp, sp, pc}

30002a10 <LCD_FrameBuffer_Pixel>:
30002a10:	e1a0c00d 	mov	ip, sp
30002a14:	e92dd800 	stmdb	sp!, {fp, ip, lr, pc}
30002a18:	e24cb004 	sub	fp, ip, #4	; 0x4
30002a1c:	e24dd020 	sub	sp, sp, #32	; 0x20
30002a20:	e50b0010 	str	r0, [fp, #-16]
30002a24:	e50b1014 	str	r1, [fp, #-20]
30002a28:	e50b2018 	str	r2, [fp, #-24]
30002a2c:	e59f00f0 	ldr	r0, [pc, #240]	; 30002b24 <.text+0x2b24>
30002a30:	e59f30ec 	ldr	r3, [pc, #236]	; 30002b24 <.text+0x2b24>
30002a34:	e59f20e8 	ldr	r2, [pc, #232]	; 30002b24 <.text+0x2b24>
30002a38:	e5931000 	ldr	r1, [r3]
30002a3c:	e5923008 	ldr	r3, [r2, #8]
30002a40:	e0020193 	mul	r2, r3, r1
30002a44:	e1a03fc2 	mov	r3, r2, asr #31
30002a48:	e1a03ea3 	mov	r3, r3, lsr #29
30002a4c:	e0823003 	add	r3, r2, r3
30002a50:	e1a021c3 	mov	r2, r3, asr #3
30002a54:	e51b3014 	ldr	r3, [fp, #-20]
30002a58:	e0020293 	mul	r2, r3, r2
30002a5c:	e590300c 	ldr	r3, [r0, #12]
30002a60:	e0821003 	add	r1, r2, r3
30002a64:	e59f30b8 	ldr	r3, [pc, #184]	; 30002b24 <.text+0x2b24>
30002a68:	e5932008 	ldr	r2, [r3, #8]
30002a6c:	e51b3010 	ldr	r3, [fp, #-16]
30002a70:	e0020293 	mul	r2, r3, r2
30002a74:	e1a03fc2 	mov	r3, r2, asr #31
30002a78:	e1a03ea3 	mov	r3, r3, lsr #29
30002a7c:	e0823003 	add	r3, r2, r3
30002a80:	e1a031c3 	mov	r3, r3, asr #3
30002a84:	e0813003 	add	r3, r1, r3
30002a88:	e50b3028 	str	r3, [fp, #-40]
30002a8c:	e59f3090 	ldr	r3, [pc, #144]	; 30002b24 <.text+0x2b24>
30002a90:	e5933008 	ldr	r3, [r3, #8]
30002a94:	e50b302c 	str	r3, [fp, #-44]
30002a98:	e51b302c 	ldr	r3, [fp, #-44]
30002a9c:	e3530010 	cmp	r3, #16	; 0x10
30002aa0:	0a000010 	beq	30002ae8 <LCD_FrameBuffer_Pixel+0xd8>
30002aa4:	e51b302c 	ldr	r3, [fp, #-44]
30002aa8:	e3530010 	cmp	r3, #16	; 0x10
30002aac:	ca000003 	bgt	30002ac0 <LCD_FrameBuffer_Pixel+0xb0>
30002ab0:	e51b302c 	ldr	r3, [fp, #-44]
30002ab4:	e3530008 	cmp	r3, #8	; 0x8
30002ab8:	0a000004 	beq	30002ad0 <LCD_FrameBuffer_Pixel+0xc0>
30002abc:	ea000016 	b	30002b1c <LCD_FrameBuffer_Pixel+0x10c>
30002ac0:	e51b302c 	ldr	r3, [fp, #-44]
30002ac4:	e3530020 	cmp	r3, #32	; 0x20
30002ac8:	0a00000e 	beq	30002b08 <LCD_FrameBuffer_Pixel+0xf8>
30002acc:	ea000012 	b	30002b1c <LCD_FrameBuffer_Pixel+0x10c>
30002ad0:	e51b3028 	ldr	r3, [fp, #-40]
30002ad4:	e50b301c 	str	r3, [fp, #-28]
30002ad8:	e51b201c 	ldr	r2, [fp, #-28]
30002adc:	e51b3018 	ldr	r3, [fp, #-24]
30002ae0:	e5c23000 	strb	r3, [r2]
30002ae4:	ea00000c 	b	30002b1c <LCD_FrameBuffer_Pixel+0x10c>
30002ae8:	e51b3028 	ldr	r3, [fp, #-40]
30002aec:	e50b3020 	str	r3, [fp, #-32]
30002af0:	e51b0018 	ldr	r0, [fp, #-24]
30002af4:	ebffff9e 	bl	30002974 <conver32bppto16bpp>
30002af8:	e1a02000 	mov	r2, r0
30002afc:	e51b3020 	ldr	r3, [fp, #-32]
30002b00:	e1c320b0 	strh	r2, [r3]
30002b04:	ea000004 	b	30002b1c <LCD_FrameBuffer_Pixel+0x10c>
30002b08:	e51b3028 	ldr	r3, [fp, #-40]
30002b0c:	e50b3024 	str	r3, [fp, #-36]
30002b10:	e51b2024 	ldr	r2, [fp, #-36]
30002b14:	e51b3018 	ldr	r3, [fp, #-24]
30002b18:	e5823000 	str	r3, [r2]
30002b1c:	e24bd00c 	sub	sp, fp, #12	; 0xc
30002b20:	e89da800 	ldmia	sp, {fp, sp, pc}
30002b24:	3000d00c 	andcc	sp, r0, ip

30002b28 <LCD_Geometry_ClearScr>:
30002b28:	e1a0c00d 	mov	ip, sp
30002b2c:	e92dd800 	stmdb	sp!, {fp, ip, lr, pc}
30002b30:	e24cb004 	sub	fp, ip, #4	; 0x4
30002b34:	e24dd00c 	sub	sp, sp, #12	; 0xc
30002b38:	e50b0010 	str	r0, [fp, #-16]
30002b3c:	e3a03000 	mov	r3, #0	; 0x0
30002b40:	e50b3014 	str	r3, [fp, #-20]
30002b44:	e59f3060 	ldr	r3, [pc, #96]	; 30002bac <.text+0x2bac>
30002b48:	e5932000 	ldr	r2, [r3]
30002b4c:	e51b3014 	ldr	r3, [fp, #-20]
30002b50:	e1520003 	cmp	r2, r3
30002b54:	da000012 	ble	30002ba4 <LCD_Geometry_ClearScr+0x7c>
30002b58:	e3a03000 	mov	r3, #0	; 0x0
30002b5c:	e50b3018 	str	r3, [fp, #-24]
30002b60:	e59f3044 	ldr	r3, [pc, #68]	; 30002bac <.text+0x2bac>
30002b64:	e5932004 	ldr	r2, [r3, #4]
30002b68:	e51b3018 	ldr	r3, [fp, #-24]
30002b6c:	e1520003 	cmp	r2, r3
30002b70:	da000007 	ble	30002b94 <LCD_Geometry_ClearScr+0x6c>
30002b74:	e51b0014 	ldr	r0, [fp, #-20]
30002b78:	e51b1018 	ldr	r1, [fp, #-24]
30002b7c:	e51b2010 	ldr	r2, [fp, #-16]
30002b80:	ebffffa2 	bl	30002a10 <LCD_FrameBuffer_Pixel>
30002b84:	e51b3018 	ldr	r3, [fp, #-24]
30002b88:	e2833001 	add	r3, r3, #1	; 0x1
30002b8c:	e50b3018 	str	r3, [fp, #-24]
30002b90:	eafffff2 	b	30002b60 <LCD_Geometry_ClearScr+0x38>
30002b94:	e51b3014 	ldr	r3, [fp, #-20]
30002b98:	e2833001 	add	r3, r3, #1	; 0x1
30002b9c:	e50b3014 	str	r3, [fp, #-20]
30002ba0:	eaffffe7 	b	30002b44 <LCD_Geometry_ClearScr+0x1c>
30002ba4:	e24bd00c 	sub	sp, fp, #12	; 0xc
30002ba8:	e89da800 	ldmia	sp, {fp, sp, pc}
30002bac:	3000d00c 	andcc	sp, r0, ip

30002bb0 <LCD_Geometry_Draw_Circle>:
30002bb0:	e1a0c00d 	mov	ip, sp
30002bb4:	e92dd800 	stmdb	sp!, {fp, ip, lr, pc}
30002bb8:	e24cb004 	sub	fp, ip, #4	; 0x4
30002bbc:	e24dd01c 	sub	sp, sp, #28	; 0x1c
30002bc0:	e50b0010 	str	r0, [fp, #-16]
30002bc4:	e50b1014 	str	r1, [fp, #-20]
30002bc8:	e50b2018 	str	r2, [fp, #-24]
30002bcc:	e50b301c 	str	r3, [fp, #-28]
30002bd0:	e3a03000 	mov	r3, #0	; 0x0
30002bd4:	e50b3020 	str	r3, [fp, #-32]
30002bd8:	e51b3018 	ldr	r3, [fp, #-24]
30002bdc:	e50b3024 	str	r3, [fp, #-36]
30002be0:	e51b2024 	ldr	r2, [fp, #-36]
30002be4:	e51b3024 	ldr	r3, [fp, #-36]
30002be8:	e0020293 	mul	r2, r3, r2
30002bec:	e1a03002 	mov	r3, r2
30002bf0:	e1a03103 	mov	r3, r3, lsl #2
30002bf4:	e0833002 	add	r3, r3, r2
30002bf8:	e1a03083 	mov	r3, r3, lsl #1
30002bfc:	e0833002 	add	r3, r3, r2
30002c00:	e1a01083 	mov	r1, r3, lsl #1
30002c04:	e51b2018 	ldr	r2, [fp, #-24]
30002c08:	e51b3018 	ldr	r3, [fp, #-24]
30002c0c:	e0030392 	mul	r3, r2, r3
30002c10:	e1510003 	cmp	r1, r3
30002c14:	ba000068 	blt	30002dbc <LCD_Geometry_Draw_Circle+0x20c>
30002c18:	e51b2010 	ldr	r2, [fp, #-16]
30002c1c:	e51b3020 	ldr	r3, [fp, #-32]
30002c20:	e0821003 	add	r1, r2, r3
30002c24:	e51b2014 	ldr	r2, [fp, #-20]
30002c28:	e51b3024 	ldr	r3, [fp, #-36]
30002c2c:	e0633002 	rsb	r3, r3, r2
30002c30:	e1a00001 	mov	r0, r1
30002c34:	e1a01003 	mov	r1, r3
30002c38:	e51b201c 	ldr	r2, [fp, #-28]
30002c3c:	ebffff73 	bl	30002a10 <LCD_FrameBuffer_Pixel>
30002c40:	e51b2010 	ldr	r2, [fp, #-16]
30002c44:	e51b3020 	ldr	r3, [fp, #-32]
30002c48:	e0631002 	rsb	r1, r3, r2
30002c4c:	e51b2014 	ldr	r2, [fp, #-20]
30002c50:	e51b3024 	ldr	r3, [fp, #-36]
30002c54:	e0633002 	rsb	r3, r3, r2
30002c58:	e1a00001 	mov	r0, r1
30002c5c:	e1a01003 	mov	r1, r3
30002c60:	e51b201c 	ldr	r2, [fp, #-28]
30002c64:	ebffff69 	bl	30002a10 <LCD_FrameBuffer_Pixel>
30002c68:	e51b2010 	ldr	r2, [fp, #-16]
30002c6c:	e51b3020 	ldr	r3, [fp, #-32]
30002c70:	e0631002 	rsb	r1, r3, r2
30002c74:	e51b2014 	ldr	r2, [fp, #-20]
30002c78:	e51b3024 	ldr	r3, [fp, #-36]
30002c7c:	e0823003 	add	r3, r2, r3
30002c80:	e1a00001 	mov	r0, r1
30002c84:	e1a01003 	mov	r1, r3
30002c88:	e51b201c 	ldr	r2, [fp, #-28]
30002c8c:	ebffff5f 	bl	30002a10 <LCD_FrameBuffer_Pixel>
30002c90:	e51b2010 	ldr	r2, [fp, #-16]
30002c94:	e51b3020 	ldr	r3, [fp, #-32]
30002c98:	e0821003 	add	r1, r2, r3
30002c9c:	e51b2014 	ldr	r2, [fp, #-20]
30002ca0:	e51b3024 	ldr	r3, [fp, #-36]
30002ca4:	e0823003 	add	r3, r2, r3
30002ca8:	e1a00001 	mov	r0, r1
30002cac:	e1a01003 	mov	r1, r3
30002cb0:	e51b201c 	ldr	r2, [fp, #-28]
30002cb4:	ebffff55 	bl	30002a10 <LCD_FrameBuffer_Pixel>
30002cb8:	e51b2010 	ldr	r2, [fp, #-16]
30002cbc:	e51b3024 	ldr	r3, [fp, #-36]
30002cc0:	e0821003 	add	r1, r2, r3
30002cc4:	e51b2014 	ldr	r2, [fp, #-20]
30002cc8:	e51b3020 	ldr	r3, [fp, #-32]
30002ccc:	e0823003 	add	r3, r2, r3
30002cd0:	e1a00001 	mov	r0, r1
30002cd4:	e1a01003 	mov	r1, r3
30002cd8:	e51b201c 	ldr	r2, [fp, #-28]
30002cdc:	ebffff4b 	bl	30002a10 <LCD_FrameBuffer_Pixel>
30002ce0:	e51b2010 	ldr	r2, [fp, #-16]
30002ce4:	e51b3024 	ldr	r3, [fp, #-36]
30002ce8:	e0821003 	add	r1, r2, r3
30002cec:	e51b2014 	ldr	r2, [fp, #-20]
30002cf0:	e51b3020 	ldr	r3, [fp, #-32]
30002cf4:	e0633002 	rsb	r3, r3, r2
30002cf8:	e1a00001 	mov	r0, r1
30002cfc:	e1a01003 	mov	r1, r3
30002d00:	e51b201c 	ldr	r2, [fp, #-28]
30002d04:	ebffff41 	bl	30002a10 <LCD_FrameBuffer_Pixel>
30002d08:	e51b2010 	ldr	r2, [fp, #-16]
30002d0c:	e51b3024 	ldr	r3, [fp, #-36]
30002d10:	e0631002 	rsb	r1, r3, r2
30002d14:	e51b2014 	ldr	r2, [fp, #-20]
30002d18:	e51b3020 	ldr	r3, [fp, #-32]
30002d1c:	e0633002 	rsb	r3, r3, r2
30002d20:	e1a00001 	mov	r0, r1
30002d24:	e1a01003 	mov	r1, r3
30002d28:	e51b201c 	ldr	r2, [fp, #-28]
30002d2c:	ebffff37 	bl	30002a10 <LCD_FrameBuffer_Pixel>
30002d30:	e51b2010 	ldr	r2, [fp, #-16]
30002d34:	e51b3024 	ldr	r3, [fp, #-36]
30002d38:	e0631002 	rsb	r1, r3, r2
30002d3c:	e51b2014 	ldr	r2, [fp, #-20]
30002d40:	e51b3020 	ldr	r3, [fp, #-32]
30002d44:	e0823003 	add	r3, r2, r3
30002d48:	e1a00001 	mov	r0, r1
30002d4c:	e1a01003 	mov	r1, r3
30002d50:	e51b201c 	ldr	r2, [fp, #-28]
30002d54:	ebffff2d 	bl	30002a10 <LCD_FrameBuffer_Pixel>
30002d58:	e51b3020 	ldr	r3, [fp, #-32]
30002d5c:	e2833001 	add	r3, r3, #1	; 0x1
30002d60:	e50b3020 	str	r3, [fp, #-32]
30002d64:	e51b2020 	ldr	r2, [fp, #-32]
30002d68:	e51b3020 	ldr	r3, [fp, #-32]
30002d6c:	e0010293 	mul	r1, r3, r2
30002d70:	e51b2024 	ldr	r2, [fp, #-36]
30002d74:	e51b3024 	ldr	r3, [fp, #-36]
30002d78:	e0030392 	mul	r3, r2, r3
30002d7c:	e0811003 	add	r1, r1, r3
30002d80:	e51b2018 	ldr	r2, [fp, #-24]
30002d84:	e51b3018 	ldr	r3, [fp, #-24]
30002d88:	e0030392 	mul	r3, r2, r3
30002d8c:	e0633001 	rsb	r3, r3, r1
30002d90:	e50b3028 	str	r3, [fp, #-40]
30002d94:	e51b3028 	ldr	r3, [fp, #-40]
30002d98:	e3530000 	cmp	r3, #0	; 0x0
30002d9c:	daffff8f 	ble	30002be0 <LCD_Geometry_Draw_Circle+0x30>
30002da0:	e51b3024 	ldr	r3, [fp, #-36]
30002da4:	e2433001 	sub	r3, r3, #1	; 0x1
30002da8:	e50b3024 	str	r3, [fp, #-36]
30002dac:	e51b3020 	ldr	r3, [fp, #-32]
30002db0:	e2433001 	sub	r3, r3, #1	; 0x1
30002db4:	e50b3020 	str	r3, [fp, #-32]
30002db8:	eaffff88 	b	30002be0 <LCD_Geometry_Draw_Circle+0x30>
30002dbc:	e24bd00c 	sub	sp, fp, #12	; 0xc
30002dc0:	e89da800 	ldmia	sp, {fp, sp, pc}

30002dc4 <LCD_Geometry_Draw_Line>:
30002dc4:	e1a0c00d 	mov	ip, sp
30002dc8:	e92dd800 	stmdb	sp!, {fp, ip, lr, pc}
30002dcc:	e24cb004 	sub	fp, ip, #4	; 0x4
30002dd0:	e24dd01c 	sub	sp, sp, #28	; 0x1c
30002dd4:	e50b0010 	str	r0, [fp, #-16]
30002dd8:	e50b1014 	str	r1, [fp, #-20]
30002ddc:	e50b2018 	str	r2, [fp, #-24]
30002de0:	e50b301c 	str	r3, [fp, #-28]
30002de4:	e51b2018 	ldr	r2, [fp, #-24]
30002de8:	e51b3010 	ldr	r3, [fp, #-16]
30002dec:	e0633002 	rsb	r3, r3, r2
30002df0:	e50b3020 	str	r3, [fp, #-32]
30002df4:	e51b201c 	ldr	r2, [fp, #-28]
30002df8:	e51b3014 	ldr	r3, [fp, #-20]
30002dfc:	e0633002 	rsb	r3, r3, r2
30002e00:	e50b3024 	str	r3, [fp, #-36]
30002e04:	e51b3020 	ldr	r3, [fp, #-32]
30002e08:	e3530000 	cmp	r3, #0	; 0x0
30002e0c:	ba000095 	blt	30003068 <LCD_Geometry_Draw_Line+0x2a4>
30002e10:	e51b3024 	ldr	r3, [fp, #-36]
30002e14:	e3530000 	cmp	r3, #0	; 0x0
30002e18:	ba000047 	blt	30002f3c <LCD_Geometry_Draw_Line+0x178>
30002e1c:	e51b2020 	ldr	r2, [fp, #-32]
30002e20:	e51b3024 	ldr	r3, [fp, #-36]
30002e24:	e1520003 	cmp	r2, r3
30002e28:	ba000021 	blt	30002eb4 <LCD_Geometry_Draw_Line+0xf0>
30002e2c:	e51b2020 	ldr	r2, [fp, #-32]
30002e30:	e1a03fc2 	mov	r3, r2, asr #31
30002e34:	e1a03fa3 	mov	r3, r3, lsr #31
30002e38:	e0823003 	add	r3, r2, r3
30002e3c:	e1a020c3 	mov	r2, r3, asr #1
30002e40:	e51b3024 	ldr	r3, [fp, #-36]
30002e44:	e0623003 	rsb	r3, r2, r3
30002e48:	e50b3028 	str	r3, [fp, #-40]
30002e4c:	e51b2010 	ldr	r2, [fp, #-16]
30002e50:	e51b3018 	ldr	r3, [fp, #-24]
30002e54:	e1520003 	cmp	r2, r3
30002e58:	ca00011b 	bgt	300032cc <LCD_Geometry_Draw_Line+0x508>
30002e5c:	e51b0010 	ldr	r0, [fp, #-16]
30002e60:	e51b1014 	ldr	r1, [fp, #-20]
30002e64:	e59b2004 	ldr	r2, [fp, #4]
30002e68:	ebfffee8 	bl	30002a10 <LCD_FrameBuffer_Pixel>
30002e6c:	e51b3028 	ldr	r3, [fp, #-40]
30002e70:	e3530000 	cmp	r3, #0	; 0x0
30002e74:	da000006 	ble	30002e94 <LCD_Geometry_Draw_Line+0xd0>
30002e78:	e51b3014 	ldr	r3, [fp, #-20]
30002e7c:	e2833001 	add	r3, r3, #1	; 0x1
30002e80:	e50b3014 	str	r3, [fp, #-20]
30002e84:	e51b2028 	ldr	r2, [fp, #-40]
30002e88:	e51b3020 	ldr	r3, [fp, #-32]
30002e8c:	e0633002 	rsb	r3, r3, r2
30002e90:	e50b3028 	str	r3, [fp, #-40]
30002e94:	e51b3010 	ldr	r3, [fp, #-16]
30002e98:	e2833001 	add	r3, r3, #1	; 0x1
30002e9c:	e50b3010 	str	r3, [fp, #-16]
30002ea0:	e51b2028 	ldr	r2, [fp, #-40]
30002ea4:	e51b3024 	ldr	r3, [fp, #-36]
30002ea8:	e0823003 	add	r3, r2, r3
30002eac:	e50b3028 	str	r3, [fp, #-40]
30002eb0:	eaffffe5 	b	30002e4c <LCD_Geometry_Draw_Line+0x88>
30002eb4:	e51b2024 	ldr	r2, [fp, #-36]
30002eb8:	e1a03fc2 	mov	r3, r2, asr #31
30002ebc:	e1a03fa3 	mov	r3, r3, lsr #31
30002ec0:	e0823003 	add	r3, r2, r3
30002ec4:	e1a020c3 	mov	r2, r3, asr #1
30002ec8:	e51b3020 	ldr	r3, [fp, #-32]
30002ecc:	e0623003 	rsb	r3, r2, r3
30002ed0:	e50b3028 	str	r3, [fp, #-40]
30002ed4:	e51b2014 	ldr	r2, [fp, #-20]
30002ed8:	e51b301c 	ldr	r3, [fp, #-28]
30002edc:	e1520003 	cmp	r2, r3
30002ee0:	ca0000f9 	bgt	300032cc <LCD_Geometry_Draw_Line+0x508>
30002ee4:	e51b0010 	ldr	r0, [fp, #-16]
30002ee8:	e51b1014 	ldr	r1, [fp, #-20]
30002eec:	e59b2004 	ldr	r2, [fp, #4]
30002ef0:	ebfffec6 	bl	30002a10 <LCD_FrameBuffer_Pixel>
30002ef4:	e51b3028 	ldr	r3, [fp, #-40]
30002ef8:	e3530000 	cmp	r3, #0	; 0x0
30002efc:	da000006 	ble	30002f1c <LCD_Geometry_Draw_Line+0x158>
30002f00:	e51b3010 	ldr	r3, [fp, #-16]
30002f04:	e2833001 	add	r3, r3, #1	; 0x1
30002f08:	e50b3010 	str	r3, [fp, #-16]
30002f0c:	e51b2028 	ldr	r2, [fp, #-40]
30002f10:	e51b3024 	ldr	r3, [fp, #-36]
30002f14:	e0633002 	rsb	r3, r3, r2
30002f18:	e50b3028 	str	r3, [fp, #-40]
30002f1c:	e51b3014 	ldr	r3, [fp, #-20]
30002f20:	e2833001 	add	r3, r3, #1	; 0x1
30002f24:	e50b3014 	str	r3, [fp, #-20]
30002f28:	e51b2028 	ldr	r2, [fp, #-40]
30002f2c:	e51b3020 	ldr	r3, [fp, #-32]
30002f30:	e0823003 	add	r3, r2, r3
30002f34:	e50b3028 	str	r3, [fp, #-40]
30002f38:	eaffffe5 	b	30002ed4 <LCD_Geometry_Draw_Line+0x110>
30002f3c:	e51b3024 	ldr	r3, [fp, #-36]
30002f40:	e2633000 	rsb	r3, r3, #0	; 0x0
30002f44:	e50b3024 	str	r3, [fp, #-36]
30002f48:	e51b2020 	ldr	r2, [fp, #-32]
30002f4c:	e51b3024 	ldr	r3, [fp, #-36]
30002f50:	e1520003 	cmp	r2, r3
30002f54:	ba000021 	blt	30002fe0 <LCD_Geometry_Draw_Line+0x21c>
30002f58:	e51b2020 	ldr	r2, [fp, #-32]
30002f5c:	e1a03fc2 	mov	r3, r2, asr #31
30002f60:	e1a03fa3 	mov	r3, r3, lsr #31
30002f64:	e0823003 	add	r3, r2, r3
30002f68:	e1a020c3 	mov	r2, r3, asr #1
30002f6c:	e51b3024 	ldr	r3, [fp, #-36]
30002f70:	e0623003 	rsb	r3, r2, r3
30002f74:	e50b3028 	str	r3, [fp, #-40]
30002f78:	e51b2010 	ldr	r2, [fp, #-16]
30002f7c:	e51b3018 	ldr	r3, [fp, #-24]
30002f80:	e1520003 	cmp	r2, r3
30002f84:	ca0000d0 	bgt	300032cc <LCD_Geometry_Draw_Line+0x508>
30002f88:	e51b0010 	ldr	r0, [fp, #-16]
30002f8c:	e51b1014 	ldr	r1, [fp, #-20]
30002f90:	e59b2004 	ldr	r2, [fp, #4]
30002f94:	ebfffe9d 	bl	30002a10 <LCD_FrameBuffer_Pixel>
30002f98:	e51b3028 	ldr	r3, [fp, #-40]
30002f9c:	e3530000 	cmp	r3, #0	; 0x0
30002fa0:	da000006 	ble	30002fc0 <LCD_Geometry_Draw_Line+0x1fc>
30002fa4:	e51b3014 	ldr	r3, [fp, #-20]
30002fa8:	e2433001 	sub	r3, r3, #1	; 0x1
30002fac:	e50b3014 	str	r3, [fp, #-20]
30002fb0:	e51b2028 	ldr	r2, [fp, #-40]
30002fb4:	e51b3020 	ldr	r3, [fp, #-32]
30002fb8:	e0633002 	rsb	r3, r3, r2
30002fbc:	e50b3028 	str	r3, [fp, #-40]
30002fc0:	e51b3010 	ldr	r3, [fp, #-16]
30002fc4:	e2833001 	add	r3, r3, #1	; 0x1
30002fc8:	e50b3010 	str	r3, [fp, #-16]
30002fcc:	e51b2028 	ldr	r2, [fp, #-40]
30002fd0:	e51b3024 	ldr	r3, [fp, #-36]
30002fd4:	e0823003 	add	r3, r2, r3
30002fd8:	e50b3028 	str	r3, [fp, #-40]
30002fdc:	eaffffe5 	b	30002f78 <LCD_Geometry_Draw_Line+0x1b4>
30002fe0:	e51b2024 	ldr	r2, [fp, #-36]
30002fe4:	e1a03fc2 	mov	r3, r2, asr #31
30002fe8:	e1a03fa3 	mov	r3, r3, lsr #31
30002fec:	e0823003 	add	r3, r2, r3
30002ff0:	e1a020c3 	mov	r2, r3, asr #1
30002ff4:	e51b3020 	ldr	r3, [fp, #-32]
30002ff8:	e0623003 	rsb	r3, r2, r3
30002ffc:	e50b3028 	str	r3, [fp, #-40]
30003000:	e51b2014 	ldr	r2, [fp, #-20]
30003004:	e51b301c 	ldr	r3, [fp, #-28]
30003008:	e1520003 	cmp	r2, r3
3000300c:	ba0000ae 	blt	300032cc <LCD_Geometry_Draw_Line+0x508>
30003010:	e51b0010 	ldr	r0, [fp, #-16]
30003014:	e51b1014 	ldr	r1, [fp, #-20]
30003018:	e59b2004 	ldr	r2, [fp, #4]
3000301c:	ebfffe7b 	bl	30002a10 <LCD_FrameBuffer_Pixel>
30003020:	e51b3028 	ldr	r3, [fp, #-40]
30003024:	e3530000 	cmp	r3, #0	; 0x0
30003028:	da000006 	ble	30003048 <LCD_Geometry_Draw_Line+0x284>
3000302c:	e51b3010 	ldr	r3, [fp, #-16]
30003030:	e2833001 	add	r3, r3, #1	; 0x1
30003034:	e50b3010 	str	r3, [fp, #-16]
30003038:	e51b2028 	ldr	r2, [fp, #-40]
3000303c:	e51b3024 	ldr	r3, [fp, #-36]
30003040:	e0633002 	rsb	r3, r3, r2
30003044:	e50b3028 	str	r3, [fp, #-40]
30003048:	e51b3014 	ldr	r3, [fp, #-20]
3000304c:	e2433001 	sub	r3, r3, #1	; 0x1
30003050:	e50b3014 	str	r3, [fp, #-20]
30003054:	e51b2028 	ldr	r2, [fp, #-40]
30003058:	e51b3020 	ldr	r3, [fp, #-32]
3000305c:	e0823003 	add	r3, r2, r3
30003060:	e50b3028 	str	r3, [fp, #-40]
30003064:	eaffffe5 	b	30003000 <LCD_Geometry_Draw_Line+0x23c>
30003068:	e51b3020 	ldr	r3, [fp, #-32]
3000306c:	e2633000 	rsb	r3, r3, #0	; 0x0
30003070:	e50b3020 	str	r3, [fp, #-32]
30003074:	e51b3024 	ldr	r3, [fp, #-36]
30003078:	e3530000 	cmp	r3, #0	; 0x0
3000307c:	ba000047 	blt	300031a0 <LCD_Geometry_Draw_Line+0x3dc>
30003080:	e51b2020 	ldr	r2, [fp, #-32]
30003084:	e51b3024 	ldr	r3, [fp, #-36]
30003088:	e1520003 	cmp	r2, r3
3000308c:	ba000021 	blt	30003118 <LCD_Geometry_Draw_Line+0x354>
30003090:	e51b2020 	ldr	r2, [fp, #-32]
30003094:	e1a03fc2 	mov	r3, r2, asr #31
30003098:	e1a03fa3 	mov	r3, r3, lsr #31
3000309c:	e0823003 	add	r3, r2, r3
300030a0:	e1a020c3 	mov	r2, r3, asr #1
300030a4:	e51b3024 	ldr	r3, [fp, #-36]
300030a8:	e0623003 	rsb	r3, r2, r3
300030ac:	e50b3028 	str	r3, [fp, #-40]
300030b0:	e51b2010 	ldr	r2, [fp, #-16]
300030b4:	e51b3018 	ldr	r3, [fp, #-24]
300030b8:	e1520003 	cmp	r2, r3
300030bc:	ba000082 	blt	300032cc <LCD_Geometry_Draw_Line+0x508>
300030c0:	e51b0010 	ldr	r0, [fp, #-16]
300030c4:	e51b1014 	ldr	r1, [fp, #-20]
300030c8:	e59b2004 	ldr	r2, [fp, #4]
300030cc:	ebfffe4f 	bl	30002a10 <LCD_FrameBuffer_Pixel>
300030d0:	e51b3028 	ldr	r3, [fp, #-40]
300030d4:	e3530000 	cmp	r3, #0	; 0x0
300030d8:	da000006 	ble	300030f8 <LCD_Geometry_Draw_Line+0x334>
300030dc:	e51b3014 	ldr	r3, [fp, #-20]
300030e0:	e2833001 	add	r3, r3, #1	; 0x1
300030e4:	e50b3014 	str	r3, [fp, #-20]
300030e8:	e51b2028 	ldr	r2, [fp, #-40]
300030ec:	e51b3020 	ldr	r3, [fp, #-32]
300030f0:	e0633002 	rsb	r3, r3, r2
300030f4:	e50b3028 	str	r3, [fp, #-40]
300030f8:	e51b3010 	ldr	r3, [fp, #-16]
300030fc:	e2433001 	sub	r3, r3, #1	; 0x1
30003100:	e50b3010 	str	r3, [fp, #-16]
30003104:	e51b2028 	ldr	r2, [fp, #-40]
30003108:	e51b3024 	ldr	r3, [fp, #-36]
3000310c:	e0823003 	add	r3, r2, r3
30003110:	e50b3028 	str	r3, [fp, #-40]
30003114:	eaffffe5 	b	300030b0 <LCD_Geometry_Draw_Line+0x2ec>
30003118:	e51b2024 	ldr	r2, [fp, #-36]
3000311c:	e1a03fc2 	mov	r3, r2, asr #31
30003120:	e1a03fa3 	mov	r3, r3, lsr #31
30003124:	e0823003 	add	r3, r2, r3
30003128:	e1a020c3 	mov	r2, r3, asr #1
3000312c:	e51b3020 	ldr	r3, [fp, #-32]
30003130:	e0623003 	rsb	r3, r2, r3
30003134:	e50b3028 	str	r3, [fp, #-40]
30003138:	e51b2014 	ldr	r2, [fp, #-20]
3000313c:	e51b301c 	ldr	r3, [fp, #-28]
30003140:	e1520003 	cmp	r2, r3
30003144:	ca000060 	bgt	300032cc <LCD_Geometry_Draw_Line+0x508>
30003148:	e51b0010 	ldr	r0, [fp, #-16]
3000314c:	e51b1014 	ldr	r1, [fp, #-20]
30003150:	e59b2004 	ldr	r2, [fp, #4]
30003154:	ebfffe2d 	bl	30002a10 <LCD_FrameBuffer_Pixel>
30003158:	e51b3028 	ldr	r3, [fp, #-40]
3000315c:	e3530000 	cmp	r3, #0	; 0x0
30003160:	da000006 	ble	30003180 <LCD_Geometry_Draw_Line+0x3bc>
30003164:	e51b3010 	ldr	r3, [fp, #-16]
30003168:	e2433001 	sub	r3, r3, #1	; 0x1
3000316c:	e50b3010 	str	r3, [fp, #-16]
30003170:	e51b2028 	ldr	r2, [fp, #-40]
30003174:	e51b3024 	ldr	r3, [fp, #-36]
30003178:	e0633002 	rsb	r3, r3, r2
3000317c:	e50b3028 	str	r3, [fp, #-40]
30003180:	e51b3014 	ldr	r3, [fp, #-20]
30003184:	e2833001 	add	r3, r3, #1	; 0x1
30003188:	e50b3014 	str	r3, [fp, #-20]
3000318c:	e51b2028 	ldr	r2, [fp, #-40]
30003190:	e51b3020 	ldr	r3, [fp, #-32]
30003194:	e0823003 	add	r3, r2, r3
30003198:	e50b3028 	str	r3, [fp, #-40]
3000319c:	eaffffe5 	b	30003138 <LCD_Geometry_Draw_Line+0x374>
300031a0:	e51b3024 	ldr	r3, [fp, #-36]
300031a4:	e2633000 	rsb	r3, r3, #0	; 0x0
300031a8:	e50b3024 	str	r3, [fp, #-36]
300031ac:	e51b2020 	ldr	r2, [fp, #-32]
300031b0:	e51b3024 	ldr	r3, [fp, #-36]
300031b4:	e1520003 	cmp	r2, r3
300031b8:	ba000021 	blt	30003244 <LCD_Geometry_Draw_Line+0x480>
300031bc:	e51b2020 	ldr	r2, [fp, #-32]
300031c0:	e1a03fc2 	mov	r3, r2, asr #31
300031c4:	e1a03fa3 	mov	r3, r3, lsr #31
300031c8:	e0823003 	add	r3, r2, r3
300031cc:	e1a020c3 	mov	r2, r3, asr #1
300031d0:	e51b3024 	ldr	r3, [fp, #-36]
300031d4:	e0623003 	rsb	r3, r2, r3
300031d8:	e50b3028 	str	r3, [fp, #-40]
300031dc:	e51b2010 	ldr	r2, [fp, #-16]
300031e0:	e51b3018 	ldr	r3, [fp, #-24]
300031e4:	e1520003 	cmp	r2, r3
300031e8:	ba000037 	blt	300032cc <LCD_Geometry_Draw_Line+0x508>
300031ec:	e51b0010 	ldr	r0, [fp, #-16]
300031f0:	e51b1014 	ldr	r1, [fp, #-20]
300031f4:	e59b2004 	ldr	r2, [fp, #4]
300031f8:	ebfffe04 	bl	30002a10 <LCD_FrameBuffer_Pixel>
300031fc:	e51b3028 	ldr	r3, [fp, #-40]
30003200:	e3530000 	cmp	r3, #0	; 0x0
30003204:	da000006 	ble	30003224 <LCD_Geometry_Draw_Line+0x460>
30003208:	e51b3014 	ldr	r3, [fp, #-20]
3000320c:	e2433001 	sub	r3, r3, #1	; 0x1
30003210:	e50b3014 	str	r3, [fp, #-20]
30003214:	e51b2028 	ldr	r2, [fp, #-40]
30003218:	e51b3020 	ldr	r3, [fp, #-32]
3000321c:	e0633002 	rsb	r3, r3, r2
30003220:	e50b3028 	str	r3, [fp, #-40]
30003224:	e51b3010 	ldr	r3, [fp, #-16]
30003228:	e2433001 	sub	r3, r3, #1	; 0x1
3000322c:	e50b3010 	str	r3, [fp, #-16]
30003230:	e51b2028 	ldr	r2, [fp, #-40]
30003234:	e51b3024 	ldr	r3, [fp, #-36]
30003238:	e0823003 	add	r3, r2, r3
3000323c:	e50b3028 	str	r3, [fp, #-40]
30003240:	eaffffe5 	b	300031dc <LCD_Geometry_Draw_Line+0x418>
30003244:	e51b2024 	ldr	r2, [fp, #-36]
30003248:	e1a03fc2 	mov	r3, r2, asr #31
3000324c:	e1a03fa3 	mov	r3, r3, lsr #31
30003250:	e0823003 	add	r3, r2, r3
30003254:	e1a020c3 	mov	r2, r3, asr #1
30003258:	e51b3020 	ldr	r3, [fp, #-32]
3000325c:	e0623003 	rsb	r3, r2, r3
30003260:	e50b3028 	str	r3, [fp, #-40]
30003264:	e51b2014 	ldr	r2, [fp, #-20]
30003268:	e51b301c 	ldr	r3, [fp, #-28]
3000326c:	e1520003 	cmp	r2, r3
30003270:	ba000015 	blt	300032cc <LCD_Geometry_Draw_Line+0x508>
30003274:	e51b0010 	ldr	r0, [fp, #-16]
30003278:	e51b1014 	ldr	r1, [fp, #-20]
3000327c:	e59b2004 	ldr	r2, [fp, #4]
30003280:	ebfffde2 	bl	30002a10 <LCD_FrameBuffer_Pixel>
30003284:	e51b3028 	ldr	r3, [fp, #-40]
30003288:	e3530000 	cmp	r3, #0	; 0x0
3000328c:	da000006 	ble	300032ac <LCD_Geometry_Draw_Line+0x4e8>
30003290:	e51b3010 	ldr	r3, [fp, #-16]
30003294:	e2433001 	sub	r3, r3, #1	; 0x1
30003298:	e50b3010 	str	r3, [fp, #-16]
3000329c:	e51b2028 	ldr	r2, [fp, #-40]
300032a0:	e51b3024 	ldr	r3, [fp, #-36]
300032a4:	e0633002 	rsb	r3, r3, r2
300032a8:	e50b3028 	str	r3, [fp, #-40]
300032ac:	e51b3014 	ldr	r3, [fp, #-20]
300032b0:	e2433001 	sub	r3, r3, #1	; 0x1
300032b4:	e50b3014 	str	r3, [fp, #-20]
300032b8:	e51b2028 	ldr	r2, [fp, #-40]
300032bc:	e51b3020 	ldr	r3, [fp, #-32]
300032c0:	e0823003 	add	r3, r2, r3
300032c4:	e50b3028 	str	r3, [fp, #-40]
300032c8:	eaffffe5 	b	30003264 <LCD_Geometry_Draw_Line+0x4a0>
300032cc:	e24bd00c 	sub	sp, fp, #12	; 0xc
300032d0:	e89da800 	ldmia	sp, {fp, sp, pc}

300032d4 <LCD_4_3_Register>:
300032d4:	e1a0c00d 	mov	ip, sp
300032d8:	e92dd800 	stmdb	sp!, {fp, ip, lr, pc}
300032dc:	e24cb004 	sub	fp, ip, #4	; 0x4
300032e0:	e59f0004 	ldr	r0, [pc, #4]	; 300032ec <.text+0x32ec>
300032e4:	eb000098 	bl	3000354c <LCD_register>
300032e8:	e89da800 	ldmia	sp, {fp, sp, pc}
300032ec:	3000caa4 	andcc	ip, r0, r4, lsr #21

300032f0 <LCD_Controller_register>:
300032f0:	e1a0c00d 	mov	ip, sp
300032f4:	e92dd800 	stmdb	sp!, {fp, ip, lr, pc}
300032f8:	e24cb004 	sub	fp, ip, #4	; 0x4
300032fc:	e24dd00c 	sub	sp, sp, #12	; 0xc
30003300:	e50b0010 	str	r0, [fp, #-16]
30003304:	e3a03000 	mov	r3, #0	; 0x0
30003308:	e50b3014 	str	r3, [fp, #-20]
3000330c:	e51b3014 	ldr	r3, [fp, #-20]
30003310:	e3530009 	cmp	r3, #9	; 0x9
30003314:	ca00000f 	bgt	30003358 <LCD_Controller_register+0x68>
30003318:	e59f304c 	ldr	r3, [pc, #76]	; 3000336c <.text+0x336c>
3000331c:	e51b2014 	ldr	r2, [fp, #-20]
30003320:	e7933102 	ldr	r3, [r3, r2, lsl #2]
30003324:	e3530000 	cmp	r3, #0	; 0x0
30003328:	1a000006 	bne	30003348 <LCD_Controller_register+0x58>
3000332c:	e59f1038 	ldr	r1, [pc, #56]	; 3000336c <.text+0x336c>
30003330:	e51b2014 	ldr	r2, [fp, #-20]
30003334:	e51b3010 	ldr	r3, [fp, #-16]
30003338:	e7813102 	str	r3, [r1, r2, lsl #2]
3000333c:	e51b3014 	ldr	r3, [fp, #-20]
30003340:	e50b3018 	str	r3, [fp, #-24]
30003344:	ea000005 	b	30003360 <LCD_Controller_register+0x70>
30003348:	e51b3014 	ldr	r3, [fp, #-20]
3000334c:	e2833001 	add	r3, r3, #1	; 0x1
30003350:	e50b3014 	str	r3, [fp, #-20]
30003354:	eaffffec 	b	3000330c <LCD_Controller_register+0x1c>
30003358:	e3e03000 	mvn	r3, #0	; 0x0
3000335c:	e50b3018 	str	r3, [fp, #-24]
30003360:	e51b0018 	ldr	r0, [fp, #-24]
30003364:	e24bd00c 	sub	sp, fp, #12	; 0xc
30003368:	e89da800 	ldmia	sp, {fp, sp, pc}
3000336c:	3000cc20 	andcc	ip, r0, r0, lsr #24

30003370 <LCD_Controller_select>:
30003370:	e1a0c00d 	mov	ip, sp
30003374:	e92dd800 	stmdb	sp!, {fp, ip, lr, pc}
30003378:	e24cb004 	sub	fp, ip, #4	; 0x4
3000337c:	e24dd00c 	sub	sp, sp, #12	; 0xc
30003380:	e50b0010 	str	r0, [fp, #-16]
30003384:	e3a03000 	mov	r3, #0	; 0x0
30003388:	e50b3014 	str	r3, [fp, #-20]
3000338c:	e51b3014 	ldr	r3, [fp, #-20]
30003390:	e3530009 	cmp	r3, #9	; 0x9
30003394:	ca000019 	bgt	30003400 <LCD_Controller_select+0x90>
30003398:	e59f3074 	ldr	r3, [pc, #116]	; 30003414 <.text+0x3414>
3000339c:	e51b2014 	ldr	r2, [fp, #-20]
300033a0:	e7933102 	ldr	r3, [r3, r2, lsl #2]
300033a4:	e3530000 	cmp	r3, #0	; 0x0
300033a8:	0a000010 	beq	300033f0 <LCD_Controller_select+0x80>
300033ac:	e59f2060 	ldr	r2, [pc, #96]	; 30003414 <.text+0x3414>
300033b0:	e51b3014 	ldr	r3, [fp, #-20]
300033b4:	e7923103 	ldr	r3, [r2, r3, lsl #2]
300033b8:	e5930000 	ldr	r0, [r3]
300033bc:	e51b1010 	ldr	r1, [fp, #-16]
300033c0:	eb00124a 	bl	30007cf0 <strcmp>
300033c4:	e1a03000 	mov	r3, r0
300033c8:	e3530000 	cmp	r3, #0	; 0x0
300033cc:	1a000007 	bne	300033f0 <LCD_Controller_select+0x80>
300033d0:	e59f1040 	ldr	r1, [pc, #64]	; 30003418 <.text+0x3418>
300033d4:	e59f2038 	ldr	r2, [pc, #56]	; 30003414 <.text+0x3414>
300033d8:	e51b3014 	ldr	r3, [fp, #-20]
300033dc:	e7923103 	ldr	r3, [r2, r3, lsl #2]
300033e0:	e5813000 	str	r3, [r1]
300033e4:	e51b3014 	ldr	r3, [fp, #-20]
300033e8:	e50b3018 	str	r3, [fp, #-24]
300033ec:	ea000005 	b	30003408 <LCD_Controller_select+0x98>
300033f0:	e51b3014 	ldr	r3, [fp, #-20]
300033f4:	e2833001 	add	r3, r3, #1	; 0x1
300033f8:	e50b3014 	str	r3, [fp, #-20]
300033fc:	eaffffe2 	b	3000338c <LCD_Controller_select+0x1c>
30003400:	e3e03000 	mvn	r3, #0	; 0x0
30003404:	e50b3018 	str	r3, [fp, #-24]
30003408:	e51b0018 	ldr	r0, [fp, #-24]
3000340c:	e24bd00c 	sub	sp, fp, #12	; 0xc
30003410:	e89da800 	ldmia	sp, {fp, sp, pc}
30003414:	3000cc20 	andcc	ip, r0, r0, lsr #24
30003418:	3000cc48 	andcc	ip, r0, r8, asr #24

3000341c <LCD_Controller_init>:
3000341c:	e1a0c00d 	mov	ip, sp
30003420:	e92dd800 	stmdb	sp!, {fp, ip, lr, pc}
30003424:	e24cb004 	sub	fp, ip, #4	; 0x4
30003428:	e24dd008 	sub	sp, sp, #8	; 0x8
3000342c:	e50b0010 	str	r0, [fp, #-16]
30003430:	e59f3054 	ldr	r3, [pc, #84]	; 3000348c <.text+0x348c>
30003434:	e5933000 	ldr	r3, [r3]
30003438:	e3530000 	cmp	r3, #0	; 0x0
3000343c:	0a00000d 	beq	30003478 <LCD_Controller_init+0x5c>
30003440:	e59f3044 	ldr	r3, [pc, #68]	; 3000348c <.text+0x348c>
30003444:	e5933000 	ldr	r3, [r3]
30003448:	e5933004 	ldr	r3, [r3, #4]
3000344c:	e51b0010 	ldr	r0, [fp, #-16]
30003450:	e1a0e00f 	mov	lr, pc
30003454:	e1a0f003 	mov	pc, r3
30003458:	e59f302c 	ldr	r3, [pc, #44]	; 3000348c <.text+0x348c>
3000345c:	e5933000 	ldr	r3, [r3]
30003460:	e5933010 	ldr	r3, [r3, #16]
30003464:	e1a0e00f 	mov	lr, pc
30003468:	e1a0f003 	mov	pc, r3
3000346c:	e3a03000 	mov	r3, #0	; 0x0
30003470:	e50b3014 	str	r3, [fp, #-20]
30003474:	ea000001 	b	30003480 <LCD_Controller_init+0x64>
30003478:	e3e03000 	mvn	r3, #0	; 0x0
3000347c:	e50b3014 	str	r3, [fp, #-20]
30003480:	e51b0014 	ldr	r0, [fp, #-20]
30003484:	e24bd00c 	sub	sp, fp, #12	; 0xc
30003488:	e89da800 	ldmia	sp, {fp, sp, pc}
3000348c:	3000cc48 	andcc	ip, r0, r8, asr #24

30003490 <LCD_Controller_enable>:
30003490:	e1a0c00d 	mov	ip, sp
30003494:	e92dd800 	stmdb	sp!, {fp, ip, lr, pc}
30003498:	e24cb004 	sub	fp, ip, #4	; 0x4
3000349c:	e24dd004 	sub	sp, sp, #4	; 0x4
300034a0:	e59f3038 	ldr	r3, [pc, #56]	; 300034e0 <.text+0x34e0>
300034a4:	e5933000 	ldr	r3, [r3]
300034a8:	e3530000 	cmp	r3, #0	; 0x0
300034ac:	0a000007 	beq	300034d0 <LCD_Controller_enable+0x40>
300034b0:	e59f3028 	ldr	r3, [pc, #40]	; 300034e0 <.text+0x34e0>
300034b4:	e5933000 	ldr	r3, [r3]
300034b8:	e5933008 	ldr	r3, [r3, #8]
300034bc:	e1a0e00f 	mov	lr, pc
300034c0:	e1a0f003 	mov	pc, r3
300034c4:	e3a03000 	mov	r3, #0	; 0x0
300034c8:	e50b3010 	str	r3, [fp, #-16]
300034cc:	ea000001 	b	300034d8 <LCD_Controller_enable+0x48>
300034d0:	e3e03000 	mvn	r3, #0	; 0x0
300034d4:	e50b3010 	str	r3, [fp, #-16]
300034d8:	e51b0010 	ldr	r0, [fp, #-16]
300034dc:	e89da808 	ldmia	sp, {r3, fp, sp, pc}
300034e0:	3000cc48 	andcc	ip, r0, r8, asr #24

300034e4 <LCD_Controller_disable>:
300034e4:	e1a0c00d 	mov	ip, sp
300034e8:	e92dd800 	stmdb	sp!, {fp, ip, lr, pc}
300034ec:	e24cb004 	sub	fp, ip, #4	; 0x4
300034f0:	e24dd004 	sub	sp, sp, #4	; 0x4
300034f4:	e59f3038 	ldr	r3, [pc, #56]	; 30003534 <.text+0x3534>
300034f8:	e5933000 	ldr	r3, [r3]
300034fc:	e3530000 	cmp	r3, #0	; 0x0
30003500:	0a000007 	beq	30003524 <LCD_Controller_disable+0x40>
30003504:	e59f3028 	ldr	r3, [pc, #40]	; 30003534 <.text+0x3534>
30003508:	e5933000 	ldr	r3, [r3]
3000350c:	e593300c 	ldr	r3, [r3, #12]
30003510:	e1a0e00f 	mov	lr, pc
30003514:	e1a0f003 	mov	pc, r3
30003518:	e3a03000 	mov	r3, #0	; 0x0
3000351c:	e50b3010 	str	r3, [fp, #-16]
30003520:	ea000001 	b	3000352c <LCD_Controller_disable+0x48>
30003524:	e3e03000 	mvn	r3, #0	; 0x0
30003528:	e50b3010 	str	r3, [fp, #-16]
3000352c:	e51b0010 	ldr	r0, [fp, #-16]
30003530:	e89da808 	ldmia	sp, {r3, fp, sp, pc}
30003534:	3000cc48 	andcc	ip, r0, r8, asr #24

30003538 <LCD_Controller_add>:
30003538:	e1a0c00d 	mov	ip, sp
3000353c:	e92dd800 	stmdb	sp!, {fp, ip, lr, pc}
30003540:	e24cb004 	sub	fp, ip, #4	; 0x4
30003544:	eb000204 	bl	30003d5c <S3C2440_LCD_Controller_Register>
30003548:	e89da800 	ldmia	sp, {fp, sp, pc}

3000354c <LCD_register>:
3000354c:	e1a0c00d 	mov	ip, sp
30003550:	e92dd800 	stmdb	sp!, {fp, ip, lr, pc}
30003554:	e24cb004 	sub	fp, ip, #4	; 0x4
30003558:	e24dd00c 	sub	sp, sp, #12	; 0xc
3000355c:	e50b0010 	str	r0, [fp, #-16]
30003560:	e3a03000 	mov	r3, #0	; 0x0
30003564:	e50b3014 	str	r3, [fp, #-20]
30003568:	e51b3014 	ldr	r3, [fp, #-20]
3000356c:	e3530009 	cmp	r3, #9	; 0x9
30003570:	ca00000f 	bgt	300035b4 <LCD_register+0x68>
30003574:	e59f304c 	ldr	r3, [pc, #76]	; 300035c8 <.text+0x35c8>
30003578:	e51b2014 	ldr	r2, [fp, #-20]
3000357c:	e7933102 	ldr	r3, [r3, r2, lsl #2]
30003580:	e3530000 	cmp	r3, #0	; 0x0
30003584:	1a000006 	bne	300035a4 <LCD_register+0x58>
30003588:	e59f1038 	ldr	r1, [pc, #56]	; 300035c8 <.text+0x35c8>
3000358c:	e51b2014 	ldr	r2, [fp, #-20]
30003590:	e51b3010 	ldr	r3, [fp, #-16]
30003594:	e7813102 	str	r3, [r1, r2, lsl #2]
30003598:	e51b3014 	ldr	r3, [fp, #-20]
3000359c:	e50b3018 	str	r3, [fp, #-24]
300035a0:	ea000005 	b	300035bc <LCD_register+0x70>
300035a4:	e51b3014 	ldr	r3, [fp, #-20]
300035a8:	e2833001 	add	r3, r3, #1	; 0x1
300035ac:	e50b3014 	str	r3, [fp, #-20]
300035b0:	eaffffec 	b	30003568 <LCD_register+0x1c>
300035b4:	e3e03000 	mvn	r3, #0	; 0x0
300035b8:	e50b3018 	str	r3, [fp, #-24]
300035bc:	e51b0018 	ldr	r0, [fp, #-24]
300035c0:	e24bd00c 	sub	sp, fp, #12	; 0xc
300035c4:	e89da800 	ldmia	sp, {fp, sp, pc}
300035c8:	3000cc4c 	andcc	ip, r0, ip, asr #24

300035cc <LCD_select>:
300035cc:	e1a0c00d 	mov	ip, sp
300035d0:	e92dd800 	stmdb	sp!, {fp, ip, lr, pc}
300035d4:	e24cb004 	sub	fp, ip, #4	; 0x4
300035d8:	e24dd00c 	sub	sp, sp, #12	; 0xc
300035dc:	e50b0010 	str	r0, [fp, #-16]
300035e0:	e3a03000 	mov	r3, #0	; 0x0
300035e4:	e50b3014 	str	r3, [fp, #-20]
300035e8:	e51b3014 	ldr	r3, [fp, #-20]
300035ec:	e3530009 	cmp	r3, #9	; 0x9
300035f0:	ca000019 	bgt	3000365c <LCD_select+0x90>
300035f4:	e59f3074 	ldr	r3, [pc, #116]	; 30003670 <.text+0x3670>
300035f8:	e51b2014 	ldr	r2, [fp, #-20]
300035fc:	e7933102 	ldr	r3, [r3, r2, lsl #2]
30003600:	e3530000 	cmp	r3, #0	; 0x0
30003604:	0a000010 	beq	3000364c <LCD_select+0x80>
30003608:	e59f2060 	ldr	r2, [pc, #96]	; 30003670 <.text+0x3670>
3000360c:	e51b3014 	ldr	r3, [fp, #-20]
30003610:	e7923103 	ldr	r3, [r2, r3, lsl #2]
30003614:	e5930000 	ldr	r0, [r3]
30003618:	e51b1010 	ldr	r1, [fp, #-16]
3000361c:	eb0011b3 	bl	30007cf0 <strcmp>
30003620:	e1a03000 	mov	r3, r0
30003624:	e3530000 	cmp	r3, #0	; 0x0
30003628:	1a000007 	bne	3000364c <LCD_select+0x80>
3000362c:	e59f1040 	ldr	r1, [pc, #64]	; 30003674 <.text+0x3674>
30003630:	e59f2038 	ldr	r2, [pc, #56]	; 30003670 <.text+0x3670>
30003634:	e51b3014 	ldr	r3, [fp, #-20]
30003638:	e7923103 	ldr	r3, [r2, r3, lsl #2]
3000363c:	e5813000 	str	r3, [r1]
30003640:	e51b3014 	ldr	r3, [fp, #-20]
30003644:	e50b3018 	str	r3, [fp, #-24]
30003648:	ea000005 	b	30003664 <LCD_select+0x98>
3000364c:	e51b3014 	ldr	r3, [fp, #-20]
30003650:	e2833001 	add	r3, r3, #1	; 0x1
30003654:	e50b3014 	str	r3, [fp, #-20]
30003658:	eaffffe2 	b	300035e8 <LCD_select+0x1c>
3000365c:	e3e03000 	mvn	r3, #0	; 0x0
30003660:	e50b3018 	str	r3, [fp, #-24]
30003664:	e51b0018 	ldr	r0, [fp, #-24]
30003668:	e24bd00c 	sub	sp, fp, #12	; 0xc
3000366c:	e89da800 	ldmia	sp, {fp, sp, pc}
30003670:	3000cc4c 	andcc	ip, r0, ip, asr #24
30003674:	3000cc74 	andcc	ip, r0, r4, ror ip

30003678 <LCD_enable>:
30003678:	e1a0c00d 	mov	ip, sp
3000367c:	e92dd800 	stmdb	sp!, {fp, ip, lr, pc}
30003680:	e24cb004 	sub	fp, ip, #4	; 0x4
30003684:	ebffff81 	bl	30003490 <LCD_Controller_enable>
30003688:	e1a03000 	mov	r3, r0
3000368c:	e1a00003 	mov	r0, r3
30003690:	e89da800 	ldmia	sp, {fp, sp, pc}

30003694 <LCD_disable>:
30003694:	e1a0c00d 	mov	ip, sp
30003698:	e92dd800 	stmdb	sp!, {fp, ip, lr, pc}
3000369c:	e24cb004 	sub	fp, ip, #4	; 0x4
300036a0:	ebffff8f 	bl	300034e4 <LCD_Controller_disable>
300036a4:	e1a03000 	mov	r3, r0
300036a8:	e1a00003 	mov	r0, r3
300036ac:	e89da800 	ldmia	sp, {fp, sp, pc}

300036b0 <LCD_add>:
300036b0:	e1a0c00d 	mov	ip, sp
300036b4:	e92dd800 	stmdb	sp!, {fp, ip, lr, pc}
300036b8:	e24cb004 	sub	fp, ip, #4	; 0x4
300036bc:	ebffff04 	bl	300032d4 <LCD_4_3_Register>
300036c0:	e89da800 	ldmia	sp, {fp, sp, pc}

300036c4 <LCD_Init>:
300036c4:	e1a0c00d 	mov	ip, sp
300036c8:	e92dd800 	stmdb	sp!, {fp, ip, lr, pc}
300036cc:	e24cb004 	sub	fp, ip, #4	; 0x4
300036d0:	e24dd004 	sub	sp, sp, #4	; 0x4
300036d4:	ebfffff5 	bl	300036b0 <LCD_add>
300036d8:	ebffff96 	bl	30003538 <LCD_Controller_add>
300036dc:	e59f006c 	ldr	r0, [pc, #108]	; 30003750 <.text+0x3750>
300036e0:	ebffffb9 	bl	300035cc <LCD_select>
300036e4:	e1a03000 	mov	r3, r0
300036e8:	e3730001 	cmn	r3, #1	; 0x1
300036ec:	1a000002 	bne	300036fc <LCD_Init+0x38>
300036f0:	e3e03000 	mvn	r3, #0	; 0x0
300036f4:	e50b3010 	str	r3, [fp, #-16]
300036f8:	ea000012 	b	30003748 <LCD_Init+0x84>
300036fc:	e59f0050 	ldr	r0, [pc, #80]	; 30003754 <.text+0x3754>
30003700:	ebffff1a 	bl	30003370 <LCD_Controller_select>
30003704:	e1a03000 	mov	r3, r0
30003708:	e3730001 	cmn	r3, #1	; 0x1
3000370c:	1a000002 	bne	3000371c <LCD_Init+0x58>
30003710:	e3e03000 	mvn	r3, #0	; 0x0
30003714:	e50b3010 	str	r3, [fp, #-16]
30003718:	ea00000a 	b	30003748 <LCD_Init+0x84>
3000371c:	e59f3034 	ldr	r3, [pc, #52]	; 30003758 <.text+0x3758>
30003720:	e5930000 	ldr	r0, [r3]
30003724:	ebffff3c 	bl	3000341c <LCD_Controller_init>
30003728:	e1a03000 	mov	r3, r0
3000372c:	e3730001 	cmn	r3, #1	; 0x1
30003730:	1a000002 	bne	30003740 <LCD_Init+0x7c>
30003734:	e3e03000 	mvn	r3, #0	; 0x0
30003738:	e50b3010 	str	r3, [fp, #-16]
3000373c:	ea000001 	b	30003748 <LCD_Init+0x84>
30003740:	e3a03000 	mov	r3, #0	; 0x0
30003744:	e50b3010 	str	r3, [fp, #-16]
30003748:	e51b0010 	ldr	r0, [fp, #-16]
3000374c:	e89da808 	ldmia	sp, {r3, fp, sp, pc}
30003750:	3000b268 	andcc	fp, r0, r8, ror #4
30003754:	3000b270 	andcc	fp, r0, r0, ror r2
30003758:	3000cc74 	andcc	ip, r0, r4, ror ip

3000375c <LCD_Get_Params>:
3000375c:	e1a0c00d 	mov	ip, sp
30003760:	e92dd800 	stmdb	sp!, {fp, ip, lr, pc}
30003764:	e24cb004 	sub	fp, ip, #4	; 0x4
30003768:	e24dd010 	sub	sp, sp, #16	; 0x10
3000376c:	e50b0010 	str	r0, [fp, #-16]
30003770:	e50b1014 	str	r1, [fp, #-20]
30003774:	e50b2018 	str	r2, [fp, #-24]
30003778:	e50b301c 	str	r3, [fp, #-28]
3000377c:	e51b2010 	ldr	r2, [fp, #-16]
30003780:	e59f304c 	ldr	r3, [pc, #76]	; 300037d4 <.text+0x37d4>
30003784:	e5933000 	ldr	r3, [r3]
30003788:	e5933048 	ldr	r3, [r3, #72]
3000378c:	e5823000 	str	r3, [r2]
30003790:	e51b2014 	ldr	r2, [fp, #-20]
30003794:	e59f3038 	ldr	r3, [pc, #56]	; 300037d4 <.text+0x37d4>
30003798:	e5933000 	ldr	r3, [r3]
3000379c:	e5933038 	ldr	r3, [r3, #56]
300037a0:	e5823000 	str	r3, [r2]
300037a4:	e51b2018 	ldr	r2, [fp, #-24]
300037a8:	e59f3024 	ldr	r3, [pc, #36]	; 300037d4 <.text+0x37d4>
300037ac:	e5933000 	ldr	r3, [r3]
300037b0:	e593303c 	ldr	r3, [r3, #60]
300037b4:	e5823000 	str	r3, [r2]
300037b8:	e51b201c 	ldr	r2, [fp, #-28]
300037bc:	e59f3010 	ldr	r3, [pc, #16]	; 300037d4 <.text+0x37d4>
300037c0:	e5933000 	ldr	r3, [r3]
300037c4:	e5933040 	ldr	r3, [r3, #64]
300037c8:	e5823000 	str	r3, [r2]
300037cc:	e24bd00c 	sub	sp, fp, #12	; 0xc
300037d0:	e89da800 	ldmia	sp, {fp, sp, pc}
300037d4:	3000cc74 	andcc	ip, r0, r4, ror ip

300037d8 <S3C2440_LCD_GPIO_Init>:
300037d8:	e1a0c00d 	mov	ip, sp
300037dc:	e92dd800 	stmdb	sp!, {fp, ip, lr, pc}
300037e0:	e24cb004 	sub	fp, ip, #4	; 0x4
300037e4:	e3a02456 	mov	r2, #1442840576	; 0x56000000
300037e8:	e2822010 	add	r2, r2, #16	; 0x10
300037ec:	e3a03456 	mov	r3, #1442840576	; 0x56000000
300037f0:	e2833010 	add	r3, r3, #16	; 0x10
300037f4:	e5933000 	ldr	r3, [r3]
300037f8:	e3c33003 	bic	r3, r3, #3	; 0x3
300037fc:	e5823000 	str	r3, [r2]
30003800:	e3a02456 	mov	r2, #1442840576	; 0x56000000
30003804:	e2822010 	add	r2, r2, #16	; 0x10
30003808:	e3a03456 	mov	r3, #1442840576	; 0x56000000
3000380c:	e2833010 	add	r3, r3, #16	; 0x10
30003810:	e5933000 	ldr	r3, [r3]
30003814:	e3833001 	orr	r3, r3, #1	; 0x1
30003818:	e5823000 	str	r3, [r2]
3000381c:	e3a02456 	mov	r2, #1442840576	; 0x56000000
30003820:	e2822020 	add	r2, r2, #32	; 0x20
30003824:	e3a03caa 	mov	r3, #43520	; 0xaa00
30003828:	e28330aa 	add	r3, r3, #170	; 0xaa
3000382c:	e1833803 	orr	r3, r3, r3, lsl #16
30003830:	e5823000 	str	r3, [r2]
30003834:	e3a02456 	mov	r2, #1442840576	; 0x56000000
30003838:	e2822030 	add	r2, r2, #48	; 0x30
3000383c:	e3a03caa 	mov	r3, #43520	; 0xaa00
30003840:	e28330aa 	add	r3, r3, #170	; 0xaa
30003844:	e1833803 	orr	r3, r3, r3, lsl #16
30003848:	e5823000 	str	r3, [r2]
3000384c:	e3a02456 	mov	r2, #1442840576	; 0x56000000
30003850:	e2822060 	add	r2, r2, #96	; 0x60
30003854:	e3a03456 	mov	r3, #1442840576	; 0x56000000
30003858:	e2833060 	add	r3, r3, #96	; 0x60
3000385c:	e5933000 	ldr	r3, [r3]
30003860:	e3c33c03 	bic	r3, r3, #768	; 0x300
30003864:	e5823000 	str	r3, [r2]
30003868:	e3a02456 	mov	r2, #1442840576	; 0x56000000
3000386c:	e2822060 	add	r2, r2, #96	; 0x60
30003870:	e3a03456 	mov	r3, #1442840576	; 0x56000000
30003874:	e2833060 	add	r3, r3, #96	; 0x60
30003878:	e5933000 	ldr	r3, [r3]
3000387c:	e3833c03 	orr	r3, r3, #768	; 0x300
30003880:	e5823000 	str	r3, [r2]
30003884:	e89da800 	ldmia	sp, {fp, sp, pc}

30003888 <S3C2440_LCD_Controller_Init>:
30003888:	e1a0c00d 	mov	ip, sp
3000388c:	e92dd810 	stmdb	sp!, {r4, fp, ip, lr, pc}
30003890:	e24cb004 	sub	fp, ip, #4	; 0x4
30003894:	e24dd020 	sub	sp, sp, #32	; 0x20
30003898:	e50b0014 	str	r0, [fp, #-20]
3000389c:	ebffffcd 	bl	300037d8 <S3C2440_LCD_GPIO_Init>
300038a0:	e51b3014 	ldr	r3, [fp, #-20]
300038a4:	e5930034 	ldr	r0, [r3, #52]
300038a8:	eb001a7e 	bl	3000a2a8 <__floatsisf>
300038ac:	e1a03000 	mov	r3, r0
300038b0:	e59f0318 	ldr	r0, [pc, #792]	; 30003bd0 <.text+0x3bd0>
300038b4:	e1a01003 	mov	r1, r3
300038b8:	eb001afc 	bl	3000a4b0 <__divsf3>
300038bc:	e1a03000 	mov	r3, r0
300038c0:	e1a00003 	mov	r0, r3
300038c4:	e59f1308 	ldr	r1, [pc, #776]	; 30003bd4 <.text+0x3bd4>
300038c8:	eb001af8 	bl	3000a4b0 <__divsf3>
300038cc:	e1a03000 	mov	r3, r0
300038d0:	e1a00003 	mov	r0, r3
300038d4:	e59f12fc 	ldr	r1, [pc, #764]	; 30003bd8 <.text+0x3bd8>
300038d8:	eb0019ff 	bl	3000a0dc <__subsf3>
300038dc:	e1a03000 	mov	r3, r0
300038e0:	e1a00003 	mov	r0, r3
300038e4:	eb001823 	bl	30009978 <__extendsfdf2>
300038e8:	e1a04001 	mov	r4, r1
300038ec:	e1a03000 	mov	r3, r0
300038f0:	e1a01004 	mov	r1, r4
300038f4:	e1a00003 	mov	r0, r3
300038f8:	e28f2fb2 	add	r2, pc, #712	; 0x2c8
300038fc:	e892000c 	ldmia	r2, {r2, r3}
30003900:	eb00174e 	bl	30009640 <__adddf3>
30003904:	e1a04001 	mov	r4, r1
30003908:	e1a03000 	mov	r3, r0
3000390c:	e1a01004 	mov	r1, r4
30003910:	e1a00003 	mov	r0, r3
30003914:	eb0019b3 	bl	30009fe8 <__fixdfsi>
30003918:	e1a03000 	mov	r3, r0
3000391c:	e50b3018 	str	r3, [fp, #-24]
30003920:	e3a03003 	mov	r3, #3	; 0x3
30003924:	e50b301c 	str	r3, [fp, #-28]
30003928:	e51b3014 	ldr	r3, [fp, #-20]
3000392c:	e5933040 	ldr	r3, [r3, #64]
30003930:	e3530008 	cmp	r3, #8	; 0x8
30003934:	0a000009 	beq	30003960 <S3C2440_LCD_Controller_Init+0xd8>
30003938:	e51b3014 	ldr	r3, [fp, #-20]
3000393c:	e5933040 	ldr	r3, [r3, #64]
30003940:	e3530010 	cmp	r3, #16	; 0x10
30003944:	1a000002 	bne	30003954 <S3C2440_LCD_Controller_Init+0xcc>
30003948:	e3a0300c 	mov	r3, #12	; 0xc
3000394c:	e50b302c 	str	r3, [fp, #-44]
30003950:	ea000004 	b	30003968 <S3C2440_LCD_Controller_Init+0xe0>
30003954:	e3a0300d 	mov	r3, #13	; 0xd
30003958:	e50b302c 	str	r3, [fp, #-44]
3000395c:	ea000001 	b	30003968 <S3C2440_LCD_Controller_Init+0xe0>
30003960:	e3a0300b 	mov	r3, #11	; 0xb
30003964:	e50b302c 	str	r3, [fp, #-44]
30003968:	e51b302c 	ldr	r3, [fp, #-44]
3000396c:	e50b3020 	str	r3, [fp, #-32]
30003970:	e3a0144d 	mov	r1, #1291845632	; 0x4d000000
30003974:	e51b3018 	ldr	r3, [fp, #-24]
30003978:	e1a02403 	mov	r2, r3, lsl #8
3000397c:	e51b301c 	ldr	r3, [fp, #-28]
30003980:	e1a03283 	mov	r3, r3, lsl #5
30003984:	e1822003 	orr	r2, r2, r3
30003988:	e51b3020 	ldr	r3, [fp, #-32]
3000398c:	e1a03083 	mov	r3, r3, lsl #1
30003990:	e1823003 	orr	r3, r2, r3
30003994:	e5813000 	str	r3, [r1]
30003998:	e3a0244d 	mov	r2, #1291845632	; 0x4d000000
3000399c:	e2822004 	add	r2, r2, #4	; 0x4
300039a0:	e51b3014 	ldr	r3, [fp, #-20]
300039a4:	e5933020 	ldr	r3, [r3, #32]
300039a8:	e2433001 	sub	r3, r3, #1	; 0x1
300039ac:	e1a01c03 	mov	r1, r3, lsl #24
300039b0:	e51b3014 	ldr	r3, [fp, #-20]
300039b4:	e593303c 	ldr	r3, [r3, #60]
300039b8:	e2433001 	sub	r3, r3, #1	; 0x1
300039bc:	e1a03703 	mov	r3, r3, lsl #14
300039c0:	e1811003 	orr	r1, r1, r3
300039c4:	e51b3014 	ldr	r3, [fp, #-20]
300039c8:	e5933024 	ldr	r3, [r3, #36]
300039cc:	e2433001 	sub	r3, r3, #1	; 0x1
300039d0:	e1a03303 	mov	r3, r3, lsl #6
300039d4:	e1811003 	orr	r1, r1, r3
300039d8:	e51b3014 	ldr	r3, [fp, #-20]
300039dc:	e593301c 	ldr	r3, [r3, #28]
300039e0:	e2433001 	sub	r3, r3, #1	; 0x1
300039e4:	e1813003 	orr	r3, r1, r3
300039e8:	e5823000 	str	r3, [r2]
300039ec:	e3a0244d 	mov	r2, #1291845632	; 0x4d000000
300039f0:	e2822008 	add	r2, r2, #8	; 0x8
300039f4:	e51b3014 	ldr	r3, [fp, #-20]
300039f8:	e593302c 	ldr	r3, [r3, #44]
300039fc:	e2433001 	sub	r3, r3, #1	; 0x1
30003a00:	e1a01983 	mov	r1, r3, lsl #19
30003a04:	e51b3014 	ldr	r3, [fp, #-20]
30003a08:	e5933038 	ldr	r3, [r3, #56]
30003a0c:	e2433001 	sub	r3, r3, #1	; 0x1
30003a10:	e1a03403 	mov	r3, r3, lsl #8
30003a14:	e1811003 	orr	r1, r1, r3
30003a18:	e51b3014 	ldr	r3, [fp, #-20]
30003a1c:	e5933030 	ldr	r3, [r3, #48]
30003a20:	e2433001 	sub	r3, r3, #1	; 0x1
30003a24:	e1813003 	orr	r3, r1, r3
30003a28:	e5823000 	str	r3, [r2]
30003a2c:	e3a0244d 	mov	r2, #1291845632	; 0x4d000000
30003a30:	e282200c 	add	r2, r2, #12	; 0xc
30003a34:	e51b3014 	ldr	r3, [fp, #-20]
30003a38:	e5933028 	ldr	r3, [r3, #40]
30003a3c:	e2433001 	sub	r3, r3, #1	; 0x1
30003a40:	e5823000 	str	r3, [r2]
30003a44:	e51b3014 	ldr	r3, [fp, #-20]
30003a48:	e5933040 	ldr	r3, [r3, #64]
30003a4c:	e3530020 	cmp	r3, #32	; 0x20
30003a50:	0a000010 	beq	30003a98 <S3C2440_LCD_Controller_Init+0x210>
30003a54:	e51b3014 	ldr	r3, [fp, #-20]
30003a58:	e5933040 	ldr	r3, [r3, #64]
30003a5c:	e3530010 	cmp	r3, #16	; 0x10
30003a60:	0a000009 	beq	30003a8c <S3C2440_LCD_Controller_Init+0x204>
30003a64:	e51b3014 	ldr	r3, [fp, #-20]
30003a68:	e5933040 	ldr	r3, [r3, #64]
30003a6c:	e3530008 	cmp	r3, #8	; 0x8
30003a70:	1a000002 	bne	30003a80 <S3C2440_LCD_Controller_Init+0x1f8>
30003a74:	e3a03002 	mov	r3, #2	; 0x2
30003a78:	e50b3030 	str	r3, [fp, #-48]
30003a7c:	ea000007 	b	30003aa0 <S3C2440_LCD_Controller_Init+0x218>
30003a80:	e3a03001 	mov	r3, #1	; 0x1
30003a84:	e50b3030 	str	r3, [fp, #-48]
30003a88:	ea000004 	b	30003aa0 <S3C2440_LCD_Controller_Init+0x218>
30003a8c:	e3a03001 	mov	r3, #1	; 0x1
30003a90:	e50b3030 	str	r3, [fp, #-48]
30003a94:	ea000001 	b	30003aa0 <S3C2440_LCD_Controller_Init+0x218>
30003a98:	e3a03000 	mov	r3, #0	; 0x0
30003a9c:	e50b3030 	str	r3, [fp, #-48]
30003aa0:	e51b3030 	ldr	r3, [fp, #-48]
30003aa4:	e50b3024 	str	r3, [fp, #-36]
30003aa8:	e3a0144d 	mov	r1, #1291845632	; 0x4d000000
30003aac:	e2811010 	add	r1, r1, #16	; 0x10
30003ab0:	e51b3014 	ldr	r3, [fp, #-20]
30003ab4:	e5933044 	ldr	r3, [r3, #68]
30003ab8:	e1a02583 	mov	r2, r3, lsl #11
30003abc:	e51b3014 	ldr	r3, [fp, #-20]
30003ac0:	e593300c 	ldr	r3, [r3, #12]
30003ac4:	e1a03503 	mov	r3, r3, lsl #10
30003ac8:	e1822003 	orr	r2, r2, r3
30003acc:	e51b3014 	ldr	r3, [fp, #-20]
30003ad0:	e5933014 	ldr	r3, [r3, #20]
30003ad4:	e1a03483 	mov	r3, r3, lsl #9
30003ad8:	e1822003 	orr	r2, r2, r3
30003adc:	e51b3014 	ldr	r3, [fp, #-20]
30003ae0:	e5933018 	ldr	r3, [r3, #24]
30003ae4:	e1a03403 	mov	r3, r3, lsl #8
30003ae8:	e1822003 	orr	r2, r2, r3
30003aec:	e51b3014 	ldr	r3, [fp, #-20]
30003af0:	e5933010 	ldr	r3, [r3, #16]
30003af4:	e1a03383 	mov	r3, r3, lsl #7
30003af8:	e1822003 	orr	r2, r2, r3
30003afc:	e51b3014 	ldr	r3, [fp, #-20]
30003b00:	e5933004 	ldr	r3, [r3, #4]
30003b04:	e1a03303 	mov	r3, r3, lsl #6
30003b08:	e1822003 	orr	r2, r2, r3
30003b0c:	e51b3014 	ldr	r3, [fp, #-20]
30003b10:	e5933008 	ldr	r3, [r3, #8]
30003b14:	e1a03283 	mov	r3, r3, lsl #5
30003b18:	e1822003 	orr	r2, r2, r3
30003b1c:	e51b3024 	ldr	r3, [fp, #-36]
30003b20:	e1823003 	orr	r3, r2, r3
30003b24:	e5813000 	str	r3, [r1]
30003b28:	e3a03000 	mov	r3, #0	; 0x0
30003b2c:	e50b3028 	str	r3, [fp, #-40]
30003b30:	e51b3014 	ldr	r3, [fp, #-20]
30003b34:	e5933048 	ldr	r3, [r3, #72]
30003b38:	e3c33102 	bic	r3, r3, #-2147483648	; 0x80000000
30003b3c:	e50b3028 	str	r3, [fp, #-40]
30003b40:	e3a0344d 	mov	r3, #1291845632	; 0x4d000000
30003b44:	e2833014 	add	r3, r3, #20	; 0x14
30003b48:	e51b2028 	ldr	r2, [fp, #-40]
30003b4c:	e1a020a2 	mov	r2, r2, lsr #1
30003b50:	e5832000 	str	r2, [r3]
30003b54:	e51b0014 	ldr	r0, [fp, #-20]
30003b58:	e51b3014 	ldr	r3, [fp, #-20]
30003b5c:	e51b2014 	ldr	r2, [fp, #-20]
30003b60:	e5931038 	ldr	r1, [r3, #56]
30003b64:	e592303c 	ldr	r3, [r2, #60]
30003b68:	e0020193 	mul	r2, r3, r1
30003b6c:	e51b3014 	ldr	r3, [fp, #-20]
30003b70:	e5933040 	ldr	r3, [r3, #64]
30003b74:	e0020293 	mul	r2, r3, r2
30003b78:	e1a03fc2 	mov	r3, r2, asr #31
30003b7c:	e1a03ea3 	mov	r3, r3, lsr #29
30003b80:	e0823003 	add	r3, r2, r3
30003b84:	e1a021c3 	mov	r2, r3, asr #3
30003b88:	e5903048 	ldr	r3, [r0, #72]
30003b8c:	e0833002 	add	r3, r3, r2
30003b90:	e50b3028 	str	r3, [fp, #-40]
30003b94:	e51b3028 	ldr	r3, [fp, #-40]
30003b98:	e1a030a3 	mov	r3, r3, lsr #1
30003b9c:	e50b3028 	str	r3, [fp, #-40]
30003ba0:	e51b3028 	ldr	r3, [fp, #-40]
30003ba4:	e3c334ff 	bic	r3, r3, #-16777216	; 0xff000000
30003ba8:	e3c3360e 	bic	r3, r3, #14680064	; 0xe00000
30003bac:	e50b3028 	str	r3, [fp, #-40]
30003bb0:	e3a0344d 	mov	r3, #1291845632	; 0x4d000000
30003bb4:	e2833018 	add	r3, r3, #24	; 0x18
30003bb8:	e51b2028 	ldr	r2, [fp, #-40]
30003bbc:	e5832000 	str	r2, [r3]
30003bc0:	e24bd010 	sub	sp, fp, #16	; 0x10
30003bc4:	e89da810 	ldmia	sp, {r4, fp, sp, pc}
30003bc8:	3fe00000 	swicc	0x00e00000
30003bcc:	00000000 	andeq	r0, r0, r0
30003bd0:	42c80000 	sbcmi	r0, r8, #0	; 0x0
30003bd4:	40000000 	andmi	r0, r0, r0
30003bd8:	3f800000 	swicc	0x00800000

30003bdc <S3C2440_LCD_Controller_Enable>:
30003bdc:	e1a0c00d 	mov	ip, sp
30003be0:	e92dd800 	stmdb	sp!, {fp, ip, lr, pc}
30003be4:	e24cb004 	sub	fp, ip, #4	; 0x4
30003be8:	e3a02456 	mov	r2, #1442840576	; 0x56000000
30003bec:	e2822014 	add	r2, r2, #20	; 0x14
30003bf0:	e3a03456 	mov	r3, #1442840576	; 0x56000000
30003bf4:	e2833014 	add	r3, r3, #20	; 0x14
30003bf8:	e5933000 	ldr	r3, [r3]
30003bfc:	e3833001 	orr	r3, r3, #1	; 0x1
30003c00:	e5823000 	str	r3, [r2]
30003c04:	e3a0244d 	mov	r2, #1291845632	; 0x4d000000
30003c08:	e2822010 	add	r2, r2, #16	; 0x10
30003c0c:	e3a0344d 	mov	r3, #1291845632	; 0x4d000000
30003c10:	e2833010 	add	r3, r3, #16	; 0x10
30003c14:	e5933000 	ldr	r3, [r3]
30003c18:	e3833008 	orr	r3, r3, #8	; 0x8
30003c1c:	e5823000 	str	r3, [r2]
30003c20:	e3a0244d 	mov	r2, #1291845632	; 0x4d000000
30003c24:	e3a0344d 	mov	r3, #1291845632	; 0x4d000000
30003c28:	e5933000 	ldr	r3, [r3]
30003c2c:	e3833001 	orr	r3, r3, #1	; 0x1
30003c30:	e5823000 	str	r3, [r2]
30003c34:	e89da800 	ldmia	sp, {fp, sp, pc}

30003c38 <S3C2440_LCD_Controller_Disable>:
30003c38:	e1a0c00d 	mov	ip, sp
30003c3c:	e92dd800 	stmdb	sp!, {fp, ip, lr, pc}
30003c40:	e24cb004 	sub	fp, ip, #4	; 0x4
30003c44:	e3a02456 	mov	r2, #1442840576	; 0x56000000
30003c48:	e2822014 	add	r2, r2, #20	; 0x14
30003c4c:	e3a03456 	mov	r3, #1442840576	; 0x56000000
30003c50:	e2833014 	add	r3, r3, #20	; 0x14
30003c54:	e5933000 	ldr	r3, [r3]
30003c58:	e3c33001 	bic	r3, r3, #1	; 0x1
30003c5c:	e5823000 	str	r3, [r2]
30003c60:	e3a0244d 	mov	r2, #1291845632	; 0x4d000000
30003c64:	e2822010 	add	r2, r2, #16	; 0x10
30003c68:	e3a0344d 	mov	r3, #1291845632	; 0x4d000000
30003c6c:	e2833010 	add	r3, r3, #16	; 0x10
30003c70:	e5933000 	ldr	r3, [r3]
30003c74:	e3c33008 	bic	r3, r3, #8	; 0x8
30003c78:	e5823000 	str	r3, [r2]
30003c7c:	e3a0244d 	mov	r2, #1291845632	; 0x4d000000
30003c80:	e3a0344d 	mov	r3, #1291845632	; 0x4d000000
30003c84:	e5933000 	ldr	r3, [r3]
30003c88:	e3c33001 	bic	r3, r3, #1	; 0x1
30003c8c:	e5823000 	str	r3, [r2]
30003c90:	e89da800 	ldmia	sp, {fp, sp, pc}

30003c94 <S3C2440_LCD_Controller_Init_Palette>:
30003c94:	e1a0c00d 	mov	ip, sp
30003c98:	e92dd800 	stmdb	sp!, {fp, ip, lr, pc}
30003c9c:	e24cb004 	sub	fp, ip, #4	; 0x4
30003ca0:	e24dd00c 	sub	sp, sp, #12	; 0xc
30003ca4:	e3a0344d 	mov	r3, #1291845632	; 0x4d000000
30003ca8:	e2833b01 	add	r3, r3, #1024	; 0x400
30003cac:	e50b3010 	str	r3, [fp, #-16]
30003cb0:	e3a0344d 	mov	r3, #1291845632	; 0x4d000000
30003cb4:	e5933000 	ldr	r3, [r3]
30003cb8:	e2033001 	and	r3, r3, #1	; 0x1
30003cbc:	e50b3014 	str	r3, [fp, #-20]
30003cc0:	e51b3014 	ldr	r3, [fp, #-20]
30003cc4:	e3530000 	cmp	r3, #0	; 0x0
30003cc8:	0a000004 	beq	30003ce0 <S3C2440_LCD_Controller_Init_Palette+0x4c>
30003ccc:	e3a0244d 	mov	r2, #1291845632	; 0x4d000000
30003cd0:	e3a0344d 	mov	r3, #1291845632	; 0x4d000000
30003cd4:	e5933000 	ldr	r3, [r3]
30003cd8:	e3c33001 	bic	r3, r3, #1	; 0x1
30003cdc:	e5823000 	str	r3, [r2]
30003ce0:	e3a03000 	mov	r3, #0	; 0x0
30003ce4:	e50b3018 	str	r3, [fp, #-24]
30003ce8:	e51b3018 	ldr	r3, [fp, #-24]
30003cec:	e35300ff 	cmp	r3, #255	; 0xff
30003cf0:	ca00000e 	bgt	30003d30 <S3C2440_LCD_Controller_Init_Palette+0x9c>
30003cf4:	e24b0010 	sub	r0, fp, #16	; 0x10
30003cf8:	e5902000 	ldr	r2, [r0]
30003cfc:	e59f1054 	ldr	r1, [pc, #84]	; 30003d58 <.text+0x3d58>
30003d00:	e51b3018 	ldr	r3, [fp, #-24]
30003d04:	e1a03083 	mov	r3, r3, lsl #1
30003d08:	e0833001 	add	r3, r3, r1
30003d0c:	e1d310b0 	ldrh	r1, [r3]
30003d10:	e1a03002 	mov	r3, r2
30003d14:	e5831000 	str	r1, [r3]
30003d18:	e2822004 	add	r2, r2, #4	; 0x4
30003d1c:	e5802000 	str	r2, [r0]
30003d20:	e51b3018 	ldr	r3, [fp, #-24]
30003d24:	e2833001 	add	r3, r3, #1	; 0x1
30003d28:	e50b3018 	str	r3, [fp, #-24]
30003d2c:	eaffffed 	b	30003ce8 <S3C2440_LCD_Controller_Init_Palette+0x54>
30003d30:	e51b3014 	ldr	r3, [fp, #-20]
30003d34:	e3530000 	cmp	r3, #0	; 0x0
30003d38:	0a000004 	beq	30003d50 <S3C2440_LCD_Controller_Init_Palette+0xbc>
30003d3c:	e3a0244d 	mov	r2, #1291845632	; 0x4d000000
30003d40:	e3a0344d 	mov	r3, #1291845632	; 0x4d000000
30003d44:	e5933000 	ldr	r3, [r3]
30003d48:	e3833001 	orr	r3, r3, #1	; 0x1
30003d4c:	e5823000 	str	r3, [r2]
30003d50:	e24bd00c 	sub	sp, fp, #12	; 0xc
30003d54:	e89da800 	ldmia	sp, {fp, sp, pc}
30003d58:	3000b278 	andcc	fp, r0, r8, ror r2

30003d5c <S3C2440_LCD_Controller_Register>:
30003d5c:	e1a0c00d 	mov	ip, sp
30003d60:	e92dd800 	stmdb	sp!, {fp, ip, lr, pc}
30003d64:	e24cb004 	sub	fp, ip, #4	; 0x4
30003d68:	e59f0004 	ldr	r0, [pc, #4]	; 30003d74 <.text+0x3d74>
30003d6c:	ebfffd5f 	bl	300032f0 <LCD_Controller_register>
30003d70:	e89da800 	ldmia	sp, {fp, sp, pc}
30003d74:	3000caf0 	strccd	ip, [r0], -r0

30003d78 <S3C2440_AdcInitialized>:
30003d78:	e1a0c00d 	mov	ip, sp
30003d7c:	e92dd800 	stmdb	sp!, {fp, ip, lr, pc}
30003d80:	e24cb004 	sub	fp, ip, #4	; 0x4
30003d84:	e3a02316 	mov	r2, #1476395008	; 0x58000000
30003d88:	e3a03b13 	mov	r3, #19456	; 0x4c00
30003d8c:	e2833040 	add	r3, r3, #64	; 0x40
30003d90:	e5823000 	str	r3, [r2]
30003d94:	e3a03316 	mov	r3, #1476395008	; 0x58000000
30003d98:	e2833008 	add	r3, r3, #8	; 0x8
30003d9c:	e3a020ff 	mov	r2, #255	; 0xff
30003da0:	e5832000 	str	r2, [r3]
30003da4:	e89da800 	ldmia	sp, {fp, sp, pc}

30003da8 <S3C2440_AdcRead_AIN0>:
30003da8:	e1a0c00d 	mov	ip, sp
30003dac:	e92dd800 	stmdb	sp!, {fp, ip, lr, pc}
30003db0:	e24cb004 	sub	fp, ip, #4	; 0x4
30003db4:	e24dd004 	sub	sp, sp, #4	; 0x4
30003db8:	e3a03000 	mov	r3, #0	; 0x0
30003dbc:	e50b3010 	str	r3, [fp, #-16]
30003dc0:	e3a02316 	mov	r2, #1476395008	; 0x58000000
30003dc4:	e3a03316 	mov	r3, #1476395008	; 0x58000000
30003dc8:	e5933000 	ldr	r3, [r3]
30003dcc:	e3833001 	orr	r3, r3, #1	; 0x1
30003dd0:	e5823000 	str	r3, [r2]
30003dd4:	e3a03316 	mov	r3, #1476395008	; 0x58000000
30003dd8:	e5933000 	ldr	r3, [r3]
30003ddc:	e2033902 	and	r3, r3, #32768	; 0x8000
30003de0:	e3530000 	cmp	r3, #0	; 0x0
30003de4:	1a000000 	bne	30003dec <S3C2440_AdcRead_AIN0+0x44>
30003de8:	eafffff9 	b	30003dd4 <S3C2440_AdcRead_AIN0+0x2c>
30003dec:	e3a03316 	mov	r3, #1476395008	; 0x58000000
30003df0:	e283300c 	add	r3, r3, #12	; 0xc
30003df4:	e5933000 	ldr	r3, [r3]
30003df8:	e1a03b03 	mov	r3, r3, lsl #22
30003dfc:	e1a03b23 	mov	r3, r3, lsr #22
30003e00:	e50b3010 	str	r3, [fp, #-16]
30003e04:	e3a02316 	mov	r2, #1476395008	; 0x58000000
30003e08:	e3a03316 	mov	r3, #1476395008	; 0x58000000
30003e0c:	e5933000 	ldr	r3, [r3]
30003e10:	e3c33001 	bic	r3, r3, #1	; 0x1
30003e14:	e5823000 	str	r3, [r2]
30003e18:	e51b3010 	ldr	r3, [fp, #-16]
30003e1c:	e1a00003 	mov	r0, r3
30003e20:	e89da808 	ldmia	sp, {r3, fp, sp, pc}

30003e24 <TouchScreen_Timer_Enable>:
30003e24:	e1a0c00d 	mov	ip, sp
30003e28:	e92dd800 	stmdb	sp!, {fp, ip, lr, pc}
30003e2c:	e24cb004 	sub	fp, ip, #4	; 0x4
30003e30:	e59f2008 	ldr	r2, [pc, #8]	; 30003e40 <.text+0x3e40>
30003e34:	e3a03001 	mov	r3, #1	; 0x1
30003e38:	e5823000 	str	r3, [r2]
30003e3c:	e89da800 	ldmia	sp, {fp, sp, pc}
30003e40:	3000cc78 	andcc	ip, r0, r8, ror ip

30003e44 <TouchScreen_Timer_Disable>:
30003e44:	e1a0c00d 	mov	ip, sp
30003e48:	e92dd800 	stmdb	sp!, {fp, ip, lr, pc}
30003e4c:	e24cb004 	sub	fp, ip, #4	; 0x4
30003e50:	e59f2008 	ldr	r2, [pc, #8]	; 30003e60 <.text+0x3e60>
30003e54:	e3a03000 	mov	r3, #0	; 0x0
30003e58:	e5823000 	str	r3, [r2]
30003e5c:	e89da800 	ldmia	sp, {fp, sp, pc}
30003e60:	3000cc78 	andcc	ip, r0, r8, ror ip

30003e64 <TouchScreen_Timer_GetStatus>:
30003e64:	e1a0c00d 	mov	ip, sp
30003e68:	e92dd800 	stmdb	sp!, {fp, ip, lr, pc}
30003e6c:	e24cb004 	sub	fp, ip, #4	; 0x4
30003e70:	e59f3008 	ldr	r3, [pc, #8]	; 30003e80 <.text+0x3e80>
30003e74:	e5933000 	ldr	r3, [r3]
30003e78:	e1a00003 	mov	r0, r3
30003e7c:	e89da800 	ldmia	sp, {fp, sp, pc}
30003e80:	3000cc78 	andcc	ip, r0, r8, ror ip

30003e84 <TouchScreen_Enter_Wait_Pen_Down_Mode>:
30003e84:	e1a0c00d 	mov	ip, sp
30003e88:	e92dd800 	stmdb	sp!, {fp, ip, lr, pc}
30003e8c:	e24cb004 	sub	fp, ip, #4	; 0x4
30003e90:	e3a03316 	mov	r3, #1476395008	; 0x58000000
30003e94:	e2833004 	add	r3, r3, #4	; 0x4
30003e98:	e3a020d3 	mov	r2, #211	; 0xd3
30003e9c:	e5832000 	str	r2, [r3]
30003ea0:	e89da800 	ldmia	sp, {fp, sp, pc}

30003ea4 <TouchScreen_Enter_Wait_Pen_Up_Mode>:
30003ea4:	e1a0c00d 	mov	ip, sp
30003ea8:	e92dd800 	stmdb	sp!, {fp, ip, lr, pc}
30003eac:	e24cb004 	sub	fp, ip, #4	; 0x4
30003eb0:	e3a02316 	mov	r2, #1476395008	; 0x58000000
30003eb4:	e2822004 	add	r2, r2, #4	; 0x4
30003eb8:	e3a03e1d 	mov	r3, #464	; 0x1d0
30003ebc:	e2833003 	add	r3, r3, #3	; 0x3
30003ec0:	e5823000 	str	r3, [r2]
30003ec4:	e89da800 	ldmia	sp, {fp, sp, pc}

30003ec8 <TouchScreen_Enter_Auto_Measure_Mode>:
30003ec8:	e1a0c00d 	mov	ip, sp
30003ecc:	e92dd800 	stmdb	sp!, {fp, ip, lr, pc}
30003ed0:	e24cb004 	sub	fp, ip, #4	; 0x4
30003ed4:	e3a03316 	mov	r3, #1476395008	; 0x58000000
30003ed8:	e2833004 	add	r3, r3, #4	; 0x4
30003edc:	e3a02004 	mov	r2, #4	; 0x4
30003ee0:	e5832000 	str	r2, [r3]
30003ee4:	e89da800 	ldmia	sp, {fp, sp, pc}

30003ee8 <S3C2440_TouchScreen_ADC_Register_Init>:
30003ee8:	e1a0c00d 	mov	ip, sp
30003eec:	e92dd800 	stmdb	sp!, {fp, ip, lr, pc}
30003ef0:	e24cb004 	sub	fp, ip, #4	; 0x4
30003ef4:	e3a02316 	mov	r2, #1476395008	; 0x58000000
30003ef8:	e3a03b13 	mov	r3, #19456	; 0x4c00
30003efc:	e2833040 	add	r3, r3, #64	; 0x40
30003f00:	e5823000 	str	r3, [r2]
30003f04:	e3a02316 	mov	r2, #1476395008	; 0x58000000
30003f08:	e2822008 	add	r2, r2, #8	; 0x8
30003f0c:	e3a03cea 	mov	r3, #59904	; 0xea00
30003f10:	e2833060 	add	r3, r3, #96	; 0x60
30003f14:	e5823000 	str	r3, [r2]
30003f18:	e89da800 	ldmia	sp, {fp, sp, pc}

30003f1c <S3C2440_TouchScreen_ADC_Interrupt_Init>:
30003f1c:	e1a0c00d 	mov	ip, sp
30003f20:	e92dd800 	stmdb	sp!, {fp, ip, lr, pc}
30003f24:	e24cb004 	sub	fp, ip, #4	; 0x4
30003f28:	e3a0344a 	mov	r3, #1241513984	; 0x4a000000
30003f2c:	e2833018 	add	r3, r3, #24	; 0x18
30003f30:	e3a02c06 	mov	r2, #1536	; 0x600
30003f34:	e5832000 	str	r2, [r3]
30003f38:	e3a0001f 	mov	r0, #31	; 0x1f
30003f3c:	e59f1020 	ldr	r1, [pc, #32]	; 30003f64 <.text+0x3f64>
30003f40:	ebfff0fd 	bl	3000033c <S3C2440_IRQRegister>
30003f44:	e3a0244a 	mov	r2, #1241513984	; 0x4a000000
30003f48:	e282201c 	add	r2, r2, #28	; 0x1c
30003f4c:	e3a0344a 	mov	r3, #1241513984	; 0x4a000000
30003f50:	e283301c 	add	r3, r3, #28	; 0x1c
30003f54:	e5933000 	ldr	r3, [r3]
30003f58:	e3c33c06 	bic	r3, r3, #1536	; 0x600
30003f5c:	e5823000 	str	r3, [r2]
30003f60:	e89da800 	ldmia	sp, {fp, sp, pc}
30003f64:	30004094 	mulcc	r0, r4, r0

30003f68 <S3C2440_TouchScreen_Init>:
30003f68:	e1a0c00d 	mov	ip, sp
30003f6c:	e92dd800 	stmdb	sp!, {fp, ip, lr, pc}
30003f70:	e24cb004 	sub	fp, ip, #4	; 0x4
30003f74:	ebffffdb 	bl	30003ee8 <S3C2440_TouchScreen_ADC_Register_Init>
30003f78:	ebffffe7 	bl	30003f1c <S3C2440_TouchScreen_ADC_Interrupt_Init>
30003f7c:	e59f0010 	ldr	r0, [pc, #16]	; 30003f94 <.text+0x3f94>
30003f80:	e3a0100a 	mov	r1, #10	; 0xa
30003f84:	e59f200c 	ldr	r2, [pc, #12]	; 30003f98 <.text+0x3f98>
30003f88:	ebfff8d7 	bl	300022ec <S3C2440_TIMER_Register>
30003f8c:	ebffffbc 	bl	30003e84 <TouchScreen_Enter_Wait_Pen_Down_Mode>
30003f90:	e89da800 	ldmia	sp, {fp, sp, pc}
30003f94:	3000c480 	andcc	ip, r0, r0, lsl #9
30003f98:	30004104 	andcc	r4, r0, r4, lsl #2

30003f9c <S3C2440_TouchScreen_ADC_Isr_Adc>:
30003f9c:	e1a0c00d 	mov	ip, sp
30003fa0:	e92dd800 	stmdb	sp!, {fp, ip, lr, pc}
30003fa4:	e24cb004 	sub	fp, ip, #4	; 0x4
30003fa8:	e24dd008 	sub	sp, sp, #8	; 0x8
30003fac:	e3a03316 	mov	r3, #1476395008	; 0x58000000
30003fb0:	e283300c 	add	r3, r3, #12	; 0xc
30003fb4:	e5933000 	ldr	r3, [r3]
30003fb8:	e50b3010 	str	r3, [fp, #-16]
30003fbc:	e3a03316 	mov	r3, #1476395008	; 0x58000000
30003fc0:	e2833010 	add	r3, r3, #16	; 0x10
30003fc4:	e5933000 	ldr	r3, [r3]
30003fc8:	e50b3014 	str	r3, [fp, #-20]
30003fcc:	e51b3010 	ldr	r3, [fp, #-16]
30003fd0:	e2033902 	and	r3, r3, #32768	; 0x8000
30003fd4:	e3530000 	cmp	r3, #0	; 0x0
30003fd8:	1a00000d 	bne	30004014 <S3C2440_TouchScreen_ADC_Isr_Adc+0x78>
30003fdc:	e51b3010 	ldr	r3, [fp, #-16]
30003fe0:	e1a03b03 	mov	r3, r3, lsl #22
30003fe4:	e1a03b23 	mov	r3, r3, lsr #22
30003fe8:	e50b3010 	str	r3, [fp, #-16]
30003fec:	e51b3014 	ldr	r3, [fp, #-20]
30003ff0:	e1a03b03 	mov	r3, r3, lsl #22
30003ff4:	e1a03b23 	mov	r3, r3, lsr #22
30003ff8:	e50b3014 	str	r3, [fp, #-20]
30003ffc:	e59f0028 	ldr	r0, [pc, #40]	; 3000402c <.text+0x402c>
30004000:	e51b1010 	ldr	r1, [fp, #-16]
30004004:	e51b2014 	ldr	r2, [fp, #-20]
30004008:	eb000bf8 	bl	30006ff0 <printfln_>
3000400c:	ebffff84 	bl	30003e24 <TouchScreen_Timer_Enable>
30004010:	ea000002 	b	30004020 <S3C2440_TouchScreen_ADC_Isr_Adc+0x84>
30004014:	ebffff8a 	bl	30003e44 <TouchScreen_Timer_Disable>
30004018:	ebffff99 	bl	30003e84 <TouchScreen_Enter_Wait_Pen_Down_Mode>
3000401c:	ea000000 	b	30004024 <S3C2440_TouchScreen_ADC_Isr_Adc+0x88>
30004020:	ebffff9f 	bl	30003ea4 <TouchScreen_Enter_Wait_Pen_Up_Mode>
30004024:	e24bd00c 	sub	sp, fp, #12	; 0xc
30004028:	e89da800 	ldmia	sp, {fp, sp, pc}
3000402c:	3000c494 	mulcc	r0, r4, r4

30004030 <S3C2440_TouchScreen_ADC_Isr_Tc>:
30004030:	e1a0c00d 	mov	ip, sp
30004034:	e92dd800 	stmdb	sp!, {fp, ip, lr, pc}
30004038:	e24cb004 	sub	fp, ip, #4	; 0x4
3000403c:	e3a03316 	mov	r3, #1476395008	; 0x58000000
30004040:	e283300c 	add	r3, r3, #12	; 0xc
30004044:	e5933000 	ldr	r3, [r3]
30004048:	e2033902 	and	r3, r3, #32768	; 0x8000
3000404c:	e3530000 	cmp	r3, #0	; 0x0
30004050:	0a000004 	beq	30004068 <S3C2440_TouchScreen_ADC_Isr_Tc+0x38>
30004054:	e59f0030 	ldr	r0, [pc, #48]	; 3000408c <.text+0x408c>
30004058:	eb000be4 	bl	30006ff0 <printfln_>
3000405c:	ebffff78 	bl	30003e44 <TouchScreen_Timer_Disable>
30004060:	ebffff87 	bl	30003e84 <TouchScreen_Enter_Wait_Pen_Down_Mode>
30004064:	ea000007 	b	30004088 <S3C2440_TouchScreen_ADC_Isr_Tc+0x58>
30004068:	e59f0020 	ldr	r0, [pc, #32]	; 30004090 <.text+0x4090>
3000406c:	eb000bdf 	bl	30006ff0 <printfln_>
30004070:	ebffff94 	bl	30003ec8 <TouchScreen_Enter_Auto_Measure_Mode>
30004074:	e3a02316 	mov	r2, #1476395008	; 0x58000000
30004078:	e3a03316 	mov	r3, #1476395008	; 0x58000000
3000407c:	e5933000 	ldr	r3, [r3]
30004080:	e3833001 	orr	r3, r3, #1	; 0x1
30004084:	e5823000 	str	r3, [r2]
30004088:	e89da800 	ldmia	sp, {fp, sp, pc}
3000408c:	3000c4b8 	strcch	ip, [r0], -r8
30004090:	3000c4d0 	ldrccd	ip, [r0], -r0

30004094 <S3C2440_TouchScreen_ADC_Irq>:
30004094:	e1a0c00d 	mov	ip, sp
30004098:	e92dd800 	stmdb	sp!, {fp, ip, lr, pc}
3000409c:	e24cb004 	sub	fp, ip, #4	; 0x4
300040a0:	e24dd004 	sub	sp, sp, #4	; 0x4
300040a4:	e50b0010 	str	r0, [fp, #-16]
300040a8:	e3a0344a 	mov	r3, #1241513984	; 0x4a000000
300040ac:	e2833018 	add	r3, r3, #24	; 0x18
300040b0:	e5933000 	ldr	r3, [r3]
300040b4:	e2033b01 	and	r3, r3, #1024	; 0x400
300040b8:	e3530000 	cmp	r3, #0	; 0x0
300040bc:	0a000004 	beq	300040d4 <S3C2440_TouchScreen_ADC_Irq+0x40>
300040c0:	ebffffb5 	bl	30003f9c <S3C2440_TouchScreen_ADC_Isr_Adc>
300040c4:	e3a0344a 	mov	r3, #1241513984	; 0x4a000000
300040c8:	e2833018 	add	r3, r3, #24	; 0x18
300040cc:	e3a02b01 	mov	r2, #1024	; 0x400
300040d0:	e5832000 	str	r2, [r3]
300040d4:	e3a0344a 	mov	r3, #1241513984	; 0x4a000000
300040d8:	e2833018 	add	r3, r3, #24	; 0x18
300040dc:	e5933000 	ldr	r3, [r3]
300040e0:	e2033c02 	and	r3, r3, #512	; 0x200
300040e4:	e3530000 	cmp	r3, #0	; 0x0
300040e8:	0a000004 	beq	30004100 <S3C2440_TouchScreen_ADC_Irq+0x6c>
300040ec:	ebffffcf 	bl	30004030 <S3C2440_TouchScreen_ADC_Isr_Tc>
300040f0:	e3a0344a 	mov	r3, #1241513984	; 0x4a000000
300040f4:	e2833018 	add	r3, r3, #24	; 0x18
300040f8:	e3a02c02 	mov	r2, #512	; 0x200
300040fc:	e5832000 	str	r2, [r3]
30004100:	e89da808 	ldmia	sp, {r3, fp, sp, pc}

30004104 <S3C2440_TouchScreen_Timer_Irq>:
30004104:	e1a0c00d 	mov	ip, sp
30004108:	e92dd800 	stmdb	sp!, {fp, ip, lr, pc}
3000410c:	e24cb004 	sub	fp, ip, #4	; 0x4
30004110:	ebffff53 	bl	30003e64 <TouchScreen_Timer_GetStatus>
30004114:	e1a03000 	mov	r3, r0
30004118:	e3530000 	cmp	r3, #0	; 0x0
3000411c:	1a000000 	bne	30004124 <S3C2440_TouchScreen_Timer_Irq+0x20>
30004120:	ea00000e 	b	30004160 <S3C2440_TouchScreen_Timer_Irq+0x5c>
30004124:	e3a03316 	mov	r3, #1476395008	; 0x58000000
30004128:	e283300c 	add	r3, r3, #12	; 0xc
3000412c:	e5933000 	ldr	r3, [r3]
30004130:	e2033902 	and	r3, r3, #32768	; 0x8000
30004134:	e3530000 	cmp	r3, #0	; 0x0
30004138:	0a000002 	beq	30004148 <S3C2440_TouchScreen_Timer_Irq+0x44>
3000413c:	ebffff40 	bl	30003e44 <TouchScreen_Timer_Disable>
30004140:	ebffff4f 	bl	30003e84 <TouchScreen_Enter_Wait_Pen_Down_Mode>
30004144:	ea000005 	b	30004160 <S3C2440_TouchScreen_Timer_Irq+0x5c>
30004148:	ebffff5e 	bl	30003ec8 <TouchScreen_Enter_Auto_Measure_Mode>
3000414c:	e3a02316 	mov	r2, #1476395008	; 0x58000000
30004150:	e3a03316 	mov	r3, #1476395008	; 0x58000000
30004154:	e5933000 	ldr	r3, [r3]
30004158:	e3833001 	orr	r3, r3, #1	; 0x1
3000415c:	e5823000 	str	r3, [r2]
30004160:	e89da800 	ldmia	sp, {fp, sp, pc}

30004164 <_atoi>:
30004164:	e1a0c00d 	mov	ip, sp
30004168:	e92dd800 	stmdb	sp!, {fp, ip, lr, pc}
3000416c:	e24cb004 	sub	fp, ip, #4	; 0x4
30004170:	e24dd008 	sub	sp, sp, #8	; 0x8
30004174:	e50b0010 	str	r0, [fp, #-16]
30004178:	e3a03000 	mov	r3, #0	; 0x0
3000417c:	e50b3014 	str	r3, [fp, #-20]
30004180:	e51b3010 	ldr	r3, [fp, #-16]
30004184:	e5933000 	ldr	r3, [r3]
30004188:	e5d33000 	ldrb	r3, [r3]
3000418c:	e1a00003 	mov	r0, r3
30004190:	eb000016 	bl	300041f0 <_is_digit>
30004194:	e1a03000 	mov	r3, r0
30004198:	e20330ff 	and	r3, r3, #255	; 0xff
3000419c:	e3530000 	cmp	r3, #0	; 0x0
300041a0:	0a00000e 	beq	300041e0 <_atoi+0x7c>
300041a4:	e51b2014 	ldr	r2, [fp, #-20]
300041a8:	e1a03002 	mov	r3, r2
300041ac:	e1a03103 	mov	r3, r3, lsl #2
300041b0:	e0833002 	add	r3, r3, r2
300041b4:	e1a01083 	mov	r1, r3, lsl #1
300041b8:	e51b0010 	ldr	r0, [fp, #-16]
300041bc:	e5902000 	ldr	r2, [r0]
300041c0:	e1a03002 	mov	r3, r2
300041c4:	e5d33000 	ldrb	r3, [r3]
300041c8:	e0813003 	add	r3, r1, r3
300041cc:	e2433030 	sub	r3, r3, #48	; 0x30
300041d0:	e2822001 	add	r2, r2, #1	; 0x1
300041d4:	e5802000 	str	r2, [r0]
300041d8:	e50b3014 	str	r3, [fp, #-20]
300041dc:	eaffffe7 	b	30004180 <_atoi+0x1c>
300041e0:	e51b3014 	ldr	r3, [fp, #-20]
300041e4:	e1a00003 	mov	r0, r3
300041e8:	e24bd00c 	sub	sp, fp, #12	; 0xc
300041ec:	e89da800 	ldmia	sp, {fp, sp, pc}

300041f0 <_is_digit>:
300041f0:	e1a0c00d 	mov	ip, sp
300041f4:	e92dd800 	stmdb	sp!, {fp, ip, lr, pc}
300041f8:	e24cb004 	sub	fp, ip, #4	; 0x4
300041fc:	e24dd008 	sub	sp, sp, #8	; 0x8
30004200:	e1a03000 	mov	r3, r0
30004204:	e54b300d 	strb	r3, [fp, #-13]
30004208:	e3a03000 	mov	r3, #0	; 0x0
3000420c:	e54b3014 	strb	r3, [fp, #-20]
30004210:	e55b300d 	ldrb	r3, [fp, #-13]
30004214:	e353002f 	cmp	r3, #47	; 0x2f
30004218:	9a000004 	bls	30004230 <_is_digit+0x40>
3000421c:	e55b300d 	ldrb	r3, [fp, #-13]
30004220:	e3530039 	cmp	r3, #57	; 0x39
30004224:	8a000001 	bhi	30004230 <_is_digit+0x40>
30004228:	e3a03001 	mov	r3, #1	; 0x1
3000422c:	e54b3014 	strb	r3, [fp, #-20]
30004230:	e55b2014 	ldrb	r2, [fp, #-20]
30004234:	e20230ff 	and	r3, r2, #255	; 0xff
30004238:	e1a00003 	mov	r0, r3
3000423c:	e24bd00c 	sub	sp, fp, #12	; 0xc
30004240:	e89da800 	ldmia	sp, {fp, sp, pc}

30004244 <_out_rev>:
30004244:	e1a0c00d 	mov	ip, sp
30004248:	e92dd800 	stmdb	sp!, {fp, ip, lr, pc}
3000424c:	e24cb004 	sub	fp, ip, #4	; 0x4
30004250:	e24dd018 	sub	sp, sp, #24	; 0x18
30004254:	e50b0010 	str	r0, [fp, #-16]
30004258:	e50b1014 	str	r1, [fp, #-20]
3000425c:	e50b2018 	str	r2, [fp, #-24]
30004260:	e50b301c 	str	r3, [fp, #-28]
30004264:	e51b3018 	ldr	r3, [fp, #-24]
30004268:	e50b3020 	str	r3, [fp, #-32]
3000426c:	e59b3010 	ldr	r3, [fp, #16]
30004270:	e2033002 	and	r3, r3, #2	; 0x2
30004274:	e3530000 	cmp	r3, #0	; 0x0
30004278:	1a000019 	bne	300042e4 <_out_rev+0xa0>
3000427c:	e59b3010 	ldr	r3, [fp, #16]
30004280:	e2033001 	and	r3, r3, #1	; 0x1
30004284:	e3530000 	cmp	r3, #0	; 0x0
30004288:	1a000015 	bne	300042e4 <_out_rev+0xa0>
3000428c:	e59b3008 	ldr	r3, [fp, #8]
30004290:	e50b3024 	str	r3, [fp, #-36]
30004294:	e51b2024 	ldr	r2, [fp, #-36]
30004298:	e59b300c 	ldr	r3, [fp, #12]
3000429c:	e1520003 	cmp	r2, r3
300042a0:	2a00000f 	bcs	300042e4 <_out_rev+0xa0>
300042a4:	e24b2018 	sub	r2, fp, #24	; 0x18
300042a8:	e5923000 	ldr	r3, [r2]
300042ac:	e1a0e003 	mov	lr, r3
300042b0:	e2833001 	add	r3, r3, #1	; 0x1
300042b4:	e5823000 	str	r3, [r2]
300042b8:	e51bc010 	ldr	ip, [fp, #-16]
300042bc:	e3a00020 	mov	r0, #32	; 0x20
300042c0:	e51b1014 	ldr	r1, [fp, #-20]
300042c4:	e1a0200e 	mov	r2, lr
300042c8:	e51b301c 	ldr	r3, [fp, #-28]
300042cc:	e1a0e00f 	mov	lr, pc
300042d0:	e1a0f00c 	mov	pc, ip
300042d4:	e51b3024 	ldr	r3, [fp, #-36]
300042d8:	e2833001 	add	r3, r3, #1	; 0x1
300042dc:	e50b3024 	str	r3, [fp, #-36]
300042e0:	eaffffeb 	b	30004294 <_out_rev+0x50>
300042e4:	e59b3008 	ldr	r3, [fp, #8]
300042e8:	e3530000 	cmp	r3, #0	; 0x0
300042ec:	0a000013 	beq	30004340 <_out_rev+0xfc>
300042f0:	e59b3008 	ldr	r3, [fp, #8]
300042f4:	e2433001 	sub	r3, r3, #1	; 0x1
300042f8:	e1a02003 	mov	r2, r3
300042fc:	e58b2008 	str	r2, [fp, #8]
30004300:	e59b3004 	ldr	r3, [fp, #4]
30004304:	e0823003 	add	r3, r2, r3
30004308:	e5d31000 	ldrb	r1, [r3]
3000430c:	e24b2018 	sub	r2, fp, #24	; 0x18
30004310:	e5923000 	ldr	r3, [r2]
30004314:	e1a0e003 	mov	lr, r3
30004318:	e2833001 	add	r3, r3, #1	; 0x1
3000431c:	e5823000 	str	r3, [r2]
30004320:	e51bc010 	ldr	ip, [fp, #-16]
30004324:	e1a00001 	mov	r0, r1
30004328:	e51b1014 	ldr	r1, [fp, #-20]
3000432c:	e1a0200e 	mov	r2, lr
30004330:	e51b301c 	ldr	r3, [fp, #-28]
30004334:	e1a0e00f 	mov	lr, pc
30004338:	e1a0f00c 	mov	pc, ip
3000433c:	eaffffe8 	b	300042e4 <_out_rev+0xa0>
30004340:	e59b3010 	ldr	r3, [fp, #16]
30004344:	e2033002 	and	r3, r3, #2	; 0x2
30004348:	e3530000 	cmp	r3, #0	; 0x0
3000434c:	0a000012 	beq	3000439c <_out_rev+0x158>
30004350:	e51b2018 	ldr	r2, [fp, #-24]
30004354:	e51b3020 	ldr	r3, [fp, #-32]
30004358:	e0632002 	rsb	r2, r3, r2
3000435c:	e59b300c 	ldr	r3, [fp, #12]
30004360:	e1520003 	cmp	r2, r3
30004364:	2a00000c 	bcs	3000439c <_out_rev+0x158>
30004368:	e24b2018 	sub	r2, fp, #24	; 0x18
3000436c:	e5923000 	ldr	r3, [r2]
30004370:	e1a0e003 	mov	lr, r3
30004374:	e2833001 	add	r3, r3, #1	; 0x1
30004378:	e5823000 	str	r3, [r2]
3000437c:	e51bc010 	ldr	ip, [fp, #-16]
30004380:	e3a00020 	mov	r0, #32	; 0x20
30004384:	e51b1014 	ldr	r1, [fp, #-20]
30004388:	e1a0200e 	mov	r2, lr
3000438c:	e51b301c 	ldr	r3, [fp, #-28]
30004390:	e1a0e00f 	mov	lr, pc
30004394:	e1a0f00c 	mov	pc, ip
30004398:	eaffffec 	b	30004350 <_out_rev+0x10c>
3000439c:	e51b3018 	ldr	r3, [fp, #-24]
300043a0:	e1a00003 	mov	r0, r3
300043a4:	e24bd00c 	sub	sp, fp, #12	; 0xc
300043a8:	e89da800 	ldmia	sp, {fp, sp, pc}

300043ac <_ntoa_format>:
300043ac:	e1a0c00d 	mov	ip, sp
300043b0:	e92dd800 	stmdb	sp!, {fp, ip, lr, pc}
300043b4:	e24cb004 	sub	fp, ip, #4	; 0x4
300043b8:	e24dd024 	sub	sp, sp, #36	; 0x24
300043bc:	e50b0010 	str	r0, [fp, #-16]
300043c0:	e50b1014 	str	r1, [fp, #-20]
300043c4:	e50b2018 	str	r2, [fp, #-24]
300043c8:	e50b301c 	str	r3, [fp, #-28]
300043cc:	e59b300c 	ldr	r3, [fp, #12]
300043d0:	e54b301d 	strb	r3, [fp, #-29]
300043d4:	e59b301c 	ldr	r3, [fp, #28]
300043d8:	e2033002 	and	r3, r3, #2	; 0x2
300043dc:	e3530000 	cmp	r3, #0	; 0x0
300043e0:	1a000037 	bne	300044c4 <_ntoa_format+0x118>
300043e4:	e59b3018 	ldr	r3, [fp, #24]
300043e8:	e3530000 	cmp	r3, #0	; 0x0
300043ec:	0a00000e 	beq	3000442c <_ntoa_format+0x80>
300043f0:	e59b301c 	ldr	r3, [fp, #28]
300043f4:	e2033001 	and	r3, r3, #1	; 0x1
300043f8:	e3530000 	cmp	r3, #0	; 0x0
300043fc:	0a00000a 	beq	3000442c <_ntoa_format+0x80>
30004400:	e55b301d 	ldrb	r3, [fp, #-29]
30004404:	e3530000 	cmp	r3, #0	; 0x0
30004408:	1a000004 	bne	30004420 <_ntoa_format+0x74>
3000440c:	e59b301c 	ldr	r3, [fp, #28]
30004410:	e203300c 	and	r3, r3, #12	; 0xc
30004414:	e3530000 	cmp	r3, #0	; 0x0
30004418:	1a000000 	bne	30004420 <_ntoa_format+0x74>
3000441c:	ea000002 	b	3000442c <_ntoa_format+0x80>
30004420:	e59b3018 	ldr	r3, [fp, #24]
30004424:	e2433001 	sub	r3, r3, #1	; 0x1
30004428:	e58b3018 	str	r3, [fp, #24]
3000442c:	e59b2008 	ldr	r2, [fp, #8]
30004430:	e59b3014 	ldr	r3, [fp, #20]
30004434:	e1520003 	cmp	r2, r3
30004438:	2a00000c 	bcs	30004470 <_ntoa_format+0xc4>
3000443c:	e59b3008 	ldr	r3, [fp, #8]
30004440:	e353001f 	cmp	r3, #31	; 0x1f
30004444:	8a000009 	bhi	30004470 <_ntoa_format+0xc4>
30004448:	e28b0008 	add	r0, fp, #8	; 0x8
3000444c:	e5902000 	ldr	r2, [r0]
30004450:	e1a01002 	mov	r1, r2
30004454:	e59b3004 	ldr	r3, [fp, #4]
30004458:	e0811003 	add	r1, r1, r3
3000445c:	e3a03030 	mov	r3, #48	; 0x30
30004460:	e5c13000 	strb	r3, [r1]
30004464:	e2822001 	add	r2, r2, #1	; 0x1
30004468:	e5802000 	str	r2, [r0]
3000446c:	eaffffee 	b	3000442c <_ntoa_format+0x80>
30004470:	e59b301c 	ldr	r3, [fp, #28]
30004474:	e2033001 	and	r3, r3, #1	; 0x1
30004478:	e3530000 	cmp	r3, #0	; 0x0
3000447c:	0a000010 	beq	300044c4 <_ntoa_format+0x118>
30004480:	e59b2008 	ldr	r2, [fp, #8]
30004484:	e59b3018 	ldr	r3, [fp, #24]
30004488:	e1520003 	cmp	r2, r3
3000448c:	2a00000c 	bcs	300044c4 <_ntoa_format+0x118>
30004490:	e59b3008 	ldr	r3, [fp, #8]
30004494:	e353001f 	cmp	r3, #31	; 0x1f
30004498:	8a000009 	bhi	300044c4 <_ntoa_format+0x118>
3000449c:	e28b0008 	add	r0, fp, #8	; 0x8
300044a0:	e5902000 	ldr	r2, [r0]
300044a4:	e1a01002 	mov	r1, r2
300044a8:	e59b3004 	ldr	r3, [fp, #4]
300044ac:	e0811003 	add	r1, r1, r3
300044b0:	e3a03030 	mov	r3, #48	; 0x30
300044b4:	e5c13000 	strb	r3, [r1]
300044b8:	e2822001 	add	r2, r2, #1	; 0x1
300044bc:	e5802000 	str	r2, [r0]
300044c0:	eaffffea 	b	30004470 <_ntoa_format+0xc4>
300044c4:	e59b301c 	ldr	r3, [fp, #28]
300044c8:	e2033010 	and	r3, r3, #16	; 0x10
300044cc:	e3530000 	cmp	r3, #0	; 0x0
300044d0:	0a00005e 	beq	30004650 <_ntoa_format+0x2a4>
300044d4:	e59b301c 	ldr	r3, [fp, #28]
300044d8:	e2033b01 	and	r3, r3, #1024	; 0x400
300044dc:	e3530000 	cmp	r3, #0	; 0x0
300044e0:	1a000017 	bne	30004544 <_ntoa_format+0x198>
300044e4:	e59b3008 	ldr	r3, [fp, #8]
300044e8:	e3530000 	cmp	r3, #0	; 0x0
300044ec:	0a000014 	beq	30004544 <_ntoa_format+0x198>
300044f0:	e59b2008 	ldr	r2, [fp, #8]
300044f4:	e59b3014 	ldr	r3, [fp, #20]
300044f8:	e1520003 	cmp	r2, r3
300044fc:	0a000004 	beq	30004514 <_ntoa_format+0x168>
30004500:	e59b2008 	ldr	r2, [fp, #8]
30004504:	e59b3018 	ldr	r3, [fp, #24]
30004508:	e1520003 	cmp	r2, r3
3000450c:	0a000000 	beq	30004514 <_ntoa_format+0x168>
30004510:	ea00000b 	b	30004544 <_ntoa_format+0x198>
30004514:	e59b3008 	ldr	r3, [fp, #8]
30004518:	e2433001 	sub	r3, r3, #1	; 0x1
3000451c:	e58b3008 	str	r3, [fp, #8]
30004520:	e59b3008 	ldr	r3, [fp, #8]
30004524:	e3530000 	cmp	r3, #0	; 0x0
30004528:	0a000005 	beq	30004544 <_ntoa_format+0x198>
3000452c:	e59b3010 	ldr	r3, [fp, #16]
30004530:	e3530010 	cmp	r3, #16	; 0x10
30004534:	1a000002 	bne	30004544 <_ntoa_format+0x198>
30004538:	e59b3008 	ldr	r3, [fp, #8]
3000453c:	e2433001 	sub	r3, r3, #1	; 0x1
30004540:	e58b3008 	str	r3, [fp, #8]
30004544:	e59b3010 	ldr	r3, [fp, #16]
30004548:	e3530010 	cmp	r3, #16	; 0x10
3000454c:	1a000010 	bne	30004594 <_ntoa_format+0x1e8>
30004550:	e59b301c 	ldr	r3, [fp, #28]
30004554:	e2033020 	and	r3, r3, #32	; 0x20
30004558:	e3530000 	cmp	r3, #0	; 0x0
3000455c:	1a00000c 	bne	30004594 <_ntoa_format+0x1e8>
30004560:	e59b3008 	ldr	r3, [fp, #8]
30004564:	e353001f 	cmp	r3, #31	; 0x1f
30004568:	8a000009 	bhi	30004594 <_ntoa_format+0x1e8>
3000456c:	e28b0008 	add	r0, fp, #8	; 0x8
30004570:	e5902000 	ldr	r2, [r0]
30004574:	e1a01002 	mov	r1, r2
30004578:	e59b3004 	ldr	r3, [fp, #4]
3000457c:	e0811003 	add	r1, r1, r3
30004580:	e3a03078 	mov	r3, #120	; 0x78
30004584:	e5c13000 	strb	r3, [r1]
30004588:	e2822001 	add	r2, r2, #1	; 0x1
3000458c:	e5802000 	str	r2, [r0]
30004590:	ea000022 	b	30004620 <_ntoa_format+0x274>
30004594:	e59b3010 	ldr	r3, [fp, #16]
30004598:	e3530010 	cmp	r3, #16	; 0x10
3000459c:	1a000010 	bne	300045e4 <_ntoa_format+0x238>
300045a0:	e59b301c 	ldr	r3, [fp, #28]
300045a4:	e2033020 	and	r3, r3, #32	; 0x20
300045a8:	e3530000 	cmp	r3, #0	; 0x0
300045ac:	0a00000c 	beq	300045e4 <_ntoa_format+0x238>
300045b0:	e59b3008 	ldr	r3, [fp, #8]
300045b4:	e353001f 	cmp	r3, #31	; 0x1f
300045b8:	8a000009 	bhi	300045e4 <_ntoa_format+0x238>
300045bc:	e28b0008 	add	r0, fp, #8	; 0x8
300045c0:	e5902000 	ldr	r2, [r0]
300045c4:	e1a01002 	mov	r1, r2
300045c8:	e59b3004 	ldr	r3, [fp, #4]
300045cc:	e0811003 	add	r1, r1, r3
300045d0:	e3a03058 	mov	r3, #88	; 0x58
300045d4:	e5c13000 	strb	r3, [r1]
300045d8:	e2822001 	add	r2, r2, #1	; 0x1
300045dc:	e5802000 	str	r2, [r0]
300045e0:	ea00000e 	b	30004620 <_ntoa_format+0x274>
300045e4:	e59b3010 	ldr	r3, [fp, #16]
300045e8:	e3530002 	cmp	r3, #2	; 0x2
300045ec:	1a00000b 	bne	30004620 <_ntoa_format+0x274>
300045f0:	e59b3008 	ldr	r3, [fp, #8]
300045f4:	e353001f 	cmp	r3, #31	; 0x1f
300045f8:	8a000008 	bhi	30004620 <_ntoa_format+0x274>
300045fc:	e28b0008 	add	r0, fp, #8	; 0x8
30004600:	e5902000 	ldr	r2, [r0]
30004604:	e1a01002 	mov	r1, r2
30004608:	e59b3004 	ldr	r3, [fp, #4]
3000460c:	e0811003 	add	r1, r1, r3
30004610:	e3a03062 	mov	r3, #98	; 0x62
30004614:	e5c13000 	strb	r3, [r1]
30004618:	e2822001 	add	r2, r2, #1	; 0x1
3000461c:	e5802000 	str	r2, [r0]
30004620:	e59b3008 	ldr	r3, [fp, #8]
30004624:	e353001f 	cmp	r3, #31	; 0x1f
30004628:	8a000008 	bhi	30004650 <_ntoa_format+0x2a4>
3000462c:	e28b0008 	add	r0, fp, #8	; 0x8
30004630:	e5902000 	ldr	r2, [r0]
30004634:	e1a01002 	mov	r1, r2
30004638:	e59b3004 	ldr	r3, [fp, #4]
3000463c:	e0811003 	add	r1, r1, r3
30004640:	e3a03030 	mov	r3, #48	; 0x30
30004644:	e5c13000 	strb	r3, [r1]
30004648:	e2822001 	add	r2, r2, #1	; 0x1
3000464c:	e5802000 	str	r2, [r0]
30004650:	e59b3008 	ldr	r3, [fp, #8]
30004654:	e353001f 	cmp	r3, #31	; 0x1f
30004658:	8a000027 	bhi	300046fc <_ntoa_format+0x350>
3000465c:	e55b301d 	ldrb	r3, [fp, #-29]
30004660:	e3530000 	cmp	r3, #0	; 0x0
30004664:	0a000009 	beq	30004690 <_ntoa_format+0x2e4>
30004668:	e28b0008 	add	r0, fp, #8	; 0x8
3000466c:	e5902000 	ldr	r2, [r0]
30004670:	e1a01002 	mov	r1, r2
30004674:	e59b3004 	ldr	r3, [fp, #4]
30004678:	e0811003 	add	r1, r1, r3
3000467c:	e3a0302d 	mov	r3, #45	; 0x2d
30004680:	e5c13000 	strb	r3, [r1]
30004684:	e2822001 	add	r2, r2, #1	; 0x1
30004688:	e5802000 	str	r2, [r0]
3000468c:	ea00001a 	b	300046fc <_ntoa_format+0x350>
30004690:	e59b301c 	ldr	r3, [fp, #28]
30004694:	e2033004 	and	r3, r3, #4	; 0x4
30004698:	e3530000 	cmp	r3, #0	; 0x0
3000469c:	0a000009 	beq	300046c8 <_ntoa_format+0x31c>
300046a0:	e28b0008 	add	r0, fp, #8	; 0x8
300046a4:	e5902000 	ldr	r2, [r0]
300046a8:	e1a01002 	mov	r1, r2
300046ac:	e59b3004 	ldr	r3, [fp, #4]
300046b0:	e0811003 	add	r1, r1, r3
300046b4:	e3a0302b 	mov	r3, #43	; 0x2b
300046b8:	e5c13000 	strb	r3, [r1]
300046bc:	e2822001 	add	r2, r2, #1	; 0x1
300046c0:	e5802000 	str	r2, [r0]
300046c4:	ea00000c 	b	300046fc <_ntoa_format+0x350>
300046c8:	e59b301c 	ldr	r3, [fp, #28]
300046cc:	e2033008 	and	r3, r3, #8	; 0x8
300046d0:	e3530000 	cmp	r3, #0	; 0x0
300046d4:	0a000008 	beq	300046fc <_ntoa_format+0x350>
300046d8:	e28b0008 	add	r0, fp, #8	; 0x8
300046dc:	e5902000 	ldr	r2, [r0]
300046e0:	e1a01002 	mov	r1, r2
300046e4:	e59b3004 	ldr	r3, [fp, #4]
300046e8:	e0811003 	add	r1, r1, r3
300046ec:	e3a03020 	mov	r3, #32	; 0x20
300046f0:	e5c13000 	strb	r3, [r1]
300046f4:	e2822001 	add	r2, r2, #1	; 0x1
300046f8:	e5802000 	str	r2, [r0]
300046fc:	e59b3004 	ldr	r3, [fp, #4]
30004700:	e58d3000 	str	r3, [sp]
30004704:	e59b3008 	ldr	r3, [fp, #8]
30004708:	e58d3004 	str	r3, [sp, #4]
3000470c:	e59b3018 	ldr	r3, [fp, #24]
30004710:	e58d3008 	str	r3, [sp, #8]
30004714:	e59b301c 	ldr	r3, [fp, #28]
30004718:	e58d300c 	str	r3, [sp, #12]
3000471c:	e51b0010 	ldr	r0, [fp, #-16]
30004720:	e51b1014 	ldr	r1, [fp, #-20]
30004724:	e51b2018 	ldr	r2, [fp, #-24]
30004728:	e51b301c 	ldr	r3, [fp, #-28]
3000472c:	ebfffec4 	bl	30004244 <_out_rev>
30004730:	e1a03000 	mov	r3, r0
30004734:	e1a00003 	mov	r0, r3
30004738:	e24bd00c 	sub	sp, fp, #12	; 0xc
3000473c:	e89da800 	ldmia	sp, {fp, sp, pc}

30004740 <_ntoa_long>:
30004740:	e1a0c00d 	mov	ip, sp
30004744:	e92dd800 	stmdb	sp!, {fp, ip, lr, pc}
30004748:	e24cb004 	sub	fp, ip, #4	; 0x4
3000474c:	e24dd060 	sub	sp, sp, #96	; 0x60
30004750:	e50b0010 	str	r0, [fp, #-16]
30004754:	e50b1014 	str	r1, [fp, #-20]
30004758:	e50b2018 	str	r2, [fp, #-24]
3000475c:	e50b301c 	str	r3, [fp, #-28]
30004760:	e59b3008 	ldr	r3, [fp, #8]
30004764:	e54b301d 	strb	r3, [fp, #-29]
30004768:	e3a03000 	mov	r3, #0	; 0x0
3000476c:	e50b3044 	str	r3, [fp, #-68]
30004770:	e59b3004 	ldr	r3, [fp, #4]
30004774:	e3530000 	cmp	r3, #0	; 0x0
30004778:	1a000002 	bne	30004788 <_ntoa_long+0x48>
3000477c:	e59b3018 	ldr	r3, [fp, #24]
30004780:	e3c33010 	bic	r3, r3, #16	; 0x10
30004784:	e58b3018 	str	r3, [fp, #24]
30004788:	e59b3018 	ldr	r3, [fp, #24]
3000478c:	e2033b01 	and	r3, r3, #1024	; 0x400
30004790:	e3530000 	cmp	r3, #0	; 0x0
30004794:	0a000003 	beq	300047a8 <_ntoa_long+0x68>
30004798:	e59b3004 	ldr	r3, [fp, #4]
3000479c:	e3530000 	cmp	r3, #0	; 0x0
300047a0:	1a000000 	bne	300047a8 <_ntoa_long+0x68>
300047a4:	ea000030 	b	3000486c <_ntoa_long+0x12c>
300047a8:	e59b3004 	ldr	r3, [fp, #4]
300047ac:	e1a00003 	mov	r0, r3
300047b0:	e59b100c 	ldr	r1, [fp, #12]
300047b4:	ebfff2e5 	bl	30001350 <__umodsi3>
300047b8:	e1a03000 	mov	r3, r0
300047bc:	e54b3045 	strb	r3, [fp, #-69]
300047c0:	e24b0044 	sub	r0, fp, #68	; 0x44
300047c4:	e5902000 	ldr	r2, [r0]
300047c8:	e3e01033 	mvn	r1, #51	; 0x33
300047cc:	e1a03002 	mov	r3, r2
300047d0:	e24bc00c 	sub	ip, fp, #12	; 0xc
300047d4:	e083300c 	add	r3, r3, ip
300047d8:	e0833001 	add	r3, r3, r1
300047dc:	e50b304c 	str	r3, [fp, #-76]
300047e0:	e2822001 	add	r2, r2, #1	; 0x1
300047e4:	e5802000 	str	r2, [r0]
300047e8:	e55b3045 	ldrb	r3, [fp, #-69]
300047ec:	e3530009 	cmp	r3, #9	; 0x9
300047f0:	8a000003 	bhi	30004804 <_ntoa_long+0xc4>
300047f4:	e55b3045 	ldrb	r3, [fp, #-69]
300047f8:	e2833030 	add	r3, r3, #48	; 0x30
300047fc:	e54b304d 	strb	r3, [fp, #-77]
30004800:	ea00000a 	b	30004830 <_ntoa_long+0xf0>
30004804:	e59b3018 	ldr	r3, [fp, #24]
30004808:	e2033020 	and	r3, r3, #32	; 0x20
3000480c:	e3530000 	cmp	r3, #0	; 0x0
30004810:	0a000003 	beq	30004824 <_ntoa_long+0xe4>
30004814:	e55b3045 	ldrb	r3, [fp, #-69]
30004818:	e2833037 	add	r3, r3, #55	; 0x37
3000481c:	e54b304d 	strb	r3, [fp, #-77]
30004820:	ea000002 	b	30004830 <_ntoa_long+0xf0>
30004824:	e55b3045 	ldrb	r3, [fp, #-69]
30004828:	e2833057 	add	r3, r3, #87	; 0x57
3000482c:	e54b304d 	strb	r3, [fp, #-77]
30004830:	e55b304d 	ldrb	r3, [fp, #-77]
30004834:	e51b204c 	ldr	r2, [fp, #-76]
30004838:	e5c23000 	strb	r3, [r2]
3000483c:	e59b0004 	ldr	r0, [fp, #4]
30004840:	e59b100c 	ldr	r1, [fp, #12]
30004844:	ebfff285 	bl	30001260 <__udivsi3>
30004848:	e1a03000 	mov	r3, r0
3000484c:	e58b3004 	str	r3, [fp, #4]
30004850:	e59b3004 	ldr	r3, [fp, #4]
30004854:	e3530000 	cmp	r3, #0	; 0x0
30004858:	0a000003 	beq	3000486c <_ntoa_long+0x12c>
3000485c:	e51b3044 	ldr	r3, [fp, #-68]
30004860:	e353001f 	cmp	r3, #31	; 0x1f
30004864:	8a000000 	bhi	3000486c <_ntoa_long+0x12c>
30004868:	eaffffce 	b	300047a8 <_ntoa_long+0x68>
3000486c:	e24b3040 	sub	r3, fp, #64	; 0x40
30004870:	e58d3000 	str	r3, [sp]
30004874:	e51b3044 	ldr	r3, [fp, #-68]
30004878:	e58d3004 	str	r3, [sp, #4]
3000487c:	e55b301d 	ldrb	r3, [fp, #-29]
30004880:	e58d3008 	str	r3, [sp, #8]
30004884:	e59b300c 	ldr	r3, [fp, #12]
30004888:	e58d300c 	str	r3, [sp, #12]
3000488c:	e59b3010 	ldr	r3, [fp, #16]
30004890:	e58d3010 	str	r3, [sp, #16]
30004894:	e59b3014 	ldr	r3, [fp, #20]
30004898:	e58d3014 	str	r3, [sp, #20]
3000489c:	e59b3018 	ldr	r3, [fp, #24]
300048a0:	e58d3018 	str	r3, [sp, #24]
300048a4:	e51b0010 	ldr	r0, [fp, #-16]
300048a8:	e51b1014 	ldr	r1, [fp, #-20]
300048ac:	e51b2018 	ldr	r2, [fp, #-24]
300048b0:	e51b301c 	ldr	r3, [fp, #-28]
300048b4:	ebfffebc 	bl	300043ac <_ntoa_format>
300048b8:	e1a03000 	mov	r3, r0
300048bc:	e1a00003 	mov	r0, r3
300048c0:	e24bd00c 	sub	sp, fp, #12	; 0xc
300048c4:	e89da800 	ldmia	sp, {fp, sp, pc}

300048c8 <_ntoa_long_long>:
300048c8:	e1a0c00d 	mov	ip, sp
300048cc:	e92dd810 	stmdb	sp!, {r4, fp, ip, lr, pc}
300048d0:	e24cb004 	sub	fp, ip, #4	; 0x4
300048d4:	e24dd060 	sub	sp, sp, #96	; 0x60
300048d8:	e50b0014 	str	r0, [fp, #-20]
300048dc:	e50b1018 	str	r1, [fp, #-24]
300048e0:	e50b201c 	str	r2, [fp, #-28]
300048e4:	e50b3020 	str	r3, [fp, #-32]
300048e8:	e59b300c 	ldr	r3, [fp, #12]
300048ec:	e54b3021 	strb	r3, [fp, #-33]
300048f0:	e3a03000 	mov	r3, #0	; 0x0
300048f4:	e50b3048 	str	r3, [fp, #-72]
300048f8:	e59b3004 	ldr	r3, [fp, #4]
300048fc:	e59b2008 	ldr	r2, [fp, #8]
30004900:	e1833002 	orr	r3, r3, r2
30004904:	e3530000 	cmp	r3, #0	; 0x0
30004908:	1a000002 	bne	30004918 <_ntoa_long_long+0x50>
3000490c:	e59b3020 	ldr	r3, [fp, #32]
30004910:	e3c33010 	bic	r3, r3, #16	; 0x10
30004914:	e58b3020 	str	r3, [fp, #32]
30004918:	e59b3020 	ldr	r3, [fp, #32]
3000491c:	e2033b01 	and	r3, r3, #1024	; 0x400
30004920:	e3530000 	cmp	r3, #0	; 0x0
30004924:	0a000004 	beq	3000493c <_ntoa_long_long+0x74>
30004928:	e59b3004 	ldr	r3, [fp, #4]
3000492c:	e59b2008 	ldr	r2, [fp, #8]
30004930:	e1833002 	orr	r3, r3, r2
30004934:	e3530000 	cmp	r3, #0	; 0x0
30004938:	0a00003b 	beq	30004a2c <_ntoa_long_long+0x164>
3000493c:	e3a0200c 	mov	r2, #12	; 0xc
30004940:	e28b3004 	add	r3, fp, #4	; 0x4
30004944:	e0832002 	add	r2, r3, r2
30004948:	e99b0018 	ldmib	fp, {r3, r4}
3000494c:	e1a01004 	mov	r1, r4
30004950:	e1a00003 	mov	r0, r3
30004954:	e892000c 	ldmia	r2, {r2, r3}
30004958:	eb00188d 	bl	3000ab94 <__umoddi3>
3000495c:	e1a04001 	mov	r4, r1
30004960:	e1a03000 	mov	r3, r0
30004964:	e54b3049 	strb	r3, [fp, #-73]
30004968:	e24b0048 	sub	r0, fp, #72	; 0x48
3000496c:	e5902000 	ldr	r2, [r0]
30004970:	e3e01033 	mvn	r1, #51	; 0x33
30004974:	e1a03002 	mov	r3, r2
30004978:	e24bc010 	sub	ip, fp, #16	; 0x10
3000497c:	e083300c 	add	r3, r3, ip
30004980:	e0833001 	add	r3, r3, r1
30004984:	e50b3050 	str	r3, [fp, #-80]
30004988:	e2822001 	add	r2, r2, #1	; 0x1
3000498c:	e5802000 	str	r2, [r0]
30004990:	e55b3049 	ldrb	r3, [fp, #-73]
30004994:	e3530009 	cmp	r3, #9	; 0x9
30004998:	8a000003 	bhi	300049ac <_ntoa_long_long+0xe4>
3000499c:	e55b3049 	ldrb	r3, [fp, #-73]
300049a0:	e2833030 	add	r3, r3, #48	; 0x30
300049a4:	e54b3051 	strb	r3, [fp, #-81]
300049a8:	ea00000a 	b	300049d8 <_ntoa_long_long+0x110>
300049ac:	e59b3020 	ldr	r3, [fp, #32]
300049b0:	e2033020 	and	r3, r3, #32	; 0x20
300049b4:	e3530000 	cmp	r3, #0	; 0x0
300049b8:	0a000003 	beq	300049cc <_ntoa_long_long+0x104>
300049bc:	e55b3049 	ldrb	r3, [fp, #-73]
300049c0:	e2833037 	add	r3, r3, #55	; 0x37
300049c4:	e54b3051 	strb	r3, [fp, #-81]
300049c8:	ea000002 	b	300049d8 <_ntoa_long_long+0x110>
300049cc:	e55b3049 	ldrb	r3, [fp, #-73]
300049d0:	e2833057 	add	r3, r3, #87	; 0x57
300049d4:	e54b3051 	strb	r3, [fp, #-81]
300049d8:	e55b3051 	ldrb	r3, [fp, #-81]
300049dc:	e51b2050 	ldr	r2, [fp, #-80]
300049e0:	e5c23000 	strb	r3, [r2]
300049e4:	e3a0200c 	mov	r2, #12	; 0xc
300049e8:	e28b3004 	add	r3, fp, #4	; 0x4
300049ec:	e0833002 	add	r3, r3, r2
300049f0:	e99b0003 	ldmib	fp, {r0, r1}
300049f4:	e893000c 	ldmia	r3, {r2, r3}
300049f8:	eb001714 	bl	3000a650 <__udivdi3>
300049fc:	e1a04001 	mov	r4, r1
30004a00:	e1a03000 	mov	r3, r0
30004a04:	e98b0018 	stmib	fp, {r3, r4}
30004a08:	e59b3004 	ldr	r3, [fp, #4]
30004a0c:	e59b2008 	ldr	r2, [fp, #8]
30004a10:	e1833002 	orr	r3, r3, r2
30004a14:	e3530000 	cmp	r3, #0	; 0x0
30004a18:	0a000003 	beq	30004a2c <_ntoa_long_long+0x164>
30004a1c:	e51b3048 	ldr	r3, [fp, #-72]
30004a20:	e353001f 	cmp	r3, #31	; 0x1f
30004a24:	8a000000 	bhi	30004a2c <_ntoa_long_long+0x164>
30004a28:	eaffffc3 	b	3000493c <_ntoa_long_long+0x74>
30004a2c:	e24b3044 	sub	r3, fp, #68	; 0x44
30004a30:	e58d3000 	str	r3, [sp]
30004a34:	e51b3048 	ldr	r3, [fp, #-72]
30004a38:	e58d3004 	str	r3, [sp, #4]
30004a3c:	e55b3021 	ldrb	r3, [fp, #-33]
30004a40:	e58d3008 	str	r3, [sp, #8]
30004a44:	e3a0200c 	mov	r2, #12	; 0xc
30004a48:	e28b3004 	add	r3, fp, #4	; 0x4
30004a4c:	e0833002 	add	r3, r3, r2
30004a50:	e5933000 	ldr	r3, [r3]
30004a54:	e58d300c 	str	r3, [sp, #12]
30004a58:	e59b3018 	ldr	r3, [fp, #24]
30004a5c:	e58d3010 	str	r3, [sp, #16]
30004a60:	e59b301c 	ldr	r3, [fp, #28]
30004a64:	e58d3014 	str	r3, [sp, #20]
30004a68:	e59b3020 	ldr	r3, [fp, #32]
30004a6c:	e58d3018 	str	r3, [sp, #24]
30004a70:	e51b0014 	ldr	r0, [fp, #-20]
30004a74:	e51b1018 	ldr	r1, [fp, #-24]
30004a78:	e51b201c 	ldr	r2, [fp, #-28]
30004a7c:	e51b3020 	ldr	r3, [fp, #-32]
30004a80:	ebfffe49 	bl	300043ac <_ntoa_format>
30004a84:	e1a03000 	mov	r3, r0
30004a88:	e1a00003 	mov	r0, r3
30004a8c:	e24bd010 	sub	sp, fp, #16	; 0x10
30004a90:	e89da810 	ldmia	sp, {r4, fp, sp, pc}

30004a94 <_ftoa>:
30004a94:	e1a0c00d 	mov	ip, sp
30004a98:	e92dd830 	stmdb	sp!, {r4, r5, fp, ip, lr, pc}
30004a9c:	e24cb004 	sub	fp, ip, #4	; 0x4
30004aa0:	e24dd08c 	sub	sp, sp, #140	; 0x8c
30004aa4:	e50b0018 	str	r0, [fp, #-24]
30004aa8:	e50b101c 	str	r1, [fp, #-28]
30004aac:	e50b2020 	str	r2, [fp, #-32]
30004ab0:	e50b3024 	str	r3, [fp, #-36]
30004ab4:	e3a03000 	mov	r3, #0	; 0x0
30004ab8:	e50b3048 	str	r3, [fp, #-72]
30004abc:	e3e0303b 	mvn	r3, #59	; 0x3b
30004ac0:	e24b0014 	sub	r0, fp, #20	; 0x14
30004ac4:	e0802003 	add	r2, r0, r3
30004ac8:	e28f3fa7 	add	r3, pc, #668	; 0x29c
30004acc:	e8930018 	ldmia	r3, {r3, r4}
30004ad0:	e8820018 	stmia	r2, {r3, r4}
30004ad4:	e99b0003 	ldmib	fp, {r0, r1}
30004ad8:	e99b000c 	ldmib	fp, {r2, r3}
30004adc:	eb00151c 	bl	30009f54 <__cmpdf2>
30004ae0:	e1a03000 	mov	r3, r0
30004ae4:	e3530000 	cmp	r3, #0	; 0x0
30004ae8:	1a000000 	bne	30004af0 <_ftoa+0x5c>
30004aec:	ea00000f 	b	30004b30 <_ftoa+0x9c>
30004af0:	e59f329c 	ldr	r3, [pc, #668]	; 30004d94 <.text+0x4d94>
30004af4:	e58d3000 	str	r3, [sp]
30004af8:	e3a03003 	mov	r3, #3	; 0x3
30004afc:	e58d3004 	str	r3, [sp, #4]
30004b00:	e59b3010 	ldr	r3, [fp, #16]
30004b04:	e58d3008 	str	r3, [sp, #8]
30004b08:	e59b3014 	ldr	r3, [fp, #20]
30004b0c:	e58d300c 	str	r3, [sp, #12]
30004b10:	e51b0018 	ldr	r0, [fp, #-24]
30004b14:	e51b101c 	ldr	r1, [fp, #-28]
30004b18:	e51b2020 	ldr	r2, [fp, #-32]
30004b1c:	e51b3024 	ldr	r3, [fp, #-36]
30004b20:	ebfffdc7 	bl	30004244 <_out_rev>
30004b24:	e1a03000 	mov	r3, r0
30004b28:	e50b306c 	str	r3, [fp, #-108]
30004b2c:	ea00022b 	b	300053e0 <.text+0x53e0>
30004b30:	e99b0003 	ldmib	fp, {r0, r1}
30004b34:	e28f2f8e 	add	r2, pc, #568	; 0x238
30004b38:	e892000c 	ldmia	r2, {r2, r3}
30004b3c:	eb001502 	bl	30009f4c <__ledf2>
30004b40:	e1a03000 	mov	r3, r0
30004b44:	e3530000 	cmp	r3, #0	; 0x0
30004b48:	ba000000 	blt	30004b50 <_ftoa+0xbc>
30004b4c:	ea00000f 	b	30004b90 <_ftoa+0xfc>
30004b50:	e59f3240 	ldr	r3, [pc, #576]	; 30004d98 <.text+0x4d98>
30004b54:	e58d3000 	str	r3, [sp]
30004b58:	e3a03004 	mov	r3, #4	; 0x4
30004b5c:	e58d3004 	str	r3, [sp, #4]
30004b60:	e59b3010 	ldr	r3, [fp, #16]
30004b64:	e58d3008 	str	r3, [sp, #8]
30004b68:	e59b3014 	ldr	r3, [fp, #20]
30004b6c:	e58d300c 	str	r3, [sp, #12]
30004b70:	e51b0018 	ldr	r0, [fp, #-24]
30004b74:	e51b101c 	ldr	r1, [fp, #-28]
30004b78:	e51b2020 	ldr	r2, [fp, #-32]
30004b7c:	e51b3024 	ldr	r3, [fp, #-36]
30004b80:	ebfffdaf 	bl	30004244 <_out_rev>
30004b84:	e1a03000 	mov	r3, r0
30004b88:	e50b306c 	str	r3, [fp, #-108]
30004b8c:	ea000213 	b	300053e0 <.text+0x53e0>
30004b90:	e99b0003 	ldmib	fp, {r0, r1}
30004b94:	e28f2e1e 	add	r2, pc, #480	; 0x1e0
30004b98:	e892000c 	ldmia	r2, {r2, r3}
30004b9c:	eb0014e8 	bl	30009f44 <__gedf2>
30004ba0:	e1a03000 	mov	r3, r0
30004ba4:	e3530000 	cmp	r3, #0	; 0x0
30004ba8:	ca000000 	bgt	30004bb0 <_ftoa+0x11c>
30004bac:	ea000021 	b	30004c38 <_ftoa+0x1a4>
30004bb0:	e59b3014 	ldr	r3, [fp, #20]
30004bb4:	e2033004 	and	r3, r3, #4	; 0x4
30004bb8:	e3530000 	cmp	r3, #0	; 0x0
30004bbc:	0a000002 	beq	30004bcc <_ftoa+0x138>
30004bc0:	e59f11d4 	ldr	r1, [pc, #468]	; 30004d9c <.text+0x4d9c>
30004bc4:	e50b1070 	str	r1, [fp, #-112]
30004bc8:	ea000001 	b	30004bd4 <_ftoa+0x140>
30004bcc:	e59f21cc 	ldr	r2, [pc, #460]	; 30004da0 <.text+0x4da0>
30004bd0:	e50b2070 	str	r2, [fp, #-112]
30004bd4:	e51b3070 	ldr	r3, [fp, #-112]
30004bd8:	e58d3000 	str	r3, [sp]
30004bdc:	e59b3014 	ldr	r3, [fp, #20]
30004be0:	e2033004 	and	r3, r3, #4	; 0x4
30004be4:	e3530000 	cmp	r3, #0	; 0x0
30004be8:	0a000002 	beq	30004bf8 <_ftoa+0x164>
30004bec:	e3a0c004 	mov	ip, #4	; 0x4
30004bf0:	e50bc074 	str	ip, [fp, #-116]
30004bf4:	ea000001 	b	30004c00 <_ftoa+0x16c>
30004bf8:	e3a00003 	mov	r0, #3	; 0x3
30004bfc:	e50b0074 	str	r0, [fp, #-116]
30004c00:	e51b1074 	ldr	r1, [fp, #-116]
30004c04:	e58d1004 	str	r1, [sp, #4]
30004c08:	e59b3010 	ldr	r3, [fp, #16]
30004c0c:	e58d3008 	str	r3, [sp, #8]
30004c10:	e59b3014 	ldr	r3, [fp, #20]
30004c14:	e58d300c 	str	r3, [sp, #12]
30004c18:	e51b0018 	ldr	r0, [fp, #-24]
30004c1c:	e51b101c 	ldr	r1, [fp, #-28]
30004c20:	e51b2020 	ldr	r2, [fp, #-32]
30004c24:	e51b3024 	ldr	r3, [fp, #-36]
30004c28:	ebfffd85 	bl	30004244 <_out_rev>
30004c2c:	e1a03000 	mov	r3, r0
30004c30:	e50b306c 	str	r3, [fp, #-108]
30004c34:	ea0001e9 	b	300053e0 <.text+0x53e0>
30004c38:	e99b0003 	ldmib	fp, {r0, r1}
30004c3c:	e28f2d05 	add	r2, pc, #320	; 0x140
30004c40:	e892000c 	ldmia	r2, {r2, r3}
30004c44:	eb0014be 	bl	30009f44 <__gedf2>
30004c48:	e1a03000 	mov	r3, r0
30004c4c:	e3530000 	cmp	r3, #0	; 0x0
30004c50:	ca000007 	bgt	30004c74 <_ftoa+0x1e0>
30004c54:	e99b0003 	ldmib	fp, {r0, r1}
30004c58:	e28f2f4b 	add	r2, pc, #300	; 0x12c
30004c5c:	e892000c 	ldmia	r2, {r2, r3}
30004c60:	eb0014b9 	bl	30009f4c <__ledf2>
30004c64:	e1a03000 	mov	r3, r0
30004c68:	e3530000 	cmp	r3, #0	; 0x0
30004c6c:	ba000000 	blt	30004c74 <_ftoa+0x1e0>
30004c70:	ea00000f 	b	30004cb4 <_ftoa+0x220>
30004c74:	e99b0018 	ldmib	fp, {r3, r4}
30004c78:	e88d0018 	stmia	sp, {r3, r4}
30004c7c:	e59b300c 	ldr	r3, [fp, #12]
30004c80:	e58d3008 	str	r3, [sp, #8]
30004c84:	e59b3010 	ldr	r3, [fp, #16]
30004c88:	e58d300c 	str	r3, [sp, #12]
30004c8c:	e59b3014 	ldr	r3, [fp, #20]
30004c90:	e58d3010 	str	r3, [sp, #16]
30004c94:	e51b0018 	ldr	r0, [fp, #-24]
30004c98:	e51b101c 	ldr	r1, [fp, #-28]
30004c9c:	e51b2020 	ldr	r2, [fp, #-32]
30004ca0:	e51b3024 	ldr	r3, [fp, #-36]
30004ca4:	eb0001d0 	bl	300053ec <_etoa>
30004ca8:	e1a03000 	mov	r3, r0
30004cac:	e50b306c 	str	r3, [fp, #-108]
30004cb0:	ea0001ca 	b	300053e0 <.text+0x53e0>
30004cb4:	e3a03000 	mov	r3, #0	; 0x0
30004cb8:	e54b3051 	strb	r3, [fp, #-81]
30004cbc:	e99b0003 	ldmib	fp, {r0, r1}
30004cc0:	e28f20a4 	add	r2, pc, #164	; 0xa4
30004cc4:	e892000c 	ldmia	r2, {r2, r3}
30004cc8:	eb00149f 	bl	30009f4c <__ledf2>
30004ccc:	e1a03000 	mov	r3, r0
30004cd0:	e3530000 	cmp	r3, #0	; 0x0
30004cd4:	ba000000 	blt	30004cdc <_ftoa+0x248>
30004cd8:	ea000008 	b	30004d00 <_ftoa+0x26c>
30004cdc:	e3a03001 	mov	r3, #1	; 0x1
30004ce0:	e54b3051 	strb	r3, [fp, #-81]
30004ce4:	e28f0080 	add	r0, pc, #128	; 0x80
30004ce8:	e8900003 	ldmia	r0, {r0, r1}
30004cec:	e99b000c 	ldmib	fp, {r2, r3}
30004cf0:	eb001251 	bl	3000963c <__subdf3>
30004cf4:	e1a04001 	mov	r4, r1
30004cf8:	e1a03000 	mov	r3, r0
30004cfc:	e98b0018 	stmib	fp, {r3, r4}
30004d00:	e59b3014 	ldr	r3, [fp, #20]
30004d04:	e2033b01 	and	r3, r3, #1024	; 0x400
30004d08:	e3530000 	cmp	r3, #0	; 0x0
30004d0c:	1a000001 	bne	30004d18 <_ftoa+0x284>
30004d10:	e3a03006 	mov	r3, #6	; 0x6
30004d14:	e58b300c 	str	r3, [fp, #12]
30004d18:	e51b3048 	ldr	r3, [fp, #-72]
30004d1c:	e353001f 	cmp	r3, #31	; 0x1f
30004d20:	8a000026 	bhi	30004dc0 <.text+0x4dc0>
30004d24:	e59b300c 	ldr	r3, [fp, #12]
30004d28:	e3530009 	cmp	r3, #9	; 0x9
30004d2c:	9a000023 	bls	30004dc0 <.text+0x4dc0>
30004d30:	e24b0048 	sub	r0, fp, #72	; 0x48
30004d34:	e5902000 	ldr	r2, [r0]
30004d38:	e3e0102f 	mvn	r1, #47	; 0x2f
30004d3c:	e1a03002 	mov	r3, r2
30004d40:	e24bc014 	sub	ip, fp, #20	; 0x14
30004d44:	e083300c 	add	r3, r3, ip
30004d48:	e0831001 	add	r1, r3, r1
30004d4c:	e3a03030 	mov	r3, #48	; 0x30
30004d50:	e5c13000 	strb	r3, [r1]
30004d54:	e2822001 	add	r2, r2, #1	; 0x1
30004d58:	e5802000 	str	r2, [r0]
30004d5c:	e59b300c 	ldr	r3, [fp, #12]
30004d60:	e2433001 	sub	r3, r3, #1	; 0x1
30004d64:	e58b300c 	str	r3, [fp, #12]
30004d68:	eaffffea 	b	30004d18 <_ftoa+0x284>
	...
30004d74:	ffefffff 	swinv	0x00efffff
30004d78:	ffffffff 	swinv	0x00ffffff
30004d7c:	7fefffff 	swivc	0x00efffff
30004d80:	ffffffff 	swinv	0x00ffffff
30004d84:	41cdcd65 	bicmi	ip, sp, r5, ror #26
30004d88:	00000000 	andeq	r0, r0, r0
30004d8c:	c1cdcd65 	bicgt	ip, sp, r5, ror #26
30004d90:	00000000 	andeq	r0, r0, r0
30004d94:	3000c53c 	andcc	ip, r0, ip, lsr r5
30004d98:	3000c540 	andcc	ip, r0, r0, asr #10
30004d9c:	3000c548 	andcc	ip, r0, r8, asr #10
30004da0:	3000c550 	andcc	ip, r0, r0, asr r5
30004da4:	3000c4ec 	andcc	ip, r0, ip, ror #9
30004da8:	cccccccd 	stcgtl	12, cr12, [ip], {205}
30004dac:	66666667 	strvsbt	r6, [r6], -r7, ror #12
30004db0:	41f00000 	mvnmis	r0, r0
30004db4:	00000000 	andeq	r0, r0, r0
30004db8:	3fe00000 	swicc	0x00e00000
30004dbc:	00000000 	andeq	r0, r0, r0
30004dc0:	e99b0003 	ldmib	fp, {r0, r1}
30004dc4:	eb001487 	bl	30009fe8 <__fixdfsi>
30004dc8:	e1a03000 	mov	r3, r0
30004dcc:	e50b3058 	str	r3, [fp, #-88]
30004dd0:	e3e0304b 	mvn	r3, #75	; 0x4b
30004dd4:	e24b0014 	sub	r0, fp, #20	; 0x14
30004dd8:	e0805003 	add	r5, r0, r3
30004ddc:	e51b0058 	ldr	r0, [fp, #-88]
30004de0:	eb0012d9 	bl	3000994c <__floatsidf>
30004de4:	e1a04001 	mov	r4, r1
30004de8:	e1a03000 	mov	r3, r0
30004dec:	e99b0003 	ldmib	fp, {r0, r1}
30004df0:	e1a02003 	mov	r2, r3
30004df4:	e1a03004 	mov	r3, r4
30004df8:	eb00120f 	bl	3000963c <__subdf3>
30004dfc:	e1a02001 	mov	r2, r1
30004e00:	e1a01000 	mov	r1, r0
30004e04:	e51f0068 	ldr	r0, [pc, #-104]	; 30004da4 <.text+0x4da4>
30004e08:	e59b300c 	ldr	r3, [fp, #12]
30004e0c:	e1a03183 	mov	r3, r3, lsl #3
30004e10:	e0833000 	add	r3, r3, r0
30004e14:	e1a00001 	mov	r0, r1
30004e18:	e1a01002 	mov	r1, r2
30004e1c:	e893000c 	ldmia	r3, {r2, r3}
30004e20:	eb0012e7 	bl	300099c4 <__muldf3>
30004e24:	e1a04001 	mov	r4, r1
30004e28:	e1a03000 	mov	r3, r0
30004e2c:	e8850018 	stmia	r5, {r3, r4}
30004e30:	e3e0304b 	mvn	r3, #75	; 0x4b
30004e34:	e24b1014 	sub	r1, fp, #20	; 0x14
30004e38:	e0813003 	add	r3, r1, r3
30004e3c:	e8930003 	ldmia	r3, {r0, r1}
30004e40:	eb001488 	bl	3000a068 <__fixunsdfsi>
30004e44:	e1a03000 	mov	r3, r0
30004e48:	e50b3064 	str	r3, [fp, #-100]
30004e4c:	e3e0303b 	mvn	r3, #59	; 0x3b
30004e50:	e24b2014 	sub	r2, fp, #20	; 0x14
30004e54:	e0822003 	add	r2, r2, r3
30004e58:	e50b2078 	str	r2, [fp, #-120]
30004e5c:	e3e0304b 	mvn	r3, #75	; 0x4b
30004e60:	e24bc014 	sub	ip, fp, #20	; 0x14
30004e64:	e08cc003 	add	ip, ip, r3
30004e68:	e50bc07c 	str	ip, [fp, #-124]
30004e6c:	e51b0064 	ldr	r0, [fp, #-100]
30004e70:	eb0012b5 	bl	3000994c <__floatsidf>
30004e74:	e24b2080 	sub	r2, fp, #128	; 0x80
30004e78:	e8020003 	stmda	r2, {r0, r1}
30004e7c:	e51b3064 	ldr	r3, [fp, #-100]
30004e80:	e3530000 	cmp	r3, #0	; 0x0
30004e84:	aa000008 	bge	30004eac <.text+0x4eac>
30004e88:	e24b3080 	sub	r3, fp, #128	; 0x80
30004e8c:	e8130003 	ldmda	r3, {r0, r1}
30004e90:	e24f20e8 	sub	r2, pc, #232	; 0xe8
30004e94:	e892000c 	ldmia	r2, {r2, r3}
30004e98:	eb0011e8 	bl	30009640 <__adddf3>
30004e9c:	e1a04001 	mov	r4, r1
30004ea0:	e1a03000 	mov	r3, r0
30004ea4:	e24bc080 	sub	ip, fp, #128	; 0x80
30004ea8:	e80c0018 	stmda	ip, {r3, r4}
30004eac:	e51b207c 	ldr	r2, [fp, #-124]
30004eb0:	e8920003 	ldmia	r2, {r0, r1}
30004eb4:	e24bc080 	sub	ip, fp, #128	; 0x80
30004eb8:	e81c000c 	ldmda	ip, {r2, r3}
30004ebc:	eb0011de 	bl	3000963c <__subdf3>
30004ec0:	e1a04001 	mov	r4, r1
30004ec4:	e1a03000 	mov	r3, r0
30004ec8:	e51b0078 	ldr	r0, [fp, #-120]
30004ecc:	e8800018 	stmia	r0, {r3, r4}
30004ed0:	e3e0303b 	mvn	r3, #59	; 0x3b
30004ed4:	e24b1014 	sub	r1, fp, #20	; 0x14
30004ed8:	e0813003 	add	r3, r1, r3
30004edc:	e8930003 	ldmia	r3, {r0, r1}
30004ee0:	e24f2e13 	sub	r2, pc, #304	; 0x130
30004ee4:	e892000c 	ldmia	r2, {r2, r3}
30004ee8:	eb001415 	bl	30009f44 <__gedf2>
30004eec:	e1a03000 	mov	r3, r0
30004ef0:	e3530000 	cmp	r3, #0	; 0x0
30004ef4:	ca000000 	bgt	30004efc <.text+0x4efc>
30004ef8:	ea000024 	b	30004f90 <.text+0x4f90>
30004efc:	e51b3064 	ldr	r3, [fp, #-100]
30004f00:	e2833001 	add	r3, r3, #1	; 0x1
30004f04:	e50b3064 	str	r3, [fp, #-100]
30004f08:	e51b0064 	ldr	r0, [fp, #-100]
30004f0c:	eb00128e 	bl	3000994c <__floatsidf>
30004f10:	e24b2090 	sub	r2, fp, #144	; 0x90
30004f14:	e9820003 	stmib	r2, {r0, r1}
30004f18:	e51b3064 	ldr	r3, [fp, #-100]
30004f1c:	e3530000 	cmp	r3, #0	; 0x0
30004f20:	aa000008 	bge	30004f48 <.text+0x4f48>
30004f24:	e24b3090 	sub	r3, fp, #144	; 0x90
30004f28:	e9930003 	ldmib	r3, {r0, r1}
30004f2c:	e24f2f61 	sub	r2, pc, #388	; 0x184
30004f30:	e892000c 	ldmia	r2, {r2, r3}
30004f34:	eb0011c1 	bl	30009640 <__adddf3>
30004f38:	e1a04001 	mov	r4, r1
30004f3c:	e1a03000 	mov	r3, r0
30004f40:	e24bc090 	sub	ip, fp, #144	; 0x90
30004f44:	e98c0018 	stmib	ip, {r3, r4}
30004f48:	e51f21ac 	ldr	r2, [pc, #-428]	; 30004da4 <.text+0x4da4>
30004f4c:	e59b300c 	ldr	r3, [fp, #12]
30004f50:	e1a03183 	mov	r3, r3, lsl #3
30004f54:	e0833002 	add	r3, r3, r2
30004f58:	e24b2090 	sub	r2, fp, #144	; 0x90
30004f5c:	e9920003 	ldmib	r2, {r0, r1}
30004f60:	e893000c 	ldmia	r3, {r2, r3}
30004f64:	eb0013f6 	bl	30009f44 <__gedf2>
30004f68:	e1a03000 	mov	r3, r0
30004f6c:	e3530000 	cmp	r3, #0	; 0x0
30004f70:	aa000000 	bge	30004f78 <.text+0x4f78>
30004f74:	ea00001a 	b	30004fe4 <.text+0x4fe4>
30004f78:	e3a03000 	mov	r3, #0	; 0x0
30004f7c:	e50b3064 	str	r3, [fp, #-100]
30004f80:	e51b3058 	ldr	r3, [fp, #-88]
30004f84:	e2833001 	add	r3, r3, #1	; 0x1
30004f88:	e50b3058 	str	r3, [fp, #-88]
30004f8c:	ea000014 	b	30004fe4 <.text+0x4fe4>
30004f90:	e3e0303b 	mvn	r3, #59	; 0x3b
30004f94:	e24bc014 	sub	ip, fp, #20	; 0x14
30004f98:	e08c3003 	add	r3, ip, r3
30004f9c:	e8930003 	ldmia	r3, {r0, r1}
30004fa0:	e24f2e1f 	sub	r2, pc, #496	; 0x1f0
30004fa4:	e892000c 	ldmia	r2, {r2, r3}
30004fa8:	eb0013e7 	bl	30009f4c <__ledf2>
30004fac:	e1a03000 	mov	r3, r0
30004fb0:	e3530000 	cmp	r3, #0	; 0x0
30004fb4:	ba00000a 	blt	30004fe4 <.text+0x4fe4>
30004fb8:	e51b3064 	ldr	r3, [fp, #-100]
30004fbc:	e3530000 	cmp	r3, #0	; 0x0
30004fc0:	0a000004 	beq	30004fd8 <.text+0x4fd8>
30004fc4:	e51b3064 	ldr	r3, [fp, #-100]
30004fc8:	e2033001 	and	r3, r3, #1	; 0x1
30004fcc:	e3530000 	cmp	r3, #0	; 0x0
30004fd0:	1a000000 	bne	30004fd8 <.text+0x4fd8>
30004fd4:	ea000002 	b	30004fe4 <.text+0x4fe4>
30004fd8:	e51b3064 	ldr	r3, [fp, #-100]
30004fdc:	e2833001 	add	r3, r3, #1	; 0x1
30004fe0:	e50b3064 	str	r3, [fp, #-100]
30004fe4:	e59b300c 	ldr	r3, [fp, #12]
30004fe8:	e3530000 	cmp	r3, #0	; 0x0
30004fec:	1a00002b 	bne	300050a0 <.text+0x50a0>
30004ff0:	e3e0303b 	mvn	r3, #59	; 0x3b
30004ff4:	e24b0014 	sub	r0, fp, #20	; 0x14
30004ff8:	e0805003 	add	r5, r0, r3
30004ffc:	e51b0058 	ldr	r0, [fp, #-88]
30005000:	eb001251 	bl	3000994c <__floatsidf>
30005004:	e1a04001 	mov	r4, r1
30005008:	e1a03000 	mov	r3, r0
3000500c:	e99b0003 	ldmib	fp, {r0, r1}
30005010:	e1a02003 	mov	r2, r3
30005014:	e1a03004 	mov	r3, r4
30005018:	eb001187 	bl	3000963c <__subdf3>
3000501c:	e1a04001 	mov	r4, r1
30005020:	e1a03000 	mov	r3, r0
30005024:	e8850018 	stmia	r5, {r3, r4}
30005028:	e3e0303b 	mvn	r3, #59	; 0x3b
3000502c:	e24b1014 	sub	r1, fp, #20	; 0x14
30005030:	e0813003 	add	r3, r1, r3
30005034:	e8930003 	ldmia	r3, {r0, r1}
30005038:	e24f2fa2 	sub	r2, pc, #648	; 0x288
3000503c:	e892000c 	ldmia	r2, {r2, r3}
30005040:	eb0013c1 	bl	30009f4c <__ledf2>
30005044:	e1a03000 	mov	r3, r0
30005048:	e3530000 	cmp	r3, #0	; 0x0
3000504c:	ba000000 	blt	30005054 <.text+0x5054>
30005050:	ea00000a 	b	30005080 <.text+0x5080>
30005054:	e3e0303b 	mvn	r3, #59	; 0x3b
30005058:	e24b2014 	sub	r2, fp, #20	; 0x14
3000505c:	e0823003 	add	r3, r2, r3
30005060:	e8930003 	ldmia	r3, {r0, r1}
30005064:	e24f2fad 	sub	r2, pc, #692	; 0x2b4
30005068:	e892000c 	ldmia	r2, {r2, r3}
3000506c:	eb0013b4 	bl	30009f44 <__gedf2>
30005070:	e1a03000 	mov	r3, r0
30005074:	e3530000 	cmp	r3, #0	; 0x0
30005078:	ca000000 	bgt	30005080 <.text+0x5080>
3000507c:	ea00004c 	b	300051b4 <.text+0x51b4>
30005080:	e51b3058 	ldr	r3, [fp, #-88]
30005084:	e2033001 	and	r3, r3, #1	; 0x1
30005088:	e3530000 	cmp	r3, #0	; 0x0
3000508c:	0a000048 	beq	300051b4 <.text+0x51b4>
30005090:	e51b3058 	ldr	r3, [fp, #-88]
30005094:	e2833001 	add	r3, r3, #1	; 0x1
30005098:	e50b3058 	str	r3, [fp, #-88]
3000509c:	ea000044 	b	300051b4 <.text+0x51b4>
300050a0:	e59b300c 	ldr	r3, [fp, #12]
300050a4:	e50b3068 	str	r3, [fp, #-104]
300050a8:	e51b3048 	ldr	r3, [fp, #-72]
300050ac:	e353001f 	cmp	r3, #31	; 0x1f
300050b0:	8a00001d 	bhi	3000512c <.text+0x512c>
300050b4:	e51b3068 	ldr	r3, [fp, #-104]
300050b8:	e2433001 	sub	r3, r3, #1	; 0x1
300050bc:	e50b3068 	str	r3, [fp, #-104]
300050c0:	e24bc048 	sub	ip, fp, #72	; 0x48
300050c4:	e59c1000 	ldr	r1, [ip]
300050c8:	e3e0202f 	mvn	r2, #47	; 0x2f
300050cc:	e1a03001 	mov	r3, r1
300050d0:	e24b0014 	sub	r0, fp, #20	; 0x14
300050d4:	e0833000 	add	r3, r3, r0
300050d8:	e083e002 	add	lr, r3, r2
300050dc:	e51b0064 	ldr	r0, [fp, #-100]
300050e0:	e51f3340 	ldr	r3, [pc, #-832]	; 30004da8 <.text+0x4da8>
300050e4:	e0832390 	umull	r2, r3, r0, r3
300050e8:	e1a021a3 	mov	r2, r3, lsr #3
300050ec:	e1a03002 	mov	r3, r2
300050f0:	e1a03103 	mov	r3, r3, lsl #2
300050f4:	e0833002 	add	r3, r3, r2
300050f8:	e1a03083 	mov	r3, r3, lsl #1
300050fc:	e0633000 	rsb	r3, r3, r0
30005100:	e2833030 	add	r3, r3, #48	; 0x30
30005104:	e5ce3000 	strb	r3, [lr]
30005108:	e2811001 	add	r1, r1, #1	; 0x1
3000510c:	e58c1000 	str	r1, [ip]
30005110:	e51b2064 	ldr	r2, [fp, #-100]
30005114:	e51f3374 	ldr	r3, [pc, #-884]	; 30004da8 <.text+0x4da8>
30005118:	e083c392 	umull	ip, r3, r2, r3
3000511c:	e1a031a3 	mov	r3, r3, lsr #3
30005120:	e50b3064 	str	r3, [fp, #-100]
30005124:	e3530000 	cmp	r3, #0	; 0x0
30005128:	1affffde 	bne	300050a8 <.text+0x50a8>
3000512c:	e51b3048 	ldr	r3, [fp, #-72]
30005130:	e353001f 	cmp	r3, #31	; 0x1f
30005134:	8a000010 	bhi	3000517c <.text+0x517c>
30005138:	e51b3068 	ldr	r3, [fp, #-104]
3000513c:	e2433001 	sub	r3, r3, #1	; 0x1
30005140:	e50b3068 	str	r3, [fp, #-104]
30005144:	e3730001 	cmn	r3, #1	; 0x1
30005148:	0a00000b 	beq	3000517c <.text+0x517c>
3000514c:	e24b0048 	sub	r0, fp, #72	; 0x48
30005150:	e5902000 	ldr	r2, [r0]
30005154:	e3e0102f 	mvn	r1, #47	; 0x2f
30005158:	e1a03002 	mov	r3, r2
3000515c:	e24bc014 	sub	ip, fp, #20	; 0x14
30005160:	e083300c 	add	r3, r3, ip
30005164:	e0831001 	add	r1, r3, r1
30005168:	e3a03030 	mov	r3, #48	; 0x30
3000516c:	e5c13000 	strb	r3, [r1]
30005170:	e2822001 	add	r2, r2, #1	; 0x1
30005174:	e5802000 	str	r2, [r0]
30005178:	eaffffeb 	b	3000512c <.text+0x512c>
3000517c:	e51b3048 	ldr	r3, [fp, #-72]
30005180:	e353001f 	cmp	r3, #31	; 0x1f
30005184:	8a00000a 	bhi	300051b4 <.text+0x51b4>
30005188:	e24b0048 	sub	r0, fp, #72	; 0x48
3000518c:	e5902000 	ldr	r2, [r0]
30005190:	e3e0102f 	mvn	r1, #47	; 0x2f
30005194:	e1a03002 	mov	r3, r2
30005198:	e24bc014 	sub	ip, fp, #20	; 0x14
3000519c:	e083300c 	add	r3, r3, ip
300051a0:	e0831001 	add	r1, r3, r1
300051a4:	e3a0302e 	mov	r3, #46	; 0x2e
300051a8:	e5c13000 	strb	r3, [r1]
300051ac:	e2822001 	add	r2, r2, #1	; 0x1
300051b0:	e5802000 	str	r2, [r0]
300051b4:	e51b3048 	ldr	r3, [fp, #-72]
300051b8:	e353001f 	cmp	r3, #31	; 0x1f
300051bc:	8a00001e 	bhi	3000523c <.text+0x523c>
300051c0:	e24bc048 	sub	ip, fp, #72	; 0x48
300051c4:	e59c0000 	ldr	r0, [ip]
300051c8:	e3e0202f 	mvn	r2, #47	; 0x2f
300051cc:	e1a03000 	mov	r3, r0
300051d0:	e24b1014 	sub	r1, fp, #20	; 0x14
300051d4:	e0833001 	add	r3, r3, r1
300051d8:	e083e002 	add	lr, r3, r2
300051dc:	e51b1058 	ldr	r1, [fp, #-88]
300051e0:	e51f343c 	ldr	r3, [pc, #-1084]	; 30004dac <.text+0x4dac>
300051e4:	e0c32391 	smull	r2, r3, r1, r3
300051e8:	e1a02143 	mov	r2, r3, asr #2
300051ec:	e1a03fc1 	mov	r3, r1, asr #31
300051f0:	e0632002 	rsb	r2, r3, r2
300051f4:	e1a03002 	mov	r3, r2
300051f8:	e1a03103 	mov	r3, r3, lsl #2
300051fc:	e0833002 	add	r3, r3, r2
30005200:	e1a03083 	mov	r3, r3, lsl #1
30005204:	e0633001 	rsb	r3, r3, r1
30005208:	e2833030 	add	r3, r3, #48	; 0x30
3000520c:	e5ce3000 	strb	r3, [lr]
30005210:	e2800001 	add	r0, r0, #1	; 0x1
30005214:	e58c0000 	str	r0, [ip]
30005218:	e51b1058 	ldr	r1, [fp, #-88]
3000521c:	e51f3478 	ldr	r3, [pc, #-1144]	; 30004dac <.text+0x4dac>
30005220:	e0c3c391 	smull	ip, r3, r1, r3
30005224:	e1a02143 	mov	r2, r3, asr #2
30005228:	e1a03fc1 	mov	r3, r1, asr #31
3000522c:	e0633002 	rsb	r3, r3, r2
30005230:	e50b3058 	str	r3, [fp, #-88]
30005234:	e3530000 	cmp	r3, #0	; 0x0
30005238:	1affffdd 	bne	300051b4 <.text+0x51b4>
3000523c:	e59b3014 	ldr	r3, [fp, #20]
30005240:	e2033002 	and	r3, r3, #2	; 0x2
30005244:	e3530000 	cmp	r3, #0	; 0x0
30005248:	1a000024 	bne	300052e0 <.text+0x52e0>
3000524c:	e59b3014 	ldr	r3, [fp, #20]
30005250:	e2033001 	and	r3, r3, #1	; 0x1
30005254:	e3530000 	cmp	r3, #0	; 0x0
30005258:	0a000020 	beq	300052e0 <.text+0x52e0>
3000525c:	e59b3010 	ldr	r3, [fp, #16]
30005260:	e3530000 	cmp	r3, #0	; 0x0
30005264:	0a00000a 	beq	30005294 <.text+0x5294>
30005268:	e55b3051 	ldrb	r3, [fp, #-81]
3000526c:	e3530000 	cmp	r3, #0	; 0x0
30005270:	1a000004 	bne	30005288 <.text+0x5288>
30005274:	e59b3014 	ldr	r3, [fp, #20]
30005278:	e203300c 	and	r3, r3, #12	; 0xc
3000527c:	e3530000 	cmp	r3, #0	; 0x0
30005280:	1a000000 	bne	30005288 <.text+0x5288>
30005284:	ea000002 	b	30005294 <.text+0x5294>
30005288:	e59b3010 	ldr	r3, [fp, #16]
3000528c:	e2433001 	sub	r3, r3, #1	; 0x1
30005290:	e58b3010 	str	r3, [fp, #16]
30005294:	e51b2048 	ldr	r2, [fp, #-72]
30005298:	e59b3010 	ldr	r3, [fp, #16]
3000529c:	e1520003 	cmp	r2, r3
300052a0:	2a00000e 	bcs	300052e0 <.text+0x52e0>
300052a4:	e51b3048 	ldr	r3, [fp, #-72]
300052a8:	e353001f 	cmp	r3, #31	; 0x1f
300052ac:	8a00000b 	bhi	300052e0 <.text+0x52e0>
300052b0:	e24b0048 	sub	r0, fp, #72	; 0x48
300052b4:	e5902000 	ldr	r2, [r0]
300052b8:	e3e0102f 	mvn	r1, #47	; 0x2f
300052bc:	e1a03002 	mov	r3, r2
300052c0:	e24bc014 	sub	ip, fp, #20	; 0x14
300052c4:	e083300c 	add	r3, r3, ip
300052c8:	e0831001 	add	r1, r3, r1
300052cc:	e3a03030 	mov	r3, #48	; 0x30
300052d0:	e5c13000 	strb	r3, [r1]
300052d4:	e2822001 	add	r2, r2, #1	; 0x1
300052d8:	e5802000 	str	r2, [r0]
300052dc:	eaffffec 	b	30005294 <.text+0x5294>
300052e0:	e51b3048 	ldr	r3, [fp, #-72]
300052e4:	e353001f 	cmp	r3, #31	; 0x1f
300052e8:	8a00002d 	bhi	300053a4 <.text+0x53a4>
300052ec:	e55b3051 	ldrb	r3, [fp, #-81]
300052f0:	e3530000 	cmp	r3, #0	; 0x0
300052f4:	0a00000b 	beq	30005328 <.text+0x5328>
300052f8:	e24b0048 	sub	r0, fp, #72	; 0x48
300052fc:	e5902000 	ldr	r2, [r0]
30005300:	e3e0102f 	mvn	r1, #47	; 0x2f
30005304:	e1a03002 	mov	r3, r2
30005308:	e24bc014 	sub	ip, fp, #20	; 0x14
3000530c:	e083300c 	add	r3, r3, ip
30005310:	e0831001 	add	r1, r3, r1
30005314:	e3a0302d 	mov	r3, #45	; 0x2d
30005318:	e5c13000 	strb	r3, [r1]
3000531c:	e2822001 	add	r2, r2, #1	; 0x1
30005320:	e5802000 	str	r2, [r0]
30005324:	ea00001e 	b	300053a4 <.text+0x53a4>
30005328:	e59b3014 	ldr	r3, [fp, #20]
3000532c:	e2033004 	and	r3, r3, #4	; 0x4
30005330:	e3530000 	cmp	r3, #0	; 0x0
30005334:	0a00000b 	beq	30005368 <.text+0x5368>
30005338:	e24b0048 	sub	r0, fp, #72	; 0x48
3000533c:	e5902000 	ldr	r2, [r0]
30005340:	e3e0102f 	mvn	r1, #47	; 0x2f
30005344:	e1a03002 	mov	r3, r2
30005348:	e24bc014 	sub	ip, fp, #20	; 0x14
3000534c:	e083300c 	add	r3, r3, ip
30005350:	e0831001 	add	r1, r3, r1
30005354:	e3a0302b 	mov	r3, #43	; 0x2b
30005358:	e5c13000 	strb	r3, [r1]
3000535c:	e2822001 	add	r2, r2, #1	; 0x1
30005360:	e5802000 	str	r2, [r0]
30005364:	ea00000e 	b	300053a4 <.text+0x53a4>
30005368:	e59b3014 	ldr	r3, [fp, #20]
3000536c:	e2033008 	and	r3, r3, #8	; 0x8
30005370:	e3530000 	cmp	r3, #0	; 0x0
30005374:	0a00000a 	beq	300053a4 <.text+0x53a4>
30005378:	e24b0048 	sub	r0, fp, #72	; 0x48
3000537c:	e5902000 	ldr	r2, [r0]
30005380:	e3e0102f 	mvn	r1, #47	; 0x2f
30005384:	e1a03002 	mov	r3, r2
30005388:	e24bc014 	sub	ip, fp, #20	; 0x14
3000538c:	e083300c 	add	r3, r3, ip
30005390:	e0831001 	add	r1, r3, r1
30005394:	e3a03020 	mov	r3, #32	; 0x20
30005398:	e5c13000 	strb	r3, [r1]
3000539c:	e2822001 	add	r2, r2, #1	; 0x1
300053a0:	e5802000 	str	r2, [r0]
300053a4:	e24b3044 	sub	r3, fp, #68	; 0x44
300053a8:	e58d3000 	str	r3, [sp]
300053ac:	e51b3048 	ldr	r3, [fp, #-72]
300053b0:	e58d3004 	str	r3, [sp, #4]
300053b4:	e59b3010 	ldr	r3, [fp, #16]
300053b8:	e58d3008 	str	r3, [sp, #8]
300053bc:	e59b3014 	ldr	r3, [fp, #20]
300053c0:	e58d300c 	str	r3, [sp, #12]
300053c4:	e51b0018 	ldr	r0, [fp, #-24]
300053c8:	e51b101c 	ldr	r1, [fp, #-28]
300053cc:	e51b2020 	ldr	r2, [fp, #-32]
300053d0:	e51b3024 	ldr	r3, [fp, #-36]
300053d4:	ebfffb9a 	bl	30004244 <_out_rev>
300053d8:	e1a03000 	mov	r3, r0
300053dc:	e50b306c 	str	r3, [fp, #-108]
300053e0:	e51b006c 	ldr	r0, [fp, #-108]
300053e4:	e24bd014 	sub	sp, fp, #20	; 0x14
300053e8:	e89da830 	ldmia	sp, {r4, r5, fp, sp, pc}

300053ec <_etoa>:
300053ec:	e1a0c00d 	mov	ip, sp
300053f0:	e92ddff0 	stmdb	sp!, {r4, r5, r6, r7, r8, r9, sl, fp, ip, lr, pc}
300053f4:	e24cb004 	sub	fp, ip, #4	; 0x4
300053f8:	e24dd07c 	sub	sp, sp, #124	; 0x7c
300053fc:	e50b002c 	str	r0, [fp, #-44]
30005400:	e50b1030 	str	r1, [fp, #-48]
30005404:	e50b2034 	str	r2, [fp, #-52]
30005408:	e50b3038 	str	r3, [fp, #-56]
3000540c:	e99b0003 	ldmib	fp, {r0, r1}
30005410:	e99b000c 	ldmib	fp, {r2, r3}
30005414:	eb0012ce 	bl	30009f54 <__cmpdf2>
30005418:	e1a03000 	mov	r3, r0
3000541c:	e3530000 	cmp	r3, #0	; 0x0
30005420:	1a00000e 	bne	30005460 <_etoa+0x74>
30005424:	e99b0003 	ldmib	fp, {r0, r1}
30005428:	e28f2098 	add	r2, pc, #152	; 0x98
3000542c:	e892000c 	ldmia	r2, {r2, r3}
30005430:	eb0012c3 	bl	30009f44 <__gedf2>
30005434:	e1a03000 	mov	r3, r0
30005438:	e3530000 	cmp	r3, #0	; 0x0
3000543c:	ca000007 	bgt	30005460 <_etoa+0x74>
30005440:	e99b0003 	ldmib	fp, {r0, r1}
30005444:	e28f2084 	add	r2, pc, #132	; 0x84
30005448:	e892000c 	ldmia	r2, {r2, r3}
3000544c:	eb0012be 	bl	30009f4c <__ledf2>
30005450:	e1a03000 	mov	r3, r0
30005454:	e3530000 	cmp	r3, #0	; 0x0
30005458:	ba000000 	blt	30005460 <_etoa+0x74>
3000545c:	ea00000f 	b	300054a0 <_etoa+0xb4>
30005460:	e99b0018 	ldmib	fp, {r3, r4}
30005464:	e88d0018 	stmia	sp, {r3, r4}
30005468:	e59b300c 	ldr	r3, [fp, #12]
3000546c:	e58d3008 	str	r3, [sp, #8]
30005470:	e59b3010 	ldr	r3, [fp, #16]
30005474:	e58d300c 	str	r3, [sp, #12]
30005478:	e59b3014 	ldr	r3, [fp, #20]
3000547c:	e58d3010 	str	r3, [sp, #16]
30005480:	e51b002c 	ldr	r0, [fp, #-44]
30005484:	e51b1030 	ldr	r1, [fp, #-48]
30005488:	e51b2034 	ldr	r2, [fp, #-52]
3000548c:	e51b3038 	ldr	r3, [fp, #-56]
30005490:	ebfffd7f 	bl	30004a94 <_ftoa>
30005494:	e1a03000 	mov	r3, r0
30005498:	e50b306c 	str	r3, [fp, #-108]
3000549c:	ea000234 	b	30005d74 <.text+0x5d74>
300054a0:	e3a03000 	mov	r3, #0	; 0x0
300054a4:	e54b306d 	strb	r3, [fp, #-109]
300054a8:	e99b0003 	ldmib	fp, {r0, r1}
300054ac:	e28f2024 	add	r2, pc, #36	; 0x24
300054b0:	e892000c 	ldmia	r2, {r2, r3}
300054b4:	eb0012a4 	bl	30009f4c <__ledf2>
300054b8:	e1a03000 	mov	r3, r0
300054bc:	e3530000 	cmp	r3, #0	; 0x0
300054c0:	ba000022 	blt	30005550 <.text+0x5550>
300054c4:	ea000023 	b	30005558 <.text+0x5558>
300054c8:	7fefffff 	swivc	0x00efffff
300054cc:	ffffffff 	swinv	0x00ffffff
300054d0:	ffefffff 	swinv	0x00efffff
300054d4:	ffffffff 	swinv	0x00ffffff
	...
300054e0:	80000000 	andhi	r0, r0, r0
300054e4:	00000000 	andeq	r0, r0, r0
300054e8:	ffffffff 	swinv	0x00ffffff
300054ec:	000fffff 	streqd	pc, [pc], -pc
300054f0:	00000000 	andeq	r0, r0, r0
300054f4:	3ff00000 	swicc	0x00f00000	; IMB
300054f8:	3fd34413 	swicc	0x00d34413
300054fc:	509f79fb 	ldrplsh	r7, [pc], fp
30005500:	3fc68a28 	swicc	0x00c68a28
30005504:	8b60c8b3 	blhi	318377d8 <__bss_end+0x182a7bc>
30005508:	3ff80000 	swicc	0x00f80000
3000550c:	00000000 	andeq	r0, r0, r0
30005510:	3fd287a7 	swicc	0x00d287a7
30005514:	636f4361 	cmnvs	pc, #-2080374783	; 0x84000001
30005518:	400a934f 	andmi	r9, sl, pc, asr #6
3000551c:	0979a371 	ldmeqdb	r9!, {r0, r4, r5, r6, r8, r9, sp, pc}^
30005520:	3fe00000 	swicc	0x00e00000
30005524:	00000000 	andeq	r0, r0, r0
30005528:	40026bb1 	strmih	r6, [r2], -r1
3000552c:	bbb55516 	bllt	2ed5a98c <__code_start-0x12a5674>
30005530:	3fe62e42 	swicc	0x00e62e42
30005534:	fefa39ef 	cdp2	9, 15, cr3, cr10, cr15, {7}
30005538:	40000000 	andmi	r0, r0, r0
3000553c:	00000000 	andeq	r0, r0, r0
30005540:	402c0000 	eormi	r0, ip, r0
30005544:	00000000 	andeq	r0, r0, r0
30005548:	40240000 	eormi	r0, r4, r0
3000554c:	00000000 	andeq	r0, r0, r0
30005550:	e3a03001 	mov	r3, #1	; 0x1
30005554:	e54b306d 	strb	r3, [fp, #-109]
30005558:	e55b106d 	ldrb	r1, [fp, #-109]
3000555c:	e54b1039 	strb	r1, [fp, #-57]
30005560:	e55b3039 	ldrb	r3, [fp, #-57]
30005564:	e3530000 	cmp	r3, #0	; 0x0
30005568:	0a000005 	beq	30005584 <.text+0x5584>
3000556c:	e99b0006 	ldmib	fp, {r1, r2}
30005570:	e24f3098 	sub	r3, pc, #152	; 0x98
30005574:	e8930018 	ldmia	r3, {r3, r4}
30005578:	e0233001 	eor	r3, r3, r1
3000557c:	e0244002 	eor	r4, r4, r2
30005580:	e98b0018 	stmib	fp, {r3, r4}
30005584:	e59b3014 	ldr	r3, [fp, #20]
30005588:	e2033b01 	and	r3, r3, #1024	; 0x400
3000558c:	e3530000 	cmp	r3, #0	; 0x0
30005590:	1a000001 	bne	3000559c <.text+0x559c>
30005594:	e3a03006 	mov	r3, #6	; 0x6
30005598:	e58b300c 	str	r3, [fp, #12]
3000559c:	e3e0301b 	mvn	r3, #27	; 0x1b
300055a0:	e24b4028 	sub	r4, fp, #40	; 0x28
300055a4:	e0842003 	add	r2, r4, r3
300055a8:	e99b0018 	ldmib	fp, {r3, r4}
300055ac:	e8820018 	stmia	r2, {r3, r4}
300055b0:	e3e0301b 	mvn	r3, #27	; 0x1b
300055b4:	e24b1028 	sub	r1, fp, #40	; 0x28
300055b8:	e0813003 	add	r3, r1, r3
300055bc:	e5932004 	ldr	r2, [r3, #4]
300055c0:	e1a03a22 	mov	r3, r2, lsr #20
300055c4:	e3a04000 	mov	r4, #0	; 0x0
300055c8:	e1a03a83 	mov	r3, r3, lsl #21
300055cc:	e1a03aa3 	mov	r3, r3, lsr #21
300055d0:	e2433fff 	sub	r3, r3, #1020	; 0x3fc
300055d4:	e2433003 	sub	r3, r3, #3	; 0x3
300055d8:	e50b3048 	str	r3, [fp, #-72]
300055dc:	e3e0301b 	mvn	r3, #27	; 0x1b
300055e0:	e24b2028 	sub	r2, fp, #40	; 0x28
300055e4:	e0820003 	add	r0, r2, r3
300055e8:	e3e0301b 	mvn	r3, #27	; 0x1b
300055ec:	e24b4028 	sub	r4, fp, #40	; 0x28
300055f0:	e0843003 	add	r3, r4, r3
300055f4:	e8930006 	ldmia	r3, {r1, r2}
300055f8:	e24f3f46 	sub	r3, pc, #280	; 0x118
300055fc:	e8930018 	ldmia	r3, {r3, r4}
30005600:	e0011003 	and	r1, r1, r3
30005604:	e0022004 	and	r2, r2, r4
30005608:	e24f3e12 	sub	r3, pc, #288	; 0x120
3000560c:	e8930018 	ldmia	r3, {r3, r4}
30005610:	e1833001 	orr	r3, r3, r1
30005614:	e1844002 	orr	r4, r4, r2
30005618:	e8800018 	stmia	r0, {r3, r4}
3000561c:	e51b0048 	ldr	r0, [fp, #-72]
30005620:	eb0010c9 	bl	3000994c <__floatsidf>
30005624:	e1a04001 	mov	r4, r1
30005628:	e1a03000 	mov	r3, r0
3000562c:	e1a01004 	mov	r1, r4
30005630:	e1a00003 	mov	r0, r3
30005634:	e24f2f51 	sub	r2, pc, #324	; 0x144
30005638:	e892000c 	ldmia	r2, {r2, r3}
3000563c:	eb0010e0 	bl	300099c4 <__muldf3>
30005640:	e1a04001 	mov	r4, r1
30005644:	e1a03000 	mov	r3, r0
30005648:	e1a01004 	mov	r1, r4
3000564c:	e1a00003 	mov	r0, r3
30005650:	e24f2f56 	sub	r2, pc, #344	; 0x158
30005654:	e892000c 	ldmia	r2, {r2, r3}
30005658:	eb000ff8 	bl	30009640 <__adddf3>
3000565c:	e1a06001 	mov	r6, r1
30005660:	e1a05000 	mov	r5, r0
30005664:	e3e0301b 	mvn	r3, #27	; 0x1b
30005668:	e24b1028 	sub	r1, fp, #40	; 0x28
3000566c:	e0813003 	add	r3, r1, r3
30005670:	e8930003 	ldmia	r3, {r0, r1}
30005674:	e24f2f5d 	sub	r2, pc, #372	; 0x174
30005678:	e892000c 	ldmia	r2, {r2, r3}
3000567c:	eb000fee 	bl	3000963c <__subdf3>
30005680:	e1a04001 	mov	r4, r1
30005684:	e1a03000 	mov	r3, r0
30005688:	e1a01004 	mov	r1, r4
3000568c:	e1a00003 	mov	r0, r3
30005690:	e24f2f62 	sub	r2, pc, #392	; 0x188
30005694:	e892000c 	ldmia	r2, {r2, r3}
30005698:	eb0010c9 	bl	300099c4 <__muldf3>
3000569c:	e1a04001 	mov	r4, r1
300056a0:	e1a03000 	mov	r3, r0
300056a4:	e1a01006 	mov	r1, r6
300056a8:	e1a00005 	mov	r0, r5
300056ac:	e1a02003 	mov	r2, r3
300056b0:	e1a03004 	mov	r3, r4
300056b4:	eb000fe1 	bl	30009640 <__adddf3>
300056b8:	e1a04001 	mov	r4, r1
300056bc:	e1a03000 	mov	r3, r0
300056c0:	e1a01004 	mov	r1, r4
300056c4:	e1a00003 	mov	r0, r3
300056c8:	eb001246 	bl	30009fe8 <__fixdfsi>
300056cc:	e1a03000 	mov	r3, r0
300056d0:	e50b304c 	str	r3, [fp, #-76]
300056d4:	e51b004c 	ldr	r0, [fp, #-76]
300056d8:	eb00109b 	bl	3000994c <__floatsidf>
300056dc:	e1a04001 	mov	r4, r1
300056e0:	e1a03000 	mov	r3, r0
300056e4:	e1a01004 	mov	r1, r4
300056e8:	e1a00003 	mov	r0, r3
300056ec:	e24f2f77 	sub	r2, pc, #476	; 0x1dc
300056f0:	e892000c 	ldmia	r2, {r2, r3}
300056f4:	eb0010b2 	bl	300099c4 <__muldf3>
300056f8:	e1a04001 	mov	r4, r1
300056fc:	e1a03000 	mov	r3, r0
30005700:	e1a01004 	mov	r1, r4
30005704:	e1a00003 	mov	r0, r3
30005708:	e24f2e1f 	sub	r2, pc, #496	; 0x1f0
3000570c:	e892000c 	ldmia	r2, {r2, r3}
30005710:	eb000fca 	bl	30009640 <__adddf3>
30005714:	e1a04001 	mov	r4, r1
30005718:	e1a03000 	mov	r3, r0
3000571c:	e1a01004 	mov	r1, r4
30005720:	e1a00003 	mov	r0, r3
30005724:	eb00122f 	bl	30009fe8 <__fixdfsi>
30005728:	e1a03000 	mov	r3, r0
3000572c:	e50b3048 	str	r3, [fp, #-72]
30005730:	e3e0302b 	mvn	r3, #43	; 0x2b
30005734:	e24b2028 	sub	r2, fp, #40	; 0x28
30005738:	e0827003 	add	r7, r2, r3
3000573c:	e51b004c 	ldr	r0, [fp, #-76]
30005740:	eb001081 	bl	3000994c <__floatsidf>
30005744:	e1a04001 	mov	r4, r1
30005748:	e1a03000 	mov	r3, r0
3000574c:	e1a01004 	mov	r1, r4
30005750:	e1a00003 	mov	r0, r3
30005754:	e24f2f8d 	sub	r2, pc, #564	; 0x234
30005758:	e892000c 	ldmia	r2, {r2, r3}
3000575c:	eb001098 	bl	300099c4 <__muldf3>
30005760:	e1a06001 	mov	r6, r1
30005764:	e1a05000 	mov	r5, r0
30005768:	e51b0048 	ldr	r0, [fp, #-72]
3000576c:	eb001076 	bl	3000994c <__floatsidf>
30005770:	e1a04001 	mov	r4, r1
30005774:	e1a03000 	mov	r3, r0
30005778:	e1a01004 	mov	r1, r4
3000577c:	e1a00003 	mov	r0, r3
30005780:	e24f2f96 	sub	r2, pc, #600	; 0x258
30005784:	e892000c 	ldmia	r2, {r2, r3}
30005788:	eb00108d 	bl	300099c4 <__muldf3>
3000578c:	e1a04001 	mov	r4, r1
30005790:	e1a03000 	mov	r3, r0
30005794:	e1a01006 	mov	r1, r6
30005798:	e1a00005 	mov	r0, r5
3000579c:	e1a02003 	mov	r2, r3
300057a0:	e1a03004 	mov	r3, r4
300057a4:	eb000fa4 	bl	3000963c <__subdf3>
300057a8:	e1a04001 	mov	r4, r1
300057ac:	e1a03000 	mov	r3, r0
300057b0:	e8870018 	stmia	r7, {r3, r4}
300057b4:	e3e03033 	mvn	r3, #51	; 0x33
300057b8:	e24b4028 	sub	r4, fp, #40	; 0x28
300057bc:	e0845003 	add	r5, r4, r3
300057c0:	e3e0302b 	mvn	r3, #43	; 0x2b
300057c4:	e24b1028 	sub	r1, fp, #40	; 0x28
300057c8:	e0813003 	add	r3, r1, r3
300057cc:	e8930003 	ldmia	r3, {r0, r1}
300057d0:	e893000c 	ldmia	r3, {r2, r3}
300057d4:	eb00107a 	bl	300099c4 <__muldf3>
300057d8:	e1a04001 	mov	r4, r1
300057dc:	e1a03000 	mov	r3, r0
300057e0:	e8850018 	stmia	r5, {r3, r4}
300057e4:	e3e0301b 	mvn	r3, #27	; 0x1b
300057e8:	e24b4028 	sub	r4, fp, #40	; 0x28
300057ec:	e0842003 	add	r2, r4, r3
300057f0:	e51b3048 	ldr	r3, [fp, #-72]
300057f4:	e2833fff 	add	r3, r3, #1020	; 0x3fc
300057f8:	e2833003 	add	r3, r3, #3	; 0x3
300057fc:	e1a04fc3 	mov	r4, r3, asr #31
30005800:	e1a03a03 	mov	r3, r3, lsl #20
30005804:	e5823004 	str	r3, [r2, #4]
30005808:	e3a03000 	mov	r3, #0	; 0x0
3000580c:	e5823000 	str	r3, [r2]
30005810:	e3e0301b 	mvn	r3, #27	; 0x1b
30005814:	e24b1028 	sub	r1, fp, #40	; 0x28
30005818:	e0815003 	add	r5, r1, r3
3000581c:	e3e0301b 	mvn	r3, #27	; 0x1b
30005820:	e24b2028 	sub	r2, fp, #40	; 0x28
30005824:	e0826003 	add	r6, r2, r3
30005828:	e3e0302b 	mvn	r3, #43	; 0x2b
3000582c:	e24b4028 	sub	r4, fp, #40	; 0x28
30005830:	e0843003 	add	r3, r4, r3
30005834:	e8930018 	ldmia	r3, {r3, r4}
30005838:	e1a01004 	mov	r1, r4
3000583c:	e1a00003 	mov	r0, r3
30005840:	e1a02003 	mov	r2, r3
30005844:	e1a03004 	mov	r3, r4
30005848:	eb000f7c 	bl	30009640 <__adddf3>
3000584c:	e1a08001 	mov	r8, r1
30005850:	e1a07000 	mov	r7, r0
30005854:	e3e0302b 	mvn	r3, #43	; 0x2b
30005858:	e24b1028 	sub	r1, fp, #40	; 0x28
3000585c:	e0813003 	add	r3, r1, r3
30005860:	e24f0e33 	sub	r0, pc, #816	; 0x330
30005864:	e8900003 	ldmia	r0, {r0, r1}
30005868:	e893000c 	ldmia	r3, {r2, r3}
3000586c:	eb000f72 	bl	3000963c <__subdf3>
30005870:	e1a0a001 	mov	sl, r1
30005874:	e1a09000 	mov	r9, r0
30005878:	e3e03033 	mvn	r3, #51	; 0x33
3000587c:	e24b2028 	sub	r2, fp, #40	; 0x28
30005880:	e0822003 	add	r2, r2, r3
30005884:	e50b2074 	str	r2, [fp, #-116]
30005888:	e3e03033 	mvn	r3, #51	; 0x33
3000588c:	e24b4028 	sub	r4, fp, #40	; 0x28
30005890:	e0844003 	add	r4, r4, r3
30005894:	e50b4078 	str	r4, [fp, #-120]
30005898:	e3e03033 	mvn	r3, #51	; 0x33
3000589c:	e24b1028 	sub	r1, fp, #40	; 0x28
300058a0:	e0813003 	add	r3, r1, r3
300058a4:	e8930003 	ldmia	r3, {r0, r1}
300058a8:	e24f2e37 	sub	r2, pc, #880	; 0x370
300058ac:	e892000c 	ldmia	r2, {r2, r3}
300058b0:	eb001108 	bl	30009cd8 <__divdf3>
300058b4:	e1a04001 	mov	r4, r1
300058b8:	e1a03000 	mov	r3, r0
300058bc:	e1a01004 	mov	r1, r4
300058c0:	e1a00003 	mov	r0, r3
300058c4:	e24f2fe1 	sub	r2, pc, #900	; 0x384
300058c8:	e892000c 	ldmia	r2, {r2, r3}
300058cc:	eb000f5b 	bl	30009640 <__adddf3>
300058d0:	e1a04001 	mov	r4, r1
300058d4:	e1a03000 	mov	r3, r0
300058d8:	e51b2078 	ldr	r2, [fp, #-120]
300058dc:	e8920003 	ldmia	r2, {r0, r1}
300058e0:	e1a02003 	mov	r2, r3
300058e4:	e1a03004 	mov	r3, r4
300058e8:	eb0010fa 	bl	30009cd8 <__divdf3>
300058ec:	e1a04001 	mov	r4, r1
300058f0:	e1a03000 	mov	r3, r0
300058f4:	e1a01004 	mov	r1, r4
300058f8:	e1a00003 	mov	r0, r3
300058fc:	e28f2e33 	add	r2, pc, #816	; 0x330
30005900:	e892000c 	ldmia	r2, {r2, r3}
30005904:	eb000f4d 	bl	30009640 <__adddf3>
30005908:	e1a04001 	mov	r4, r1
3000590c:	e1a03000 	mov	r3, r0
30005910:	e51b2074 	ldr	r2, [fp, #-116]
30005914:	e8920003 	ldmia	r2, {r0, r1}
30005918:	e1a02003 	mov	r2, r3
3000591c:	e1a03004 	mov	r3, r4
30005920:	eb0010ec 	bl	30009cd8 <__divdf3>
30005924:	e1a04001 	mov	r4, r1
30005928:	e1a03000 	mov	r3, r0
3000592c:	e1a0100a 	mov	r1, sl
30005930:	e1a00009 	mov	r0, r9
30005934:	e1a02003 	mov	r2, r3
30005938:	e1a03004 	mov	r3, r4
3000593c:	eb000f3f 	bl	30009640 <__adddf3>
30005940:	e1a04001 	mov	r4, r1
30005944:	e1a03000 	mov	r3, r0
30005948:	e1a01008 	mov	r1, r8
3000594c:	e1a00007 	mov	r0, r7
30005950:	e1a02003 	mov	r2, r3
30005954:	e1a03004 	mov	r3, r4
30005958:	eb0010de 	bl	30009cd8 <__divdf3>
3000595c:	e1a04001 	mov	r4, r1
30005960:	e1a03000 	mov	r3, r0
30005964:	e1a01004 	mov	r1, r4
30005968:	e1a00003 	mov	r0, r3
3000596c:	e28f2fb2 	add	r2, pc, #712	; 0x2c8
30005970:	e892000c 	ldmia	r2, {r2, r3}
30005974:	eb000f31 	bl	30009640 <__adddf3>
30005978:	e1a04001 	mov	r4, r1
3000597c:	e1a03000 	mov	r3, r0
30005980:	e8960003 	ldmia	r6, {r0, r1}
30005984:	e1a02003 	mov	r2, r3
30005988:	e1a03004 	mov	r3, r4
3000598c:	eb00100c 	bl	300099c4 <__muldf3>
30005990:	e1a04001 	mov	r4, r1
30005994:	e1a03000 	mov	r3, r0
30005998:	e8850018 	stmia	r5, {r3, r4}
3000599c:	e3e0301b 	mvn	r3, #27	; 0x1b
300059a0:	e24b4028 	sub	r4, fp, #40	; 0x28
300059a4:	e0843003 	add	r3, r4, r3
300059a8:	e8930003 	ldmia	r3, {r0, r1}
300059ac:	e99b000c 	ldmib	fp, {r2, r3}
300059b0:	eb001163 	bl	30009f44 <__gedf2>
300059b4:	e1a03000 	mov	r3, r0
300059b8:	e3530000 	cmp	r3, #0	; 0x0
300059bc:	ca000000 	bgt	300059c4 <.text+0x59c4>
300059c0:	ea00000f 	b	30005a04 <.text+0x5a04>
300059c4:	e51b304c 	ldr	r3, [fp, #-76]
300059c8:	e2433001 	sub	r3, r3, #1	; 0x1
300059cc:	e50b304c 	str	r3, [fp, #-76]
300059d0:	e3e0301b 	mvn	r3, #27	; 0x1b
300059d4:	e24b1028 	sub	r1, fp, #40	; 0x28
300059d8:	e0815003 	add	r5, r1, r3
300059dc:	e3e0301b 	mvn	r3, #27	; 0x1b
300059e0:	e24b2028 	sub	r2, fp, #40	; 0x28
300059e4:	e0823003 	add	r3, r2, r3
300059e8:	e8930003 	ldmia	r3, {r0, r1}
300059ec:	e28f2e25 	add	r2, pc, #592	; 0x250
300059f0:	e892000c 	ldmia	r2, {r2, r3}
300059f4:	eb0010b7 	bl	30009cd8 <__divdf3>
300059f8:	e1a04001 	mov	r4, r1
300059fc:	e1a03000 	mov	r3, r0
30005a00:	e8850018 	stmia	r5, {r3, r4}
30005a04:	e51b304c 	ldr	r3, [fp, #-76]
30005a08:	e3530063 	cmp	r3, #99	; 0x63
30005a0c:	ca000005 	bgt	30005a28 <.text+0x5a28>
30005a10:	e51b304c 	ldr	r3, [fp, #-76]
30005a14:	e3730064 	cmn	r3, #100	; 0x64
30005a18:	da000002 	ble	30005a28 <.text+0x5a28>
30005a1c:	e3a03004 	mov	r3, #4	; 0x4
30005a20:	e50b307c 	str	r3, [fp, #-124]
30005a24:	ea000001 	b	30005a30 <.text+0x5a30>
30005a28:	e3a04005 	mov	r4, #5	; 0x5
30005a2c:	e50b407c 	str	r4, [fp, #-124]
30005a30:	e51b107c 	ldr	r1, [fp, #-124]
30005a34:	e50b1060 	str	r1, [fp, #-96]
30005a38:	e59b3014 	ldr	r3, [fp, #20]
30005a3c:	e2033b02 	and	r3, r3, #2048	; 0x800
30005a40:	e3530000 	cmp	r3, #0	; 0x0
30005a44:	0a00002d 	beq	30005b00 <.text+0x5b00>
30005a48:	e99b0003 	ldmib	fp, {r0, r1}
30005a4c:	e28f2f7e 	add	r2, pc, #504	; 0x1f8
30005a50:	e892000c 	ldmia	r2, {r2, r3}
30005a54:	eb00113a 	bl	30009f44 <__gedf2>
30005a58:	e1a03000 	mov	r3, r0
30005a5c:	e3530000 	cmp	r3, #0	; 0x0
30005a60:	aa000000 	bge	30005a68 <.text+0x5a68>
30005a64:	ea00001b 	b	30005ad8 <.text+0x5ad8>
30005a68:	e99b0003 	ldmib	fp, {r0, r1}
30005a6c:	e28f2e1e 	add	r2, pc, #480	; 0x1e0
30005a70:	e892000c 	ldmia	r2, {r2, r3}
30005a74:	eb001134 	bl	30009f4c <__ledf2>
30005a78:	e1a03000 	mov	r3, r0
30005a7c:	e3530000 	cmp	r3, #0	; 0x0
30005a80:	ba000000 	blt	30005a88 <.text+0x5a88>
30005a84:	ea000013 	b	30005ad8 <.text+0x5ad8>
30005a88:	e59b200c 	ldr	r2, [fp, #12]
30005a8c:	e51b304c 	ldr	r3, [fp, #-76]
30005a90:	e1520003 	cmp	r2, r3
30005a94:	da000005 	ble	30005ab0 <.text+0x5ab0>
30005a98:	e59b200c 	ldr	r2, [fp, #12]
30005a9c:	e51b304c 	ldr	r3, [fp, #-76]
30005aa0:	e0633002 	rsb	r3, r3, r2
30005aa4:	e2433001 	sub	r3, r3, #1	; 0x1
30005aa8:	e58b300c 	str	r3, [fp, #12]
30005aac:	ea000001 	b	30005ab8 <.text+0x5ab8>
30005ab0:	e3a03000 	mov	r3, #0	; 0x0
30005ab4:	e58b300c 	str	r3, [fp, #12]
30005ab8:	e59b3014 	ldr	r3, [fp, #20]
30005abc:	e3833b01 	orr	r3, r3, #1024	; 0x400
30005ac0:	e58b3014 	str	r3, [fp, #20]
30005ac4:	e3a03000 	mov	r3, #0	; 0x0
30005ac8:	e50b3060 	str	r3, [fp, #-96]
30005acc:	e3a03000 	mov	r3, #0	; 0x0
30005ad0:	e50b304c 	str	r3, [fp, #-76]
30005ad4:	ea000009 	b	30005b00 <.text+0x5b00>
30005ad8:	e59b300c 	ldr	r3, [fp, #12]
30005adc:	e3530000 	cmp	r3, #0	; 0x0
30005ae0:	0a000006 	beq	30005b00 <.text+0x5b00>
30005ae4:	e59b3014 	ldr	r3, [fp, #20]
30005ae8:	e2033b01 	and	r3, r3, #1024	; 0x400
30005aec:	e3530000 	cmp	r3, #0	; 0x0
30005af0:	0a000002 	beq	30005b00 <.text+0x5b00>
30005af4:	e59b300c 	ldr	r3, [fp, #12]
30005af8:	e2433001 	sub	r3, r3, #1	; 0x1
30005afc:	e58b300c 	str	r3, [fp, #12]
30005b00:	e59b3010 	ldr	r3, [fp, #16]
30005b04:	e50b3064 	str	r3, [fp, #-100]
30005b08:	e59b2010 	ldr	r2, [fp, #16]
30005b0c:	e51b3060 	ldr	r3, [fp, #-96]
30005b10:	e1520003 	cmp	r2, r3
30005b14:	9a000004 	bls	30005b2c <.text+0x5b2c>
30005b18:	e51b3064 	ldr	r3, [fp, #-100]
30005b1c:	e51b2060 	ldr	r2, [fp, #-96]
30005b20:	e0623003 	rsb	r3, r2, r3
30005b24:	e50b3064 	str	r3, [fp, #-100]
30005b28:	ea000001 	b	30005b34 <.text+0x5b34>
30005b2c:	e3a03000 	mov	r3, #0	; 0x0
30005b30:	e50b3064 	str	r3, [fp, #-100]
30005b34:	e59b3014 	ldr	r3, [fp, #20]
30005b38:	e2033002 	and	r3, r3, #2	; 0x2
30005b3c:	e3530000 	cmp	r3, #0	; 0x0
30005b40:	0a000004 	beq	30005b58 <.text+0x5b58>
30005b44:	e51b3060 	ldr	r3, [fp, #-96]
30005b48:	e3530000 	cmp	r3, #0	; 0x0
30005b4c:	0a000001 	beq	30005b58 <.text+0x5b58>
30005b50:	e3a03000 	mov	r3, #0	; 0x0
30005b54:	e50b3064 	str	r3, [fp, #-100]
30005b58:	e51b304c 	ldr	r3, [fp, #-76]
30005b5c:	e3530000 	cmp	r3, #0	; 0x0
30005b60:	0a000008 	beq	30005b88 <.text+0x5b88>
30005b64:	e3e0301b 	mvn	r3, #27	; 0x1b
30005b68:	e24b2028 	sub	r2, fp, #40	; 0x28
30005b6c:	e0823003 	add	r3, r2, r3
30005b70:	e99b0003 	ldmib	fp, {r0, r1}
30005b74:	e893000c 	ldmia	r3, {r2, r3}
30005b78:	eb001056 	bl	30009cd8 <__divdf3>
30005b7c:	e1a04001 	mov	r4, r1
30005b80:	e1a03000 	mov	r3, r0
30005b84:	e98b0018 	stmib	fp, {r3, r4}
30005b88:	e51b3034 	ldr	r3, [fp, #-52]
30005b8c:	e50b3068 	str	r3, [fp, #-104]
30005b90:	e99b0018 	ldmib	fp, {r3, r4}
30005b94:	e24b1080 	sub	r1, fp, #128	; 0x80
30005b98:	e8010018 	stmda	r1, {r3, r4}
30005b9c:	e55b3039 	ldrb	r3, [fp, #-57]
30005ba0:	e3530000 	cmp	r3, #0	; 0x0
30005ba4:	0a000007 	beq	30005bc8 <.text+0x5bc8>
30005ba8:	e28f30ac 	add	r3, pc, #172	; 0xac
30005bac:	e8930018 	ldmia	r3, {r3, r4}
30005bb0:	e24b2080 	sub	r2, fp, #128	; 0x80
30005bb4:	e8120006 	ldmda	r2, {r1, r2}
30005bb8:	e0233001 	eor	r3, r3, r1
30005bbc:	e0244002 	eor	r4, r4, r2
30005bc0:	e24b1080 	sub	r1, fp, #128	; 0x80
30005bc4:	e8010018 	stmda	r1, {r3, r4}
30005bc8:	e24b3080 	sub	r3, fp, #128	; 0x80
30005bcc:	e813000c 	ldmda	r3, {r2, r3}
30005bd0:	e88d000c 	stmia	sp, {r2, r3}
30005bd4:	e59b300c 	ldr	r3, [fp, #12]
30005bd8:	e58d3008 	str	r3, [sp, #8]
30005bdc:	e51b3064 	ldr	r3, [fp, #-100]
30005be0:	e58d300c 	str	r3, [sp, #12]
30005be4:	e59b3014 	ldr	r3, [fp, #20]
30005be8:	e3c33b02 	bic	r3, r3, #2048	; 0x800
30005bec:	e58d3010 	str	r3, [sp, #16]
30005bf0:	e51b002c 	ldr	r0, [fp, #-44]
30005bf4:	e51b1030 	ldr	r1, [fp, #-48]
30005bf8:	e51b2034 	ldr	r2, [fp, #-52]
30005bfc:	e51b3038 	ldr	r3, [fp, #-56]
30005c00:	ebfffba3 	bl	30004a94 <_ftoa>
30005c04:	e1a03000 	mov	r3, r0
30005c08:	e50b3034 	str	r3, [fp, #-52]
30005c0c:	e51b3060 	ldr	r3, [fp, #-96]
30005c10:	e3530000 	cmp	r3, #0	; 0x0
30005c14:	0a000054 	beq	30005d6c <.text+0x5d6c>
30005c18:	e59b3014 	ldr	r3, [fp, #20]
30005c1c:	e2033020 	and	r3, r3, #32	; 0x20
30005c20:	e3530000 	cmp	r3, #0	; 0x0
30005c24:	0a00000e 	beq	30005c64 <.text+0x5c64>
30005c28:	e3a04045 	mov	r4, #69	; 0x45
30005c2c:	e50b4088 	str	r4, [fp, #-136]
30005c30:	ea00000d 	b	30005c6c <.text+0x5c6c>
30005c34:	40180000 	andmis	r0, r8, r0
30005c38:	00000000 	andeq	r0, r0, r0
30005c3c:	3ff00000 	swicc	0x00f00000	; IMB
30005c40:	00000000 	andeq	r0, r0, r0
30005c44:	40240000 	eormi	r0, r4, r0
30005c48:	00000000 	andeq	r0, r0, r0
30005c4c:	3f1a36e2 	swicc	0x001a36e2
30005c50:	eb1c432d 	bl	3071690c <__bss_end+0x7098f0>
30005c54:	412e8480 	smlawbmi	lr, r0, r4, r8
30005c58:	00000000 	andeq	r0, r0, r0
30005c5c:	80000000 	andhi	r0, r0, r0
30005c60:	00000000 	andeq	r0, r0, r0
30005c64:	e3a01065 	mov	r1, #101	; 0x65
30005c68:	e50b1088 	str	r1, [fp, #-136]
30005c6c:	e24b2034 	sub	r2, fp, #52	; 0x34
30005c70:	e5923000 	ldr	r3, [r2]
30005c74:	e1a0e003 	mov	lr, r3
30005c78:	e2833001 	add	r3, r3, #1	; 0x1
30005c7c:	e5823000 	str	r3, [r2]
30005c80:	e51bc02c 	ldr	ip, [fp, #-44]
30005c84:	e51b0088 	ldr	r0, [fp, #-136]
30005c88:	e51b1030 	ldr	r1, [fp, #-48]
30005c8c:	e1a0200e 	mov	r2, lr
30005c90:	e51b3038 	ldr	r3, [fp, #-56]
30005c94:	e1a0e00f 	mov	lr, pc
30005c98:	e1a0f00c 	mov	pc, ip
30005c9c:	e51b204c 	ldr	r2, [fp, #-76]
30005ca0:	e50b208c 	str	r2, [fp, #-140]
30005ca4:	e51b304c 	ldr	r3, [fp, #-76]
30005ca8:	e3530000 	cmp	r3, #0	; 0x0
30005cac:	aa000002 	bge	30005cbc <.text+0x5cbc>
30005cb0:	e51b408c 	ldr	r4, [fp, #-140]
30005cb4:	e2643000 	rsb	r3, r4, #0	; 0x0
30005cb8:	e50b308c 	str	r3, [fp, #-140]
30005cbc:	e51b108c 	ldr	r1, [fp, #-140]
30005cc0:	e58d1000 	str	r1, [sp]
30005cc4:	e51b304c 	ldr	r3, [fp, #-76]
30005cc8:	e1a03fa3 	mov	r3, r3, lsr #31
30005ccc:	e58d3004 	str	r3, [sp, #4]
30005cd0:	e3a0300a 	mov	r3, #10	; 0xa
30005cd4:	e58d3008 	str	r3, [sp, #8]
30005cd8:	e3a03000 	mov	r3, #0	; 0x0
30005cdc:	e58d300c 	str	r3, [sp, #12]
30005ce0:	e51b3060 	ldr	r3, [fp, #-96]
30005ce4:	e2433001 	sub	r3, r3, #1	; 0x1
30005ce8:	e58d3010 	str	r3, [sp, #16]
30005cec:	e3a03005 	mov	r3, #5	; 0x5
30005cf0:	e58d3014 	str	r3, [sp, #20]
30005cf4:	e51b002c 	ldr	r0, [fp, #-44]
30005cf8:	e51b1030 	ldr	r1, [fp, #-48]
30005cfc:	e51b2034 	ldr	r2, [fp, #-52]
30005d00:	e51b3038 	ldr	r3, [fp, #-56]
30005d04:	ebfffa8d 	bl	30004740 <_ntoa_long>
30005d08:	e1a03000 	mov	r3, r0
30005d0c:	e50b3034 	str	r3, [fp, #-52]
30005d10:	e59b3014 	ldr	r3, [fp, #20]
30005d14:	e2033002 	and	r3, r3, #2	; 0x2
30005d18:	e3530000 	cmp	r3, #0	; 0x0
30005d1c:	0a000012 	beq	30005d6c <.text+0x5d6c>
30005d20:	e51b2034 	ldr	r2, [fp, #-52]
30005d24:	e51b3068 	ldr	r3, [fp, #-104]
30005d28:	e0632002 	rsb	r2, r3, r2
30005d2c:	e59b3010 	ldr	r3, [fp, #16]
30005d30:	e1520003 	cmp	r2, r3
30005d34:	2a00000c 	bcs	30005d6c <.text+0x5d6c>
30005d38:	e24b2034 	sub	r2, fp, #52	; 0x34
30005d3c:	e5923000 	ldr	r3, [r2]
30005d40:	e1a0e003 	mov	lr, r3
30005d44:	e2833001 	add	r3, r3, #1	; 0x1
30005d48:	e5823000 	str	r3, [r2]
30005d4c:	e51bc02c 	ldr	ip, [fp, #-44]
30005d50:	e3a00020 	mov	r0, #32	; 0x20
30005d54:	e51b1030 	ldr	r1, [fp, #-48]
30005d58:	e1a0200e 	mov	r2, lr
30005d5c:	e51b3038 	ldr	r3, [fp, #-56]
30005d60:	e1a0e00f 	mov	lr, pc
30005d64:	e1a0f00c 	mov	pc, ip
30005d68:	eaffffec 	b	30005d20 <.text+0x5d20>
30005d6c:	e51b3034 	ldr	r3, [fp, #-52]
30005d70:	e50b306c 	str	r3, [fp, #-108]
30005d74:	e51b006c 	ldr	r0, [fp, #-108]
30005d78:	e24bd028 	sub	sp, fp, #40	; 0x28
30005d7c:	e89daff0 	ldmia	sp, {r4, r5, r6, r7, r8, r9, sl, fp, sp, pc}

30005d80 <_vsnprintf>:
30005d80:	e1a0c00d 	mov	ip, sp
30005d84:	e92dd810 	stmdb	sp!, {r4, fp, ip, lr, pc}
30005d88:	e24cb004 	sub	fp, ip, #4	; 0x4
30005d8c:	e24dd074 	sub	sp, sp, #116	; 0x74
30005d90:	e50b0014 	str	r0, [fp, #-20]
30005d94:	e50b1018 	str	r1, [fp, #-24]
30005d98:	e50b201c 	str	r2, [fp, #-28]
30005d9c:	e50b3020 	str	r3, [fp, #-32]
30005da0:	e3a03000 	mov	r3, #0	; 0x0
30005da4:	e50b3034 	str	r3, [fp, #-52]
30005da8:	e51b3018 	ldr	r3, [fp, #-24]
30005dac:	e3530000 	cmp	r3, #0	; 0x0
30005db0:	1a000001 	bne	30005dbc <_vsnprintf+0x3c>
30005db4:	e59f3f0c 	ldr	r3, [pc, #3852]	; 30006cc8 <.text+0x6cc8>
30005db8:	e50b3014 	str	r3, [fp, #-20]
30005dbc:	e51b3020 	ldr	r3, [fp, #-32]
30005dc0:	e5d33000 	ldrb	r3, [r3]
30005dc4:	e3530000 	cmp	r3, #0	; 0x0
30005dc8:	0a000422 	beq	30006e58 <.text+0x6e58>
30005dcc:	e51b3020 	ldr	r3, [fp, #-32]
30005dd0:	e5d33000 	ldrb	r3, [r3]
30005dd4:	e3530025 	cmp	r3, #37	; 0x25
30005dd8:	0a000011 	beq	30005e24 <_vsnprintf+0xa4>
30005ddc:	e51b3020 	ldr	r3, [fp, #-32]
30005de0:	e5d31000 	ldrb	r1, [r3]
30005de4:	e24b2034 	sub	r2, fp, #52	; 0x34
30005de8:	e5923000 	ldr	r3, [r2]
30005dec:	e1a0e003 	mov	lr, r3
30005df0:	e2833001 	add	r3, r3, #1	; 0x1
30005df4:	e5823000 	str	r3, [r2]
30005df8:	e51bc014 	ldr	ip, [fp, #-20]
30005dfc:	e1a00001 	mov	r0, r1
30005e00:	e51b1018 	ldr	r1, [fp, #-24]
30005e04:	e1a0200e 	mov	r2, lr
30005e08:	e51b301c 	ldr	r3, [fp, #-28]
30005e0c:	e1a0e00f 	mov	lr, pc
30005e10:	e1a0f00c 	mov	pc, ip
30005e14:	e51b3020 	ldr	r3, [fp, #-32]
30005e18:	e2833001 	add	r3, r3, #1	; 0x1
30005e1c:	e50b3020 	str	r3, [fp, #-32]
30005e20:	eaffffe5 	b	30005dbc <_vsnprintf+0x3c>
30005e24:	e51b3020 	ldr	r3, [fp, #-32]
30005e28:	e2833001 	add	r3, r3, #1	; 0x1
30005e2c:	e50b3020 	str	r3, [fp, #-32]
30005e30:	e3a03000 	mov	r3, #0	; 0x0
30005e34:	e50b3024 	str	r3, [fp, #-36]
30005e38:	e51b3020 	ldr	r3, [fp, #-32]
30005e3c:	e5d33000 	ldrb	r3, [r3]
30005e40:	e2433020 	sub	r3, r3, #32	; 0x20
30005e44:	e3530010 	cmp	r3, #16	; 0x10
30005e48:	979ff103 	ldrls	pc, [pc, r3, lsl #2]
30005e4c:	ea00003d 	b	30005f48 <.text+0x5f48>
30005e50:	30005f00 	andcc	r5, r0, r0, lsl #30
30005e54:	30005f48 	andcc	r5, r0, r8, asr #30
30005e58:	30005f48 	andcc	r5, r0, r8, asr #30
30005e5c:	30005f24 	andcc	r5, r0, r4, lsr #30
30005e60:	30005f48 	andcc	r5, r0, r8, asr #30
30005e64:	30005f48 	andcc	r5, r0, r8, asr #30
30005e68:	30005f48 	andcc	r5, r0, r8, asr #30
30005e6c:	30005f48 	andcc	r5, r0, r8, asr #30
30005e70:	30005f48 	andcc	r5, r0, r8, asr #30
30005e74:	30005f48 	andcc	r5, r0, r8, asr #30
30005e78:	30005f48 	andcc	r5, r0, r8, asr #30
30005e7c:	30005edc 	ldrccd	r5, [r0], -ip
30005e80:	30005f48 	andcc	r5, r0, r8, asr #30
30005e84:	30005eb8 	strcch	r5, [r0], -r8
30005e88:	30005f48 	andcc	r5, r0, r8, asr #30
30005e8c:	30005f48 	andcc	r5, r0, r8, asr #30
30005e90:	30005e94 	mulcc	r0, r4, lr
30005e94:	e51b3024 	ldr	r3, [fp, #-36]
30005e98:	e3833001 	orr	r3, r3, #1	; 0x1
30005e9c:	e50b3024 	str	r3, [fp, #-36]
30005ea0:	e51b3020 	ldr	r3, [fp, #-32]
30005ea4:	e2833001 	add	r3, r3, #1	; 0x1
30005ea8:	e50b3020 	str	r3, [fp, #-32]
30005eac:	e3a03001 	mov	r3, #1	; 0x1
30005eb0:	e50b3030 	str	r3, [fp, #-48]
30005eb4:	ea000025 	b	30005f50 <.text+0x5f50>
30005eb8:	e51b3024 	ldr	r3, [fp, #-36]
30005ebc:	e3833002 	orr	r3, r3, #2	; 0x2
30005ec0:	e50b3024 	str	r3, [fp, #-36]
30005ec4:	e51b3020 	ldr	r3, [fp, #-32]
30005ec8:	e2833001 	add	r3, r3, #1	; 0x1
30005ecc:	e50b3020 	str	r3, [fp, #-32]
30005ed0:	e3a03001 	mov	r3, #1	; 0x1
30005ed4:	e50b3030 	str	r3, [fp, #-48]
30005ed8:	ea00001c 	b	30005f50 <.text+0x5f50>
30005edc:	e51b3024 	ldr	r3, [fp, #-36]
30005ee0:	e3833004 	orr	r3, r3, #4	; 0x4
30005ee4:	e50b3024 	str	r3, [fp, #-36]
30005ee8:	e51b3020 	ldr	r3, [fp, #-32]
30005eec:	e2833001 	add	r3, r3, #1	; 0x1
30005ef0:	e50b3020 	str	r3, [fp, #-32]
30005ef4:	e3a03001 	mov	r3, #1	; 0x1
30005ef8:	e50b3030 	str	r3, [fp, #-48]
30005efc:	ea000013 	b	30005f50 <.text+0x5f50>
30005f00:	e51b3024 	ldr	r3, [fp, #-36]
30005f04:	e3833008 	orr	r3, r3, #8	; 0x8
30005f08:	e50b3024 	str	r3, [fp, #-36]
30005f0c:	e51b3020 	ldr	r3, [fp, #-32]
30005f10:	e2833001 	add	r3, r3, #1	; 0x1
30005f14:	e50b3020 	str	r3, [fp, #-32]
30005f18:	e3a03001 	mov	r3, #1	; 0x1
30005f1c:	e50b3030 	str	r3, [fp, #-48]
30005f20:	ea00000a 	b	30005f50 <.text+0x5f50>
30005f24:	e51b3024 	ldr	r3, [fp, #-36]
30005f28:	e3833010 	orr	r3, r3, #16	; 0x10
30005f2c:	e50b3024 	str	r3, [fp, #-36]
30005f30:	e51b3020 	ldr	r3, [fp, #-32]
30005f34:	e2833001 	add	r3, r3, #1	; 0x1
30005f38:	e50b3020 	str	r3, [fp, #-32]
30005f3c:	e3a03001 	mov	r3, #1	; 0x1
30005f40:	e50b3030 	str	r3, [fp, #-48]
30005f44:	ea000001 	b	30005f50 <.text+0x5f50>
30005f48:	e3a03000 	mov	r3, #0	; 0x0
30005f4c:	e50b3030 	str	r3, [fp, #-48]
30005f50:	e51b3030 	ldr	r3, [fp, #-48]
30005f54:	e3530000 	cmp	r3, #0	; 0x0
30005f58:	0a000000 	beq	30005f60 <.text+0x5f60>
30005f5c:	eaffffb5 	b	30005e38 <_vsnprintf+0xb8>
30005f60:	e3a03000 	mov	r3, #0	; 0x0
30005f64:	e50b3028 	str	r3, [fp, #-40]
30005f68:	e51b3020 	ldr	r3, [fp, #-32]
30005f6c:	e5d33000 	ldrb	r3, [r3]
30005f70:	e1a00003 	mov	r0, r3
30005f74:	ebfff89d 	bl	300041f0 <_is_digit>
30005f78:	e1a03000 	mov	r3, r0
30005f7c:	e20330ff 	and	r3, r3, #255	; 0xff
30005f80:	e3530000 	cmp	r3, #0	; 0x0
30005f84:	0a000005 	beq	30005fa0 <.text+0x5fa0>
30005f88:	e24b3020 	sub	r3, fp, #32	; 0x20
30005f8c:	e1a00003 	mov	r0, r3
30005f90:	ebfff873 	bl	30004164 <_atoi>
30005f94:	e1a03000 	mov	r3, r0
30005f98:	e50b3028 	str	r3, [fp, #-40]
30005f9c:	ea000018 	b	30006004 <.text+0x6004>
30005fa0:	e51b3020 	ldr	r3, [fp, #-32]
30005fa4:	e5d33000 	ldrb	r3, [r3]
30005fa8:	e353002a 	cmp	r3, #42	; 0x2a
30005fac:	1a000014 	bne	30006004 <.text+0x6004>
30005fb0:	e59b2004 	ldr	r2, [fp, #4]
30005fb4:	e59b3004 	ldr	r3, [fp, #4]
30005fb8:	e2833004 	add	r3, r3, #4	; 0x4
30005fbc:	e58b3004 	str	r3, [fp, #4]
30005fc0:	e5923000 	ldr	r3, [r2]
30005fc4:	e50b3038 	str	r3, [fp, #-56]
30005fc8:	e51b3038 	ldr	r3, [fp, #-56]
30005fcc:	e3530000 	cmp	r3, #0	; 0x0
30005fd0:	aa000006 	bge	30005ff0 <.text+0x5ff0>
30005fd4:	e51b3024 	ldr	r3, [fp, #-36]
30005fd8:	e3833002 	orr	r3, r3, #2	; 0x2
30005fdc:	e50b3024 	str	r3, [fp, #-36]
30005fe0:	e51b3038 	ldr	r3, [fp, #-56]
30005fe4:	e2633000 	rsb	r3, r3, #0	; 0x0
30005fe8:	e50b3028 	str	r3, [fp, #-40]
30005fec:	ea000001 	b	30005ff8 <.text+0x5ff8>
30005ff0:	e51b3038 	ldr	r3, [fp, #-56]
30005ff4:	e50b3028 	str	r3, [fp, #-40]
30005ff8:	e51b3020 	ldr	r3, [fp, #-32]
30005ffc:	e2833001 	add	r3, r3, #1	; 0x1
30006000:	e50b3020 	str	r3, [fp, #-32]
30006004:	e3a03000 	mov	r3, #0	; 0x0
30006008:	e50b302c 	str	r3, [fp, #-44]
3000600c:	e51b3020 	ldr	r3, [fp, #-32]
30006010:	e5d33000 	ldrb	r3, [r3]
30006014:	e353002e 	cmp	r3, #46	; 0x2e
30006018:	1a00002a 	bne	300060c8 <.text+0x60c8>
3000601c:	e51b3024 	ldr	r3, [fp, #-36]
30006020:	e3833b01 	orr	r3, r3, #1024	; 0x400
30006024:	e50b3024 	str	r3, [fp, #-36]
30006028:	e51b3020 	ldr	r3, [fp, #-32]
3000602c:	e2833001 	add	r3, r3, #1	; 0x1
30006030:	e50b3020 	str	r3, [fp, #-32]
30006034:	e51b3020 	ldr	r3, [fp, #-32]
30006038:	e5d33000 	ldrb	r3, [r3]
3000603c:	e1a00003 	mov	r0, r3
30006040:	ebfff86a 	bl	300041f0 <_is_digit>
30006044:	e1a03000 	mov	r3, r0
30006048:	e20330ff 	and	r3, r3, #255	; 0xff
3000604c:	e3530000 	cmp	r3, #0	; 0x0
30006050:	0a000005 	beq	3000606c <.text+0x606c>
30006054:	e24b3020 	sub	r3, fp, #32	; 0x20
30006058:	e1a00003 	mov	r0, r3
3000605c:	ebfff840 	bl	30004164 <_atoi>
30006060:	e1a03000 	mov	r3, r0
30006064:	e50b302c 	str	r3, [fp, #-44]
30006068:	ea000016 	b	300060c8 <.text+0x60c8>
3000606c:	e51b3020 	ldr	r3, [fp, #-32]
30006070:	e5d33000 	ldrb	r3, [r3]
30006074:	e353002a 	cmp	r3, #42	; 0x2a
30006078:	1a000012 	bne	300060c8 <.text+0x60c8>
3000607c:	e59b2004 	ldr	r2, [fp, #4]
30006080:	e59b3004 	ldr	r3, [fp, #4]
30006084:	e2833004 	add	r3, r3, #4	; 0x4
30006088:	e58b3004 	str	r3, [fp, #4]
3000608c:	e5923000 	ldr	r3, [r2]
30006090:	e50b3038 	str	r3, [fp, #-56]
30006094:	e51b3038 	ldr	r3, [fp, #-56]
30006098:	e3530000 	cmp	r3, #0	; 0x0
3000609c:	da000002 	ble	300060ac <.text+0x60ac>
300060a0:	e51b1038 	ldr	r1, [fp, #-56]
300060a4:	e50b104c 	str	r1, [fp, #-76]
300060a8:	ea000001 	b	300060b4 <.text+0x60b4>
300060ac:	e3a02000 	mov	r2, #0	; 0x0
300060b0:	e50b204c 	str	r2, [fp, #-76]
300060b4:	e51b304c 	ldr	r3, [fp, #-76]
300060b8:	e50b302c 	str	r3, [fp, #-44]
300060bc:	e51b3020 	ldr	r3, [fp, #-32]
300060c0:	e2833001 	add	r3, r3, #1	; 0x1
300060c4:	e50b3020 	str	r3, [fp, #-32]
300060c8:	e51b3020 	ldr	r3, [fp, #-32]
300060cc:	e5d33000 	ldrb	r3, [r3]
300060d0:	e2433068 	sub	r3, r3, #104	; 0x68
300060d4:	e3530012 	cmp	r3, #18	; 0x12
300060d8:	979ff103 	ldrls	pc, [pc, r3, lsl #2]
300060dc:	ea000048 	b	30006204 <.text+0x6204>
300060e0:	30006170 	andcc	r6, r0, r0, ror r1
300060e4:	30006204 	andcc	r6, r0, r4, lsl #4
300060e8:	300061d0 	ldrccd	r6, [r0], -r0
300060ec:	30006204 	andcc	r6, r0, r4, lsl #4
300060f0:	3000612c 	andcc	r6, r0, ip, lsr #2
300060f4:	30006204 	andcc	r6, r0, r4, lsl #4
300060f8:	30006204 	andcc	r6, r0, r4, lsl #4
300060fc:	30006204 	andcc	r6, r0, r4, lsl #4
30006100:	30006204 	andcc	r6, r0, r4, lsl #4
30006104:	30006204 	andcc	r6, r0, r4, lsl #4
30006108:	30006204 	andcc	r6, r0, r4, lsl #4
3000610c:	30006204 	andcc	r6, r0, r4, lsl #4
30006110:	300061b4 	strcch	r6, [r0], -r4
30006114:	30006204 	andcc	r6, r0, r4, lsl #4
30006118:	30006204 	andcc	r6, r0, r4, lsl #4
3000611c:	30006204 	andcc	r6, r0, r4, lsl #4
30006120:	30006204 	andcc	r6, r0, r4, lsl #4
30006124:	30006204 	andcc	r6, r0, r4, lsl #4
30006128:	300061ec 	andcc	r6, r0, ip, ror #3
3000612c:	e51b3024 	ldr	r3, [fp, #-36]
30006130:	e3833c01 	orr	r3, r3, #256	; 0x100
30006134:	e50b3024 	str	r3, [fp, #-36]
30006138:	e51b3020 	ldr	r3, [fp, #-32]
3000613c:	e2833001 	add	r3, r3, #1	; 0x1
30006140:	e50b3020 	str	r3, [fp, #-32]
30006144:	e51b3020 	ldr	r3, [fp, #-32]
30006148:	e5d33000 	ldrb	r3, [r3]
3000614c:	e353006c 	cmp	r3, #108	; 0x6c
30006150:	1a00002b 	bne	30006204 <.text+0x6204>
30006154:	e51b3024 	ldr	r3, [fp, #-36]
30006158:	e3833c02 	orr	r3, r3, #512	; 0x200
3000615c:	e50b3024 	str	r3, [fp, #-36]
30006160:	e51b3020 	ldr	r3, [fp, #-32]
30006164:	e2833001 	add	r3, r3, #1	; 0x1
30006168:	e50b3020 	str	r3, [fp, #-32]
3000616c:	ea000024 	b	30006204 <.text+0x6204>
30006170:	e51b3024 	ldr	r3, [fp, #-36]
30006174:	e3833080 	orr	r3, r3, #128	; 0x80
30006178:	e50b3024 	str	r3, [fp, #-36]
3000617c:	e51b3020 	ldr	r3, [fp, #-32]
30006180:	e2833001 	add	r3, r3, #1	; 0x1
30006184:	e50b3020 	str	r3, [fp, #-32]
30006188:	e51b3020 	ldr	r3, [fp, #-32]
3000618c:	e5d33000 	ldrb	r3, [r3]
30006190:	e3530068 	cmp	r3, #104	; 0x68
30006194:	1a00001a 	bne	30006204 <.text+0x6204>
30006198:	e51b3024 	ldr	r3, [fp, #-36]
3000619c:	e3833040 	orr	r3, r3, #64	; 0x40
300061a0:	e50b3024 	str	r3, [fp, #-36]
300061a4:	e51b3020 	ldr	r3, [fp, #-32]
300061a8:	e2833001 	add	r3, r3, #1	; 0x1
300061ac:	e50b3020 	str	r3, [fp, #-32]
300061b0:	ea000013 	b	30006204 <.text+0x6204>
300061b4:	e51b3024 	ldr	r3, [fp, #-36]
300061b8:	e3833c01 	orr	r3, r3, #256	; 0x100
300061bc:	e50b3024 	str	r3, [fp, #-36]
300061c0:	e51b3020 	ldr	r3, [fp, #-32]
300061c4:	e2833001 	add	r3, r3, #1	; 0x1
300061c8:	e50b3020 	str	r3, [fp, #-32]
300061cc:	ea00000c 	b	30006204 <.text+0x6204>
300061d0:	e51b3024 	ldr	r3, [fp, #-36]
300061d4:	e3833c02 	orr	r3, r3, #512	; 0x200
300061d8:	e50b3024 	str	r3, [fp, #-36]
300061dc:	e51b3020 	ldr	r3, [fp, #-32]
300061e0:	e2833001 	add	r3, r3, #1	; 0x1
300061e4:	e50b3020 	str	r3, [fp, #-32]
300061e8:	ea000005 	b	30006204 <.text+0x6204>
300061ec:	e51b3024 	ldr	r3, [fp, #-36]
300061f0:	e3833c01 	orr	r3, r3, #256	; 0x100
300061f4:	e50b3024 	str	r3, [fp, #-36]
300061f8:	e51b3020 	ldr	r3, [fp, #-32]
300061fc:	e2833001 	add	r3, r3, #1	; 0x1
30006200:	e50b3020 	str	r3, [fp, #-32]
30006204:	e51b3020 	ldr	r3, [fp, #-32]
30006208:	e5d33000 	ldrb	r3, [r3]
3000620c:	e2433025 	sub	r3, r3, #37	; 0x25
30006210:	e3530053 	cmp	r3, #83	; 0x53
30006214:	979ff103 	ldrls	pc, [pc, r3, lsl #2]
30006218:	ea0002fc 	b	30006e10 <.text+0x6e10>
3000621c:	30006dd0 	ldrccd	r6, [r0], -r0
30006220:	30006e10 	andcc	r6, r0, r0, lsl lr
30006224:	30006e10 	andcc	r6, r0, r0, lsl lr
30006228:	30006e10 	andcc	r6, r0, r0, lsl lr
3000622c:	30006e10 	andcc	r6, r0, r0, lsl lr
30006230:	30006e10 	andcc	r6, r0, r0, lsl lr
30006234:	30006e10 	andcc	r6, r0, r0, lsl lr
30006238:	30006e10 	andcc	r6, r0, r0, lsl lr
3000623c:	30006e10 	andcc	r6, r0, r0, lsl lr
30006240:	30006e10 	andcc	r6, r0, r0, lsl lr
30006244:	30006e10 	andcc	r6, r0, r0, lsl lr
30006248:	30006e10 	andcc	r6, r0, r0, lsl lr
3000624c:	30006e10 	andcc	r6, r0, r0, lsl lr
30006250:	30006e10 	andcc	r6, r0, r0, lsl lr
30006254:	30006e10 	andcc	r6, r0, r0, lsl lr
30006258:	30006e10 	andcc	r6, r0, r0, lsl lr
3000625c:	30006e10 	andcc	r6, r0, r0, lsl lr
30006260:	30006e10 	andcc	r6, r0, r0, lsl lr
30006264:	30006e10 	andcc	r6, r0, r0, lsl lr
30006268:	30006e10 	andcc	r6, r0, r0, lsl lr
3000626c:	30006e10 	andcc	r6, r0, r0, lsl lr
30006270:	30006e10 	andcc	r6, r0, r0, lsl lr
30006274:	30006e10 	andcc	r6, r0, r0, lsl lr
30006278:	30006e10 	andcc	r6, r0, r0, lsl lr
3000627c:	30006e10 	andcc	r6, r0, r0, lsl lr
30006280:	30006e10 	andcc	r6, r0, r0, lsl lr
30006284:	30006e10 	andcc	r6, r0, r0, lsl lr
30006288:	30006e10 	andcc	r6, r0, r0, lsl lr
3000628c:	30006e10 	andcc	r6, r0, r0, lsl lr
30006290:	30006e10 	andcc	r6, r0, r0, lsl lr
30006294:	30006e10 	andcc	r6, r0, r0, lsl lr
30006298:	30006e10 	andcc	r6, r0, r0, lsl lr
3000629c:	30006920 	andcc	r6, r0, r0, lsr #18
300062a0:	300068a8 	andcc	r6, r0, r8, lsr #17
300062a4:	30006920 	andcc	r6, r0, r0, lsr #18
300062a8:	30006e10 	andcc	r6, r0, r0, lsl lr
300062ac:	30006e10 	andcc	r6, r0, r0, lsl lr
300062b0:	30006e10 	andcc	r6, r0, r0, lsl lr
300062b4:	30006e10 	andcc	r6, r0, r0, lsl lr
300062b8:	30006e10 	andcc	r6, r0, r0, lsl lr
300062bc:	30006e10 	andcc	r6, r0, r0, lsl lr
300062c0:	30006e10 	andcc	r6, r0, r0, lsl lr
300062c4:	30006e10 	andcc	r6, r0, r0, lsl lr
300062c8:	30006e10 	andcc	r6, r0, r0, lsl lr
300062cc:	30006e10 	andcc	r6, r0, r0, lsl lr
300062d0:	30006e10 	andcc	r6, r0, r0, lsl lr
300062d4:	30006e10 	andcc	r6, r0, r0, lsl lr
300062d8:	30006e10 	andcc	r6, r0, r0, lsl lr
300062dc:	30006e10 	andcc	r6, r0, r0, lsl lr
300062e0:	30006e10 	andcc	r6, r0, r0, lsl lr
300062e4:	30006e10 	andcc	r6, r0, r0, lsl lr
300062e8:	3000636c 	andcc	r6, r0, ip, ror #6
300062ec:	30006e10 	andcc	r6, r0, r0, lsl lr
300062f0:	30006e10 	andcc	r6, r0, r0, lsl lr
300062f4:	30006e10 	andcc	r6, r0, r0, lsl lr
300062f8:	30006e10 	andcc	r6, r0, r0, lsl lr
300062fc:	30006e10 	andcc	r6, r0, r0, lsl lr
30006300:	30006e10 	andcc	r6, r0, r0, lsl lr
30006304:	30006e10 	andcc	r6, r0, r0, lsl lr
30006308:	30006e10 	andcc	r6, r0, r0, lsl lr
3000630c:	30006e10 	andcc	r6, r0, r0, lsl lr
30006310:	3000636c 	andcc	r6, r0, ip, ror #6
30006314:	300069dc 	ldrccd	r6, [r0], -ip
30006318:	3000636c 	andcc	r6, r0, ip, ror #6
3000631c:	30006920 	andcc	r6, r0, r0, lsr #18
30006320:	300068a8 	andcc	r6, r0, r8, lsr #17
30006324:	30006920 	andcc	r6, r0, r0, lsr #18
30006328:	30006e10 	andcc	r6, r0, r0, lsl lr
3000632c:	3000636c 	andcc	r6, r0, ip, ror #6
30006330:	30006e10 	andcc	r6, r0, r0, lsl lr
30006334:	30006e10 	andcc	r6, r0, r0, lsl lr
30006338:	30006e10 	andcc	r6, r0, r0, lsl lr
3000633c:	30006e10 	andcc	r6, r0, r0, lsl lr
30006340:	30006e10 	andcc	r6, r0, r0, lsl lr
30006344:	3000636c 	andcc	r6, r0, ip, ror #6
30006348:	30006ccc 	andcc	r6, r0, ip, asr #25
3000634c:	30006e10 	andcc	r6, r0, r0, lsl lr
30006350:	30006e10 	andcc	r6, r0, r0, lsl lr
30006354:	30006b04 	andcc	r6, r0, r4, lsl #22
30006358:	30006e10 	andcc	r6, r0, r0, lsl lr
3000635c:	3000636c 	andcc	r6, r0, ip, ror #6
30006360:	30006e10 	andcc	r6, r0, r0, lsl lr
30006364:	30006e10 	andcc	r6, r0, r0, lsl lr
30006368:	3000636c 	andcc	r6, r0, ip, ror #6
3000636c:	e51b3020 	ldr	r3, [fp, #-32]
30006370:	e5d33000 	ldrb	r3, [r3]
30006374:	e3530078 	cmp	r3, #120	; 0x78
30006378:	0a000004 	beq	30006390 <.text+0x6390>
3000637c:	e51b3020 	ldr	r3, [fp, #-32]
30006380:	e5d33000 	ldrb	r3, [r3]
30006384:	e3530058 	cmp	r3, #88	; 0x58
30006388:	0a000000 	beq	30006390 <.text+0x6390>
3000638c:	ea000002 	b	3000639c <.text+0x639c>
30006390:	e3a03010 	mov	r3, #16	; 0x10
30006394:	e50b3038 	str	r3, [fp, #-56]
30006398:	ea000012 	b	300063e8 <.text+0x63e8>
3000639c:	e51b3020 	ldr	r3, [fp, #-32]
300063a0:	e5d33000 	ldrb	r3, [r3]
300063a4:	e353006f 	cmp	r3, #111	; 0x6f
300063a8:	1a000002 	bne	300063b8 <.text+0x63b8>
300063ac:	e3a03008 	mov	r3, #8	; 0x8
300063b0:	e50b3038 	str	r3, [fp, #-56]
300063b4:	ea00000b 	b	300063e8 <.text+0x63e8>
300063b8:	e51b3020 	ldr	r3, [fp, #-32]
300063bc:	e5d33000 	ldrb	r3, [r3]
300063c0:	e3530062 	cmp	r3, #98	; 0x62
300063c4:	1a000002 	bne	300063d4 <.text+0x63d4>
300063c8:	e3a03002 	mov	r3, #2	; 0x2
300063cc:	e50b3038 	str	r3, [fp, #-56]
300063d0:	ea000004 	b	300063e8 <.text+0x63e8>
300063d4:	e3a0300a 	mov	r3, #10	; 0xa
300063d8:	e50b3038 	str	r3, [fp, #-56]
300063dc:	e51b3024 	ldr	r3, [fp, #-36]
300063e0:	e3c33010 	bic	r3, r3, #16	; 0x10
300063e4:	e50b3024 	str	r3, [fp, #-36]
300063e8:	e51b3020 	ldr	r3, [fp, #-32]
300063ec:	e5d33000 	ldrb	r3, [r3]
300063f0:	e3530058 	cmp	r3, #88	; 0x58
300063f4:	1a000002 	bne	30006404 <.text+0x6404>
300063f8:	e51b3024 	ldr	r3, [fp, #-36]
300063fc:	e3833020 	orr	r3, r3, #32	; 0x20
30006400:	e50b3024 	str	r3, [fp, #-36]
30006404:	e51b3020 	ldr	r3, [fp, #-32]
30006408:	e5d33000 	ldrb	r3, [r3]
3000640c:	e3530069 	cmp	r3, #105	; 0x69
30006410:	0a000006 	beq	30006430 <.text+0x6430>
30006414:	e51b3020 	ldr	r3, [fp, #-32]
30006418:	e5d33000 	ldrb	r3, [r3]
3000641c:	e3530064 	cmp	r3, #100	; 0x64
30006420:	0a000002 	beq	30006430 <.text+0x6430>
30006424:	e51b3024 	ldr	r3, [fp, #-36]
30006428:	e3c3300c 	bic	r3, r3, #12	; 0xc
3000642c:	e50b3024 	str	r3, [fp, #-36]
30006430:	e51b3024 	ldr	r3, [fp, #-36]
30006434:	e2033b01 	and	r3, r3, #1024	; 0x400
30006438:	e3530000 	cmp	r3, #0	; 0x0
3000643c:	0a000002 	beq	3000644c <.text+0x644c>
30006440:	e51b3024 	ldr	r3, [fp, #-36]
30006444:	e3c33001 	bic	r3, r3, #1	; 0x1
30006448:	e50b3024 	str	r3, [fp, #-36]
3000644c:	e51b3020 	ldr	r3, [fp, #-32]
30006450:	e5d33000 	ldrb	r3, [r3]
30006454:	e3530069 	cmp	r3, #105	; 0x69
30006458:	0a000004 	beq	30006470 <.text+0x6470>
3000645c:	e51b3020 	ldr	r3, [fp, #-32]
30006460:	e5d33000 	ldrb	r3, [r3]
30006464:	e3530064 	cmp	r3, #100	; 0x64
30006468:	0a000000 	beq	30006470 <.text+0x6470>
3000646c:	ea000099 	b	300066d8 <.text+0x66d8>
30006470:	e51b3024 	ldr	r3, [fp, #-36]
30006474:	e2033c02 	and	r3, r3, #512	; 0x200
30006478:	e3530000 	cmp	r3, #0	; 0x0
3000647c:	0a00003c 	beq	30006574 <.text+0x6574>
30006480:	e3e0302f 	mvn	r3, #47	; 0x2f
30006484:	e24b4010 	sub	r4, fp, #16	; 0x10
30006488:	e0842003 	add	r2, r4, r3
3000648c:	e59b1004 	ldr	r1, [fp, #4]
30006490:	e59b3004 	ldr	r3, [fp, #4]
30006494:	e2833008 	add	r3, r3, #8	; 0x8
30006498:	e58b3004 	str	r3, [fp, #4]
3000649c:	e8910018 	ldmia	r1, {r3, r4}
300064a0:	e8820018 	stmia	r2, {r3, r4}
300064a4:	e3e0302f 	mvn	r3, #47	; 0x2f
300064a8:	e24b4010 	sub	r4, fp, #16	; 0x10
300064ac:	e0842003 	add	r2, r4, r3
300064b0:	e5921004 	ldr	r1, [r2, #4]
300064b4:	e5920004 	ldr	r0, [r2, #4]
300064b8:	e1a03fc1 	mov	r3, r1, asr #31
300064bc:	e1a04fc0 	mov	r4, r0, asr #31
300064c0:	e8920006 	ldmia	r2, {r1, r2}
300064c4:	e0211003 	eor	r1, r1, r3
300064c8:	e0222004 	eor	r2, r2, r4
300064cc:	e0513003 	subs	r3, r1, r3
300064d0:	e0c24004 	sbc	r4, r2, r4
300064d4:	e88d0018 	stmia	sp, {r3, r4}
300064d8:	e3a01000 	mov	r1, #0	; 0x0
300064dc:	e50b1050 	str	r1, [fp, #-80]
300064e0:	e3e0302f 	mvn	r3, #47	; 0x2f
300064e4:	e24b2010 	sub	r2, fp, #16	; 0x10
300064e8:	e0822003 	add	r2, r2, r3
300064ec:	e50b2054 	str	r2, [fp, #-84]
300064f0:	e51b4054 	ldr	r4, [fp, #-84]
300064f4:	e5943004 	ldr	r3, [r4, #4]
300064f8:	e3530000 	cmp	r3, #0	; 0x0
300064fc:	ba000004 	blt	30006514 <.text+0x6514>
30006500:	e51b1054 	ldr	r1, [fp, #-84]
30006504:	e5913004 	ldr	r3, [r1, #4]
30006508:	e3530000 	cmp	r3, #0	; 0x0
3000650c:	1a000002 	bne	3000651c <.text+0x651c>
30006510:	ea000001 	b	3000651c <.text+0x651c>
30006514:	e3a02001 	mov	r2, #1	; 0x1
30006518:	e50b2050 	str	r2, [fp, #-80]
3000651c:	e51b3050 	ldr	r3, [fp, #-80]
30006520:	e58d3008 	str	r3, [sp, #8]
30006524:	e51b3038 	ldr	r3, [fp, #-56]
30006528:	e1a01003 	mov	r1, r3
3000652c:	e3a02000 	mov	r2, #0	; 0x0
30006530:	e3a0300c 	mov	r3, #12	; 0xc
30006534:	e08d3003 	add	r3, sp, r3
30006538:	e8830006 	stmia	r3, {r1, r2}
3000653c:	e51b302c 	ldr	r3, [fp, #-44]
30006540:	e58d3014 	str	r3, [sp, #20]
30006544:	e51b3028 	ldr	r3, [fp, #-40]
30006548:	e58d3018 	str	r3, [sp, #24]
3000654c:	e51b3024 	ldr	r3, [fp, #-36]
30006550:	e58d301c 	str	r3, [sp, #28]
30006554:	e51b0014 	ldr	r0, [fp, #-20]
30006558:	e51b1018 	ldr	r1, [fp, #-24]
3000655c:	e51b2034 	ldr	r2, [fp, #-52]
30006560:	e51b301c 	ldr	r3, [fp, #-28]
30006564:	ebfff8d7 	bl	300048c8 <_ntoa_long_long>
30006568:	e1a03000 	mov	r3, r0
3000656c:	e50b3034 	str	r3, [fp, #-52]
30006570:	ea0000c8 	b	30006898 <.text+0x6898>
30006574:	e51b3024 	ldr	r3, [fp, #-36]
30006578:	e2033c01 	and	r3, r3, #256	; 0x100
3000657c:	e3530000 	cmp	r3, #0	; 0x0
30006580:	0a00001c 	beq	300065f8 <.text+0x65f8>
30006584:	e59b2004 	ldr	r2, [fp, #4]
30006588:	e59b3004 	ldr	r3, [fp, #4]
3000658c:	e2833004 	add	r3, r3, #4	; 0x4
30006590:	e58b3004 	str	r3, [fp, #4]
30006594:	e5923000 	ldr	r3, [r2]
30006598:	e50b3044 	str	r3, [fp, #-68]
3000659c:	e51b3044 	ldr	r3, [fp, #-68]
300065a0:	e3530000 	cmp	r3, #0	; 0x0
300065a4:	b2633000 	rsblt	r3, r3, #0	; 0x0
300065a8:	e58d3000 	str	r3, [sp]
300065ac:	e51b3044 	ldr	r3, [fp, #-68]
300065b0:	e1a03fa3 	mov	r3, r3, lsr #31
300065b4:	e58d3004 	str	r3, [sp, #4]
300065b8:	e51b3038 	ldr	r3, [fp, #-56]
300065bc:	e58d3008 	str	r3, [sp, #8]
300065c0:	e51b302c 	ldr	r3, [fp, #-44]
300065c4:	e58d300c 	str	r3, [sp, #12]
300065c8:	e51b3028 	ldr	r3, [fp, #-40]
300065cc:	e58d3010 	str	r3, [sp, #16]
300065d0:	e51b3024 	ldr	r3, [fp, #-36]
300065d4:	e58d3014 	str	r3, [sp, #20]
300065d8:	e51b0014 	ldr	r0, [fp, #-20]
300065dc:	e51b1018 	ldr	r1, [fp, #-24]
300065e0:	e51b2034 	ldr	r2, [fp, #-52]
300065e4:	e51b301c 	ldr	r3, [fp, #-28]
300065e8:	ebfff854 	bl	30004740 <_ntoa_long>
300065ec:	e1a03000 	mov	r3, r0
300065f0:	e50b3034 	str	r3, [fp, #-52]
300065f4:	ea0000a7 	b	30006898 <.text+0x6898>
300065f8:	e51b3024 	ldr	r3, [fp, #-36]
300065fc:	e2033040 	and	r3, r3, #64	; 0x40
30006600:	e3530000 	cmp	r3, #0	; 0x0
30006604:	0a000007 	beq	30006628 <.text+0x6628>
30006608:	e59b2004 	ldr	r2, [fp, #4]
3000660c:	e59b3004 	ldr	r3, [fp, #4]
30006610:	e2833004 	add	r3, r3, #4	; 0x4
30006614:	e58b3004 	str	r3, [fp, #4]
30006618:	e5923000 	ldr	r3, [r2]
3000661c:	e20330ff 	and	r3, r3, #255	; 0xff
30006620:	e50b3058 	str	r3, [fp, #-88]
30006624:	ea000012 	b	30006674 <.text+0x6674>
30006628:	e51b3024 	ldr	r3, [fp, #-36]
3000662c:	e2033080 	and	r3, r3, #128	; 0x80
30006630:	e3530000 	cmp	r3, #0	; 0x0
30006634:	0a000008 	beq	3000665c <.text+0x665c>
30006638:	e59b2004 	ldr	r2, [fp, #4]
3000663c:	e59b3004 	ldr	r3, [fp, #4]
30006640:	e2833004 	add	r3, r3, #4	; 0x4
30006644:	e58b3004 	str	r3, [fp, #4]
30006648:	e5923000 	ldr	r3, [r2]
3000664c:	e1a03803 	mov	r3, r3, lsl #16
30006650:	e1a03843 	mov	r3, r3, asr #16
30006654:	e50b3058 	str	r3, [fp, #-88]
30006658:	ea000005 	b	30006674 <.text+0x6674>
3000665c:	e59b3004 	ldr	r3, [fp, #4]
30006660:	e59b2004 	ldr	r2, [fp, #4]
30006664:	e2822004 	add	r2, r2, #4	; 0x4
30006668:	e58b2004 	str	r2, [fp, #4]
3000666c:	e5933000 	ldr	r3, [r3]
30006670:	e50b3058 	str	r3, [fp, #-88]
30006674:	e51b4058 	ldr	r4, [fp, #-88]
30006678:	e50b4044 	str	r4, [fp, #-68]
3000667c:	e51b3044 	ldr	r3, [fp, #-68]
30006680:	e3530000 	cmp	r3, #0	; 0x0
30006684:	b2633000 	rsblt	r3, r3, #0	; 0x0
30006688:	e58d3000 	str	r3, [sp]
3000668c:	e51b3044 	ldr	r3, [fp, #-68]
30006690:	e1a03fa3 	mov	r3, r3, lsr #31
30006694:	e58d3004 	str	r3, [sp, #4]
30006698:	e51b3038 	ldr	r3, [fp, #-56]
3000669c:	e58d3008 	str	r3, [sp, #8]
300066a0:	e51b302c 	ldr	r3, [fp, #-44]
300066a4:	e58d300c 	str	r3, [sp, #12]
300066a8:	e51b3028 	ldr	r3, [fp, #-40]
300066ac:	e58d3010 	str	r3, [sp, #16]
300066b0:	e51b3024 	ldr	r3, [fp, #-36]
300066b4:	e58d3014 	str	r3, [sp, #20]
300066b8:	e51b0014 	ldr	r0, [fp, #-20]
300066bc:	e51b1018 	ldr	r1, [fp, #-24]
300066c0:	e51b2034 	ldr	r2, [fp, #-52]
300066c4:	e51b301c 	ldr	r3, [fp, #-28]
300066c8:	ebfff81c 	bl	30004740 <_ntoa_long>
300066cc:	e1a03000 	mov	r3, r0
300066d0:	e50b3034 	str	r3, [fp, #-52]
300066d4:	ea00006f 	b	30006898 <.text+0x6898>
300066d8:	e51b3024 	ldr	r3, [fp, #-36]
300066dc:	e2033c02 	and	r3, r3, #512	; 0x200
300066e0:	e3530000 	cmp	r3, #0	; 0x0
300066e4:	0a00001b 	beq	30006758 <.text+0x6758>
300066e8:	e59b2004 	ldr	r2, [fp, #4]
300066ec:	e59b3004 	ldr	r3, [fp, #4]
300066f0:	e2833008 	add	r3, r3, #8	; 0x8
300066f4:	e58b3004 	str	r3, [fp, #4]
300066f8:	e8920018 	ldmia	r2, {r3, r4}
300066fc:	e88d0018 	stmia	sp, {r3, r4}
30006700:	e3a03000 	mov	r3, #0	; 0x0
30006704:	e58d3008 	str	r3, [sp, #8]
30006708:	e51b3038 	ldr	r3, [fp, #-56]
3000670c:	e1a01003 	mov	r1, r3
30006710:	e3a02000 	mov	r2, #0	; 0x0
30006714:	e3a0300c 	mov	r3, #12	; 0xc
30006718:	e08d3003 	add	r3, sp, r3
3000671c:	e8830006 	stmia	r3, {r1, r2}
30006720:	e51b302c 	ldr	r3, [fp, #-44]
30006724:	e58d3014 	str	r3, [sp, #20]
30006728:	e51b3028 	ldr	r3, [fp, #-40]
3000672c:	e58d3018 	str	r3, [sp, #24]
30006730:	e51b3024 	ldr	r3, [fp, #-36]
30006734:	e58d301c 	str	r3, [sp, #28]
30006738:	e51b0014 	ldr	r0, [fp, #-20]
3000673c:	e51b1018 	ldr	r1, [fp, #-24]
30006740:	e51b2034 	ldr	r2, [fp, #-52]
30006744:	e51b301c 	ldr	r3, [fp, #-28]
30006748:	ebfff85e 	bl	300048c8 <_ntoa_long_long>
3000674c:	e1a03000 	mov	r3, r0
30006750:	e50b3034 	str	r3, [fp, #-52]
30006754:	ea00004f 	b	30006898 <.text+0x6898>
30006758:	e51b3024 	ldr	r3, [fp, #-36]
3000675c:	e2033c01 	and	r3, r3, #256	; 0x100
30006760:	e3530000 	cmp	r3, #0	; 0x0
30006764:	0a000017 	beq	300067c8 <.text+0x67c8>
30006768:	e59b2004 	ldr	r2, [fp, #4]
3000676c:	e59b3004 	ldr	r3, [fp, #4]
30006770:	e2833004 	add	r3, r3, #4	; 0x4
30006774:	e58b3004 	str	r3, [fp, #4]
30006778:	e5923000 	ldr	r3, [r2]
3000677c:	e58d3000 	str	r3, [sp]
30006780:	e3a03000 	mov	r3, #0	; 0x0
30006784:	e58d3004 	str	r3, [sp, #4]
30006788:	e51b3038 	ldr	r3, [fp, #-56]
3000678c:	e58d3008 	str	r3, [sp, #8]
30006790:	e51b302c 	ldr	r3, [fp, #-44]
30006794:	e58d300c 	str	r3, [sp, #12]
30006798:	e51b3028 	ldr	r3, [fp, #-40]
3000679c:	e58d3010 	str	r3, [sp, #16]
300067a0:	e51b3024 	ldr	r3, [fp, #-36]
300067a4:	e58d3014 	str	r3, [sp, #20]
300067a8:	e51b0014 	ldr	r0, [fp, #-20]
300067ac:	e51b1018 	ldr	r1, [fp, #-24]
300067b0:	e51b2034 	ldr	r2, [fp, #-52]
300067b4:	e51b301c 	ldr	r3, [fp, #-28]
300067b8:	ebfff7e0 	bl	30004740 <_ntoa_long>
300067bc:	e1a03000 	mov	r3, r0
300067c0:	e50b3034 	str	r3, [fp, #-52]
300067c4:	ea000033 	b	30006898 <.text+0x6898>
300067c8:	e51b3024 	ldr	r3, [fp, #-36]
300067cc:	e2033040 	and	r3, r3, #64	; 0x40
300067d0:	e3530000 	cmp	r3, #0	; 0x0
300067d4:	0a000007 	beq	300067f8 <.text+0x67f8>
300067d8:	e59b2004 	ldr	r2, [fp, #4]
300067dc:	e59b3004 	ldr	r3, [fp, #4]
300067e0:	e2833004 	add	r3, r3, #4	; 0x4
300067e4:	e58b3004 	str	r3, [fp, #4]
300067e8:	e5923000 	ldr	r3, [r2]
300067ec:	e20330ff 	and	r3, r3, #255	; 0xff
300067f0:	e50b305c 	str	r3, [fp, #-92]
300067f4:	ea000012 	b	30006844 <.text+0x6844>
300067f8:	e51b3024 	ldr	r3, [fp, #-36]
300067fc:	e2033080 	and	r3, r3, #128	; 0x80
30006800:	e3530000 	cmp	r3, #0	; 0x0
30006804:	0a000008 	beq	3000682c <.text+0x682c>
30006808:	e59b2004 	ldr	r2, [fp, #4]
3000680c:	e59b3004 	ldr	r3, [fp, #4]
30006810:	e2833004 	add	r3, r3, #4	; 0x4
30006814:	e58b3004 	str	r3, [fp, #4]
30006818:	e5923000 	ldr	r3, [r2]
3000681c:	e1a03803 	mov	r3, r3, lsl #16
30006820:	e1a03823 	mov	r3, r3, lsr #16
30006824:	e50b305c 	str	r3, [fp, #-92]
30006828:	ea000005 	b	30006844 <.text+0x6844>
3000682c:	e59b3004 	ldr	r3, [fp, #4]
30006830:	e59b2004 	ldr	r2, [fp, #4]
30006834:	e2822004 	add	r2, r2, #4	; 0x4
30006838:	e58b2004 	str	r2, [fp, #4]
3000683c:	e5933000 	ldr	r3, [r3]
30006840:	e50b305c 	str	r3, [fp, #-92]
30006844:	e51b405c 	ldr	r4, [fp, #-92]
30006848:	e50b4044 	str	r4, [fp, #-68]
3000684c:	e51b3044 	ldr	r3, [fp, #-68]
30006850:	e58d3000 	str	r3, [sp]
30006854:	e3a03000 	mov	r3, #0	; 0x0
30006858:	e58d3004 	str	r3, [sp, #4]
3000685c:	e51b3038 	ldr	r3, [fp, #-56]
30006860:	e58d3008 	str	r3, [sp, #8]
30006864:	e51b302c 	ldr	r3, [fp, #-44]
30006868:	e58d300c 	str	r3, [sp, #12]
3000686c:	e51b3028 	ldr	r3, [fp, #-40]
30006870:	e58d3010 	str	r3, [sp, #16]
30006874:	e51b3024 	ldr	r3, [fp, #-36]
30006878:	e58d3014 	str	r3, [sp, #20]
3000687c:	e51b0014 	ldr	r0, [fp, #-20]
30006880:	e51b1018 	ldr	r1, [fp, #-24]
30006884:	e51b2034 	ldr	r2, [fp, #-52]
30006888:	e51b301c 	ldr	r3, [fp, #-28]
3000688c:	ebfff7ab 	bl	30004740 <_ntoa_long>
30006890:	e1a03000 	mov	r3, r0
30006894:	e50b3034 	str	r3, [fp, #-52]
30006898:	e51b3020 	ldr	r3, [fp, #-32]
3000689c:	e2833001 	add	r3, r3, #1	; 0x1
300068a0:	e50b3020 	str	r3, [fp, #-32]
300068a4:	eafffd44 	b	30005dbc <_vsnprintf+0x3c>
300068a8:	e51b3020 	ldr	r3, [fp, #-32]
300068ac:	e5d33000 	ldrb	r3, [r3]
300068b0:	e3530046 	cmp	r3, #70	; 0x46
300068b4:	1a000002 	bne	300068c4 <.text+0x68c4>
300068b8:	e51b3024 	ldr	r3, [fp, #-36]
300068bc:	e3833020 	orr	r3, r3, #32	; 0x20
300068c0:	e50b3024 	str	r3, [fp, #-36]
300068c4:	e59b2004 	ldr	r2, [fp, #4]
300068c8:	e59b3004 	ldr	r3, [fp, #4]
300068cc:	e2833008 	add	r3, r3, #8	; 0x8
300068d0:	e58b3004 	str	r3, [fp, #4]
300068d4:	e8920018 	ldmia	r2, {r3, r4}
300068d8:	e88d0018 	stmia	sp, {r3, r4}
300068dc:	e51b302c 	ldr	r3, [fp, #-44]
300068e0:	e58d3008 	str	r3, [sp, #8]
300068e4:	e51b3028 	ldr	r3, [fp, #-40]
300068e8:	e58d300c 	str	r3, [sp, #12]
300068ec:	e51b3024 	ldr	r3, [fp, #-36]
300068f0:	e58d3010 	str	r3, [sp, #16]
300068f4:	e51b0014 	ldr	r0, [fp, #-20]
300068f8:	e51b1018 	ldr	r1, [fp, #-24]
300068fc:	e51b2034 	ldr	r2, [fp, #-52]
30006900:	e51b301c 	ldr	r3, [fp, #-28]
30006904:	ebfff862 	bl	30004a94 <_ftoa>
30006908:	e1a03000 	mov	r3, r0
3000690c:	e50b3034 	str	r3, [fp, #-52]
30006910:	e51b3020 	ldr	r3, [fp, #-32]
30006914:	e2833001 	add	r3, r3, #1	; 0x1
30006918:	e50b3020 	str	r3, [fp, #-32]
3000691c:	eafffd26 	b	30005dbc <_vsnprintf+0x3c>
30006920:	e51b3020 	ldr	r3, [fp, #-32]
30006924:	e5d33000 	ldrb	r3, [r3]
30006928:	e3530067 	cmp	r3, #103	; 0x67
3000692c:	0a000004 	beq	30006944 <.text+0x6944>
30006930:	e51b3020 	ldr	r3, [fp, #-32]
30006934:	e5d33000 	ldrb	r3, [r3]
30006938:	e3530047 	cmp	r3, #71	; 0x47
3000693c:	0a000000 	beq	30006944 <.text+0x6944>
30006940:	ea000002 	b	30006950 <.text+0x6950>
30006944:	e51b3024 	ldr	r3, [fp, #-36]
30006948:	e3833b02 	orr	r3, r3, #2048	; 0x800
3000694c:	e50b3024 	str	r3, [fp, #-36]
30006950:	e51b3020 	ldr	r3, [fp, #-32]
30006954:	e5d33000 	ldrb	r3, [r3]
30006958:	e3530045 	cmp	r3, #69	; 0x45
3000695c:	0a000004 	beq	30006974 <.text+0x6974>
30006960:	e51b3020 	ldr	r3, [fp, #-32]
30006964:	e5d33000 	ldrb	r3, [r3]
30006968:	e3530047 	cmp	r3, #71	; 0x47
3000696c:	0a000000 	beq	30006974 <.text+0x6974>
30006970:	ea000002 	b	30006980 <.text+0x6980>
30006974:	e51b3024 	ldr	r3, [fp, #-36]
30006978:	e3833020 	orr	r3, r3, #32	; 0x20
3000697c:	e50b3024 	str	r3, [fp, #-36]
30006980:	e59b2004 	ldr	r2, [fp, #4]
30006984:	e59b3004 	ldr	r3, [fp, #4]
30006988:	e2833008 	add	r3, r3, #8	; 0x8
3000698c:	e58b3004 	str	r3, [fp, #4]
30006990:	e8920018 	ldmia	r2, {r3, r4}
30006994:	e88d0018 	stmia	sp, {r3, r4}
30006998:	e51b302c 	ldr	r3, [fp, #-44]
3000699c:	e58d3008 	str	r3, [sp, #8]
300069a0:	e51b3028 	ldr	r3, [fp, #-40]
300069a4:	e58d300c 	str	r3, [sp, #12]
300069a8:	e51b3024 	ldr	r3, [fp, #-36]
300069ac:	e58d3010 	str	r3, [sp, #16]
300069b0:	e51b0014 	ldr	r0, [fp, #-20]
300069b4:	e51b1018 	ldr	r1, [fp, #-24]
300069b8:	e51b2034 	ldr	r2, [fp, #-52]
300069bc:	e51b301c 	ldr	r3, [fp, #-28]
300069c0:	ebfffa89 	bl	300053ec <_etoa>
300069c4:	e1a03000 	mov	r3, r0
300069c8:	e50b3034 	str	r3, [fp, #-52]
300069cc:	e51b3020 	ldr	r3, [fp, #-32]
300069d0:	e2833001 	add	r3, r3, #1	; 0x1
300069d4:	e50b3020 	str	r3, [fp, #-32]
300069d8:	eafffcf7 	b	30005dbc <_vsnprintf+0x3c>
300069dc:	e3a03001 	mov	r3, #1	; 0x1
300069e0:	e50b3044 	str	r3, [fp, #-68]
300069e4:	e51b3024 	ldr	r3, [fp, #-36]
300069e8:	e2033002 	and	r3, r3, #2	; 0x2
300069ec:	e3530000 	cmp	r3, #0	; 0x0
300069f0:	1a000014 	bne	30006a48 <.text+0x6a48>
300069f4:	e24b2044 	sub	r2, fp, #68	; 0x44
300069f8:	e5923000 	ldr	r3, [r2]
300069fc:	e1a01003 	mov	r1, r3
30006a00:	e2833001 	add	r3, r3, #1	; 0x1
30006a04:	e5823000 	str	r3, [r2]
30006a08:	e51b3028 	ldr	r3, [fp, #-40]
30006a0c:	e1510003 	cmp	r1, r3
30006a10:	2a00000c 	bcs	30006a48 <.text+0x6a48>
30006a14:	e24b2034 	sub	r2, fp, #52	; 0x34
30006a18:	e5923000 	ldr	r3, [r2]
30006a1c:	e1a0e003 	mov	lr, r3
30006a20:	e2833001 	add	r3, r3, #1	; 0x1
30006a24:	e5823000 	str	r3, [r2]
30006a28:	e51bc014 	ldr	ip, [fp, #-20]
30006a2c:	e3a00020 	mov	r0, #32	; 0x20
30006a30:	e51b1018 	ldr	r1, [fp, #-24]
30006a34:	e1a0200e 	mov	r2, lr
30006a38:	e51b301c 	ldr	r3, [fp, #-28]
30006a3c:	e1a0e00f 	mov	lr, pc
30006a40:	e1a0f00c 	mov	pc, ip
30006a44:	eaffffea 	b	300069f4 <.text+0x69f4>
30006a48:	e59b2004 	ldr	r2, [fp, #4]
30006a4c:	e59b3004 	ldr	r3, [fp, #4]
30006a50:	e2833004 	add	r3, r3, #4	; 0x4
30006a54:	e58b3004 	str	r3, [fp, #4]
30006a58:	e5923000 	ldr	r3, [r2]
30006a5c:	e20310ff 	and	r1, r3, #255	; 0xff
30006a60:	e24b2034 	sub	r2, fp, #52	; 0x34
30006a64:	e5923000 	ldr	r3, [r2]
30006a68:	e1a0e003 	mov	lr, r3
30006a6c:	e2833001 	add	r3, r3, #1	; 0x1
30006a70:	e5823000 	str	r3, [r2]
30006a74:	e51bc014 	ldr	ip, [fp, #-20]
30006a78:	e1a00001 	mov	r0, r1
30006a7c:	e51b1018 	ldr	r1, [fp, #-24]
30006a80:	e1a0200e 	mov	r2, lr
30006a84:	e51b301c 	ldr	r3, [fp, #-28]
30006a88:	e1a0e00f 	mov	lr, pc
30006a8c:	e1a0f00c 	mov	pc, ip
30006a90:	e51b3024 	ldr	r3, [fp, #-36]
30006a94:	e2033002 	and	r3, r3, #2	; 0x2
30006a98:	e3530000 	cmp	r3, #0	; 0x0
30006a9c:	0a000014 	beq	30006af4 <.text+0x6af4>
30006aa0:	e24b2044 	sub	r2, fp, #68	; 0x44
30006aa4:	e5923000 	ldr	r3, [r2]
30006aa8:	e1a01003 	mov	r1, r3
30006aac:	e2833001 	add	r3, r3, #1	; 0x1
30006ab0:	e5823000 	str	r3, [r2]
30006ab4:	e51b3028 	ldr	r3, [fp, #-40]
30006ab8:	e1510003 	cmp	r1, r3
30006abc:	2a00000c 	bcs	30006af4 <.text+0x6af4>
30006ac0:	e24b2034 	sub	r2, fp, #52	; 0x34
30006ac4:	e5923000 	ldr	r3, [r2]
30006ac8:	e1a0e003 	mov	lr, r3
30006acc:	e2833001 	add	r3, r3, #1	; 0x1
30006ad0:	e5823000 	str	r3, [r2]
30006ad4:	e51bc014 	ldr	ip, [fp, #-20]
30006ad8:	e3a00020 	mov	r0, #32	; 0x20
30006adc:	e51b1018 	ldr	r1, [fp, #-24]
30006ae0:	e1a0200e 	mov	r2, lr
30006ae4:	e51b301c 	ldr	r3, [fp, #-28]
30006ae8:	e1a0e00f 	mov	lr, pc
30006aec:	e1a0f00c 	mov	pc, ip
30006af0:	eaffffea 	b	30006aa0 <.text+0x6aa0>
30006af4:	e51b3020 	ldr	r3, [fp, #-32]
30006af8:	e2833001 	add	r3, r3, #1	; 0x1
30006afc:	e50b3020 	str	r3, [fp, #-32]
30006b00:	eafffcad 	b	30005dbc <_vsnprintf+0x3c>
30006b04:	e59b2004 	ldr	r2, [fp, #4]
30006b08:	e59b3004 	ldr	r3, [fp, #4]
30006b0c:	e2833004 	add	r3, r3, #4	; 0x4
30006b10:	e58b3004 	str	r3, [fp, #4]
30006b14:	e5923000 	ldr	r3, [r2]
30006b18:	e50b3044 	str	r3, [fp, #-68]
30006b1c:	e51b102c 	ldr	r1, [fp, #-44]
30006b20:	e50b1060 	str	r1, [fp, #-96]
30006b24:	e51b302c 	ldr	r3, [fp, #-44]
30006b28:	e3530000 	cmp	r3, #0	; 0x0
30006b2c:	1a000001 	bne	30006b38 <.text+0x6b38>
30006b30:	e3e02000 	mvn	r2, #0	; 0x0
30006b34:	e50b2060 	str	r2, [fp, #-96]
30006b38:	e51b0044 	ldr	r0, [fp, #-68]
30006b3c:	e51b1060 	ldr	r1, [fp, #-96]
30006b40:	eb0000e4 	bl	30006ed8 <_strnlen_s>
30006b44:	e1a03000 	mov	r3, r0
30006b48:	e50b3038 	str	r3, [fp, #-56]
30006b4c:	e51b3024 	ldr	r3, [fp, #-36]
30006b50:	e2033b01 	and	r3, r3, #1024	; 0x400
30006b54:	e3530000 	cmp	r3, #0	; 0x0
30006b58:	0a000004 	beq	30006b70 <.text+0x6b70>
30006b5c:	e51b3038 	ldr	r3, [fp, #-56]
30006b60:	e51b202c 	ldr	r2, [fp, #-44]
30006b64:	e1530002 	cmp	r3, r2
30006b68:	21a03002 	movcs	r3, r2
30006b6c:	e50b3038 	str	r3, [fp, #-56]
30006b70:	e51b3024 	ldr	r3, [fp, #-36]
30006b74:	e2033002 	and	r3, r3, #2	; 0x2
30006b78:	e3530000 	cmp	r3, #0	; 0x0
30006b7c:	1a000014 	bne	30006bd4 <.text+0x6bd4>
30006b80:	e24b2038 	sub	r2, fp, #56	; 0x38
30006b84:	e5923000 	ldr	r3, [r2]
30006b88:	e1a01003 	mov	r1, r3
30006b8c:	e2833001 	add	r3, r3, #1	; 0x1
30006b90:	e5823000 	str	r3, [r2]
30006b94:	e51b3028 	ldr	r3, [fp, #-40]
30006b98:	e1510003 	cmp	r1, r3
30006b9c:	2a00000c 	bcs	30006bd4 <.text+0x6bd4>
30006ba0:	e24b2034 	sub	r2, fp, #52	; 0x34
30006ba4:	e5923000 	ldr	r3, [r2]
30006ba8:	e1a0e003 	mov	lr, r3
30006bac:	e2833001 	add	r3, r3, #1	; 0x1
30006bb0:	e5823000 	str	r3, [r2]
30006bb4:	e51bc014 	ldr	ip, [fp, #-20]
30006bb8:	e3a00020 	mov	r0, #32	; 0x20
30006bbc:	e51b1018 	ldr	r1, [fp, #-24]
30006bc0:	e1a0200e 	mov	r2, lr
30006bc4:	e51b301c 	ldr	r3, [fp, #-28]
30006bc8:	e1a0e00f 	mov	lr, pc
30006bcc:	e1a0f00c 	mov	pc, ip
30006bd0:	eaffffea 	b	30006b80 <.text+0x6b80>
30006bd4:	e51b3044 	ldr	r3, [fp, #-68]
30006bd8:	e5d33000 	ldrb	r3, [r3]
30006bdc:	e3530000 	cmp	r3, #0	; 0x0
30006be0:	0a00001b 	beq	30006c54 <.text+0x6c54>
30006be4:	e51b3024 	ldr	r3, [fp, #-36]
30006be8:	e2033b01 	and	r3, r3, #1024	; 0x400
30006bec:	e3530000 	cmp	r3, #0	; 0x0
30006bf0:	0a000005 	beq	30006c0c <.text+0x6c0c>
30006bf4:	e51b302c 	ldr	r3, [fp, #-44]
30006bf8:	e2433001 	sub	r3, r3, #1	; 0x1
30006bfc:	e50b302c 	str	r3, [fp, #-44]
30006c00:	e3730001 	cmn	r3, #1	; 0x1
30006c04:	1a000000 	bne	30006c0c <.text+0x6c0c>
30006c08:	ea000011 	b	30006c54 <.text+0x6c54>
30006c0c:	e24b1044 	sub	r1, fp, #68	; 0x44
30006c10:	e5913000 	ldr	r3, [r1]
30006c14:	e1a02003 	mov	r2, r3
30006c18:	e5d20000 	ldrb	r0, [r2]
30006c1c:	e2833001 	add	r3, r3, #1	; 0x1
30006c20:	e5813000 	str	r3, [r1]
30006c24:	e24b2034 	sub	r2, fp, #52	; 0x34
30006c28:	e5923000 	ldr	r3, [r2]
30006c2c:	e1a0e003 	mov	lr, r3
30006c30:	e2833001 	add	r3, r3, #1	; 0x1
30006c34:	e5823000 	str	r3, [r2]
30006c38:	e51bc014 	ldr	ip, [fp, #-20]
30006c3c:	e51b1018 	ldr	r1, [fp, #-24]
30006c40:	e1a0200e 	mov	r2, lr
30006c44:	e51b301c 	ldr	r3, [fp, #-28]
30006c48:	e1a0e00f 	mov	lr, pc
30006c4c:	e1a0f00c 	mov	pc, ip
30006c50:	eaffffdf 	b	30006bd4 <.text+0x6bd4>
30006c54:	e51b3024 	ldr	r3, [fp, #-36]
30006c58:	e2033002 	and	r3, r3, #2	; 0x2
30006c5c:	e3530000 	cmp	r3, #0	; 0x0
30006c60:	0a000014 	beq	30006cb8 <.text+0x6cb8>
30006c64:	e24b2038 	sub	r2, fp, #56	; 0x38
30006c68:	e5923000 	ldr	r3, [r2]
30006c6c:	e1a01003 	mov	r1, r3
30006c70:	e2833001 	add	r3, r3, #1	; 0x1
30006c74:	e5823000 	str	r3, [r2]
30006c78:	e51b3028 	ldr	r3, [fp, #-40]
30006c7c:	e1510003 	cmp	r1, r3
30006c80:	2a00000c 	bcs	30006cb8 <.text+0x6cb8>
30006c84:	e24b2034 	sub	r2, fp, #52	; 0x34
30006c88:	e5923000 	ldr	r3, [r2]
30006c8c:	e1a0e003 	mov	lr, r3
30006c90:	e2833001 	add	r3, r3, #1	; 0x1
30006c94:	e5823000 	str	r3, [r2]
30006c98:	e51bc014 	ldr	ip, [fp, #-20]
30006c9c:	e3a00020 	mov	r0, #32	; 0x20
30006ca0:	e51b1018 	ldr	r1, [fp, #-24]
30006ca4:	e1a0200e 	mov	r2, lr
30006ca8:	e51b301c 	ldr	r3, [fp, #-28]
30006cac:	e1a0e00f 	mov	lr, pc
30006cb0:	e1a0f00c 	mov	pc, ip
30006cb4:	eaffffea 	b	30006c64 <.text+0x6c64>
30006cb8:	e51b3020 	ldr	r3, [fp, #-32]
30006cbc:	e2833001 	add	r3, r3, #1	; 0x1
30006cc0:	e50b3020 	str	r3, [fp, #-32]
30006cc4:	eafffc3c 	b	30005dbc <_vsnprintf+0x3c>
30006cc8:	30006eac 	andcc	r6, r0, ip, lsr #29
30006ccc:	e3a03008 	mov	r3, #8	; 0x8
30006cd0:	e50b3028 	str	r3, [fp, #-40]
30006cd4:	e51b3024 	ldr	r3, [fp, #-36]
30006cd8:	e3833021 	orr	r3, r3, #33	; 0x21
30006cdc:	e50b3024 	str	r3, [fp, #-36]
30006ce0:	e3a03000 	mov	r3, #0	; 0x0
30006ce4:	e54b3045 	strb	r3, [fp, #-69]
30006ce8:	e55b3045 	ldrb	r3, [fp, #-69]
30006cec:	e3530000 	cmp	r3, #0	; 0x0
30006cf0:	0a00001b 	beq	30006d64 <.text+0x6d64>
30006cf4:	e59b2004 	ldr	r2, [fp, #4]
30006cf8:	e59b3004 	ldr	r3, [fp, #4]
30006cfc:	e2833004 	add	r3, r3, #4	; 0x4
30006d00:	e58b3004 	str	r3, [fp, #4]
30006d04:	e5923000 	ldr	r3, [r2]
30006d08:	e3a04000 	mov	r4, #0	; 0x0
30006d0c:	e88d0018 	stmia	sp, {r3, r4}
30006d10:	e3a03000 	mov	r3, #0	; 0x0
30006d14:	e58d3008 	str	r3, [sp, #8]
30006d18:	e3a0300c 	mov	r3, #12	; 0xc
30006d1c:	e08d3003 	add	r3, sp, r3
30006d20:	e3a02000 	mov	r2, #0	; 0x0
30006d24:	e3a01010 	mov	r1, #16	; 0x10
30006d28:	e8830006 	stmia	r3, {r1, r2}
30006d2c:	e51b302c 	ldr	r3, [fp, #-44]
30006d30:	e58d3014 	str	r3, [sp, #20]
30006d34:	e51b3028 	ldr	r3, [fp, #-40]
30006d38:	e58d3018 	str	r3, [sp, #24]
30006d3c:	e51b3024 	ldr	r3, [fp, #-36]
30006d40:	e58d301c 	str	r3, [sp, #28]
30006d44:	e51b0014 	ldr	r0, [fp, #-20]
30006d48:	e51b1018 	ldr	r1, [fp, #-24]
30006d4c:	e51b2034 	ldr	r2, [fp, #-52]
30006d50:	e51b301c 	ldr	r3, [fp, #-28]
30006d54:	ebfff6db 	bl	300048c8 <_ntoa_long_long>
30006d58:	e1a03000 	mov	r3, r0
30006d5c:	e50b3034 	str	r3, [fp, #-52]
30006d60:	ea000016 	b	30006dc0 <.text+0x6dc0>
30006d64:	e59b2004 	ldr	r2, [fp, #4]
30006d68:	e59b3004 	ldr	r3, [fp, #4]
30006d6c:	e2833004 	add	r3, r3, #4	; 0x4
30006d70:	e58b3004 	str	r3, [fp, #4]
30006d74:	e5923000 	ldr	r3, [r2]
30006d78:	e58d3000 	str	r3, [sp]
30006d7c:	e3a03000 	mov	r3, #0	; 0x0
30006d80:	e58d3004 	str	r3, [sp, #4]
30006d84:	e3a03010 	mov	r3, #16	; 0x10
30006d88:	e58d3008 	str	r3, [sp, #8]
30006d8c:	e51b302c 	ldr	r3, [fp, #-44]
30006d90:	e58d300c 	str	r3, [sp, #12]
30006d94:	e51b3028 	ldr	r3, [fp, #-40]
30006d98:	e58d3010 	str	r3, [sp, #16]
30006d9c:	e51b3024 	ldr	r3, [fp, #-36]
30006da0:	e58d3014 	str	r3, [sp, #20]
30006da4:	e51b0014 	ldr	r0, [fp, #-20]
30006da8:	e51b1018 	ldr	r1, [fp, #-24]
30006dac:	e51b2034 	ldr	r2, [fp, #-52]
30006db0:	e51b301c 	ldr	r3, [fp, #-28]
30006db4:	ebfff661 	bl	30004740 <_ntoa_long>
30006db8:	e1a03000 	mov	r3, r0
30006dbc:	e50b3034 	str	r3, [fp, #-52]
30006dc0:	e51b3020 	ldr	r3, [fp, #-32]
30006dc4:	e2833001 	add	r3, r3, #1	; 0x1
30006dc8:	e50b3020 	str	r3, [fp, #-32]
30006dcc:	eafffbfa 	b	30005dbc <_vsnprintf+0x3c>
30006dd0:	e24b2034 	sub	r2, fp, #52	; 0x34
30006dd4:	e5923000 	ldr	r3, [r2]
30006dd8:	e1a0e003 	mov	lr, r3
30006ddc:	e2833001 	add	r3, r3, #1	; 0x1
30006de0:	e5823000 	str	r3, [r2]
30006de4:	e51bc014 	ldr	ip, [fp, #-20]
30006de8:	e3a00025 	mov	r0, #37	; 0x25
30006dec:	e51b1018 	ldr	r1, [fp, #-24]
30006df0:	e1a0200e 	mov	r2, lr
30006df4:	e51b301c 	ldr	r3, [fp, #-28]
30006df8:	e1a0e00f 	mov	lr, pc
30006dfc:	e1a0f00c 	mov	pc, ip
30006e00:	e51b3020 	ldr	r3, [fp, #-32]
30006e04:	e2833001 	add	r3, r3, #1	; 0x1
30006e08:	e50b3020 	str	r3, [fp, #-32]
30006e0c:	eafffbea 	b	30005dbc <_vsnprintf+0x3c>
30006e10:	e51b3020 	ldr	r3, [fp, #-32]
30006e14:	e5d31000 	ldrb	r1, [r3]
30006e18:	e24b2034 	sub	r2, fp, #52	; 0x34
30006e1c:	e5923000 	ldr	r3, [r2]
30006e20:	e1a0e003 	mov	lr, r3
30006e24:	e2833001 	add	r3, r3, #1	; 0x1
30006e28:	e5823000 	str	r3, [r2]
30006e2c:	e51bc014 	ldr	ip, [fp, #-20]
30006e30:	e1a00001 	mov	r0, r1
30006e34:	e51b1018 	ldr	r1, [fp, #-24]
30006e38:	e1a0200e 	mov	r2, lr
30006e3c:	e51b301c 	ldr	r3, [fp, #-28]
30006e40:	e1a0e00f 	mov	lr, pc
30006e44:	e1a0f00c 	mov	pc, ip
30006e48:	e51b3020 	ldr	r3, [fp, #-32]
30006e4c:	e2833001 	add	r3, r3, #1	; 0x1
30006e50:	e50b3020 	str	r3, [fp, #-32]
30006e54:	eafffbd8 	b	30005dbc <_vsnprintf+0x3c>
30006e58:	e51b2034 	ldr	r2, [fp, #-52]
30006e5c:	e51b301c 	ldr	r3, [fp, #-28]
30006e60:	e1520003 	cmp	r2, r3
30006e64:	3a000003 	bcc	30006e78 <.text+0x6e78>
30006e68:	e51b301c 	ldr	r3, [fp, #-28]
30006e6c:	e2433001 	sub	r3, r3, #1	; 0x1
30006e70:	e50b3064 	str	r3, [fp, #-100]
30006e74:	ea000001 	b	30006e80 <.text+0x6e80>
30006e78:	e51b2034 	ldr	r2, [fp, #-52]
30006e7c:	e50b2064 	str	r2, [fp, #-100]
30006e80:	e51bc014 	ldr	ip, [fp, #-20]
30006e84:	e3a00000 	mov	r0, #0	; 0x0
30006e88:	e51b1018 	ldr	r1, [fp, #-24]
30006e8c:	e51b2064 	ldr	r2, [fp, #-100]
30006e90:	e51b301c 	ldr	r3, [fp, #-28]
30006e94:	e1a0e00f 	mov	lr, pc
30006e98:	e1a0f00c 	mov	pc, ip
30006e9c:	e51b3034 	ldr	r3, [fp, #-52]
30006ea0:	e1a00003 	mov	r0, r3
30006ea4:	e24bd010 	sub	sp, fp, #16	; 0x10
30006ea8:	e89da810 	ldmia	sp, {r4, fp, sp, pc}

30006eac <_out_null>:
30006eac:	e1a0c00d 	mov	ip, sp
30006eb0:	e92dd800 	stmdb	sp!, {fp, ip, lr, pc}
30006eb4:	e24cb004 	sub	fp, ip, #4	; 0x4
30006eb8:	e24dd010 	sub	sp, sp, #16	; 0x10
30006ebc:	e50b1014 	str	r1, [fp, #-20]
30006ec0:	e50b2018 	str	r2, [fp, #-24]
30006ec4:	e50b301c 	str	r3, [fp, #-28]
30006ec8:	e1a03000 	mov	r3, r0
30006ecc:	e54b300d 	strb	r3, [fp, #-13]
30006ed0:	e24bd00c 	sub	sp, fp, #12	; 0xc
30006ed4:	e89da800 	ldmia	sp, {fp, sp, pc}

30006ed8 <_strnlen_s>:
30006ed8:	e1a0c00d 	mov	ip, sp
30006edc:	e92dd800 	stmdb	sp!, {fp, ip, lr, pc}
30006ee0:	e24cb004 	sub	fp, ip, #4	; 0x4
30006ee4:	e24dd00c 	sub	sp, sp, #12	; 0xc
30006ee8:	e50b0010 	str	r0, [fp, #-16]
30006eec:	e50b1014 	str	r1, [fp, #-20]
30006ef0:	e51b3010 	ldr	r3, [fp, #-16]
30006ef4:	e50b3018 	str	r3, [fp, #-24]
30006ef8:	e51b3018 	ldr	r3, [fp, #-24]
30006efc:	e5d33000 	ldrb	r3, [r3]
30006f00:	e3530000 	cmp	r3, #0	; 0x0
30006f04:	0a000008 	beq	30006f2c <_strnlen_s+0x54>
30006f08:	e51b3014 	ldr	r3, [fp, #-20]
30006f0c:	e2433001 	sub	r3, r3, #1	; 0x1
30006f10:	e50b3014 	str	r3, [fp, #-20]
30006f14:	e3730001 	cmn	r3, #1	; 0x1
30006f18:	0a000003 	beq	30006f2c <_strnlen_s+0x54>
30006f1c:	e51b3018 	ldr	r3, [fp, #-24]
30006f20:	e2833001 	add	r3, r3, #1	; 0x1
30006f24:	e50b3018 	str	r3, [fp, #-24]
30006f28:	eafffff2 	b	30006ef8 <_strnlen_s+0x20>
30006f2c:	e51b2018 	ldr	r2, [fp, #-24]
30006f30:	e51b3010 	ldr	r3, [fp, #-16]
30006f34:	e0633002 	rsb	r3, r3, r2
30006f38:	e1a00003 	mov	r0, r3
30006f3c:	e24bd00c 	sub	sp, fp, #12	; 0xc
30006f40:	e89da800 	ldmia	sp, {fp, sp, pc}

30006f44 <printf_>:
30006f44:	e1a0c00d 	mov	ip, sp
30006f48:	e92d000f 	stmdb	sp!, {r0, r1, r2, r3}
30006f4c:	e92dd800 	stmdb	sp!, {fp, ip, lr, pc}
30006f50:	e24cb014 	sub	fp, ip, #20	; 0x14
30006f54:	e24dd010 	sub	sp, sp, #16	; 0x10
30006f58:	e28b3008 	add	r3, fp, #8	; 0x8
30006f5c:	e50b3010 	str	r3, [fp, #-16]
30006f60:	e24b2011 	sub	r2, fp, #17	; 0x11
30006f64:	e51b3010 	ldr	r3, [fp, #-16]
30006f68:	e58d3000 	str	r3, [sp]
30006f6c:	e59f0024 	ldr	r0, [pc, #36]	; 30006f98 <.text+0x6f98>
30006f70:	e1a01002 	mov	r1, r2
30006f74:	e3e02000 	mvn	r2, #0	; 0x0
30006f78:	e59b3004 	ldr	r3, [fp, #4]
30006f7c:	ebfffb7f 	bl	30005d80 <_vsnprintf>
30006f80:	e1a03000 	mov	r3, r0
30006f84:	e50b3018 	str	r3, [fp, #-24]
30006f88:	e51b3018 	ldr	r3, [fp, #-24]
30006f8c:	e1a00003 	mov	r0, r3
30006f90:	e24bd00c 	sub	sp, fp, #12	; 0xc
30006f94:	e89da800 	ldmia	sp, {fp, sp, pc}
30006f98:	30006f9c 	mulcc	r0, ip, pc

30006f9c <_out_char>:
30006f9c:	e1a0c00d 	mov	ip, sp
30006fa0:	e92dd800 	stmdb	sp!, {fp, ip, lr, pc}
30006fa4:	e24cb004 	sub	fp, ip, #4	; 0x4
30006fa8:	e24dd010 	sub	sp, sp, #16	; 0x10
30006fac:	e50b1014 	str	r1, [fp, #-20]
30006fb0:	e50b2018 	str	r2, [fp, #-24]
30006fb4:	e50b301c 	str	r3, [fp, #-28]
30006fb8:	e1a03000 	mov	r3, r0
30006fbc:	e54b300d 	strb	r3, [fp, #-13]
30006fc0:	e55b300d 	ldrb	r3, [fp, #-13]
30006fc4:	e3530000 	cmp	r3, #0	; 0x0
30006fc8:	0a000005 	beq	30006fe4 <_out_char+0x48>
30006fcc:	e59f3018 	ldr	r3, [pc, #24]	; 30006fec <.text+0x6fec>
30006fd0:	e55b200d 	ldrb	r2, [fp, #-13]
30006fd4:	e5933000 	ldr	r3, [r3]
30006fd8:	e1a00002 	mov	r0, r2
30006fdc:	e1a0e00f 	mov	lr, pc
30006fe0:	e1a0f003 	mov	pc, r3
30006fe4:	e24bd00c 	sub	sp, fp, #12	; 0xc
30006fe8:	e89da800 	ldmia	sp, {fp, sp, pc}
30006fec:	3000cc7c 	andcc	ip, r0, ip, ror ip

30006ff0 <printfln_>:
30006ff0:	e1a0c00d 	mov	ip, sp
30006ff4:	e92d000f 	stmdb	sp!, {r0, r1, r2, r3}
30006ff8:	e92dd800 	stmdb	sp!, {fp, ip, lr, pc}
30006ffc:	e24cb014 	sub	fp, ip, #20	; 0x14
30007000:	e24dd010 	sub	sp, sp, #16	; 0x10
30007004:	e28b3008 	add	r3, fp, #8	; 0x8
30007008:	e50b3010 	str	r3, [fp, #-16]
3000700c:	e24b2011 	sub	r2, fp, #17	; 0x11
30007010:	e51b3010 	ldr	r3, [fp, #-16]
30007014:	e58d3000 	str	r3, [sp]
30007018:	e59f004c 	ldr	r0, [pc, #76]	; 3000706c <.text+0x706c>
3000701c:	e1a01002 	mov	r1, r2
30007020:	e3e02000 	mvn	r2, #0	; 0x0
30007024:	e59b3004 	ldr	r3, [fp, #4]
30007028:	ebfffb54 	bl	30005d80 <_vsnprintf>
3000702c:	e1a03000 	mov	r3, r0
30007030:	e50b3018 	str	r3, [fp, #-24]
30007034:	e59f3034 	ldr	r3, [pc, #52]	; 30007070 <.text+0x7070>
30007038:	e5933000 	ldr	r3, [r3]
3000703c:	e3a0000d 	mov	r0, #13	; 0xd
30007040:	e1a0e00f 	mov	lr, pc
30007044:	e1a0f003 	mov	pc, r3
30007048:	e59f3020 	ldr	r3, [pc, #32]	; 30007070 <.text+0x7070>
3000704c:	e5933000 	ldr	r3, [r3]
30007050:	e3a0000a 	mov	r0, #10	; 0xa
30007054:	e1a0e00f 	mov	lr, pc
30007058:	e1a0f003 	mov	pc, r3
3000705c:	e51b3018 	ldr	r3, [fp, #-24]
30007060:	e1a00003 	mov	r0, r3
30007064:	e24bd00c 	sub	sp, fp, #12	; 0xc
30007068:	e89da800 	ldmia	sp, {fp, sp, pc}
3000706c:	30006f9c 	mulcc	r0, ip, pc
30007070:	3000cc7c 	andcc	ip, r0, ip, ror ip

30007074 <sprintf_>:
30007074:	e1a0c00d 	mov	ip, sp
30007078:	e92d000e 	stmdb	sp!, {r1, r2, r3}
3000707c:	e92dd800 	stmdb	sp!, {fp, ip, lr, pc}
30007080:	e24cb010 	sub	fp, ip, #16	; 0x10
30007084:	e24dd010 	sub	sp, sp, #16	; 0x10
30007088:	e50b0010 	str	r0, [fp, #-16]
3000708c:	e28b3008 	add	r3, fp, #8	; 0x8
30007090:	e50b3014 	str	r3, [fp, #-20]
30007094:	e51b3014 	ldr	r3, [fp, #-20]
30007098:	e58d3000 	str	r3, [sp]
3000709c:	e59f0024 	ldr	r0, [pc, #36]	; 300070c8 <.text+0x70c8>
300070a0:	e51b1010 	ldr	r1, [fp, #-16]
300070a4:	e3e02000 	mvn	r2, #0	; 0x0
300070a8:	e59b3004 	ldr	r3, [fp, #4]
300070ac:	ebfffb33 	bl	30005d80 <_vsnprintf>
300070b0:	e1a03000 	mov	r3, r0
300070b4:	e50b3018 	str	r3, [fp, #-24]
300070b8:	e51b3018 	ldr	r3, [fp, #-24]
300070bc:	e1a00003 	mov	r0, r3
300070c0:	e24bd00c 	sub	sp, fp, #12	; 0xc
300070c4:	e89da800 	ldmia	sp, {fp, sp, pc}
300070c8:	300070cc 	andcc	r7, r0, ip, asr #1

300070cc <_out_buffer>:
300070cc:	e1a0c00d 	mov	ip, sp
300070d0:	e92dd800 	stmdb	sp!, {fp, ip, lr, pc}
300070d4:	e24cb004 	sub	fp, ip, #4	; 0x4
300070d8:	e24dd010 	sub	sp, sp, #16	; 0x10
300070dc:	e50b1014 	str	r1, [fp, #-20]
300070e0:	e50b2018 	str	r2, [fp, #-24]
300070e4:	e50b301c 	str	r3, [fp, #-28]
300070e8:	e1a03000 	mov	r3, r0
300070ec:	e54b300d 	strb	r3, [fp, #-13]
300070f0:	e51b2018 	ldr	r2, [fp, #-24]
300070f4:	e51b301c 	ldr	r3, [fp, #-28]
300070f8:	e1520003 	cmp	r2, r3
300070fc:	2a000004 	bcs	30007114 <_out_buffer+0x48>
30007100:	e51b2014 	ldr	r2, [fp, #-20]
30007104:	e51b3018 	ldr	r3, [fp, #-24]
30007108:	e0822003 	add	r2, r2, r3
3000710c:	e55b300d 	ldrb	r3, [fp, #-13]
30007110:	e5c23000 	strb	r3, [r2]
30007114:	e24bd00c 	sub	sp, fp, #12	; 0xc
30007118:	e89da800 	ldmia	sp, {fp, sp, pc}

3000711c <snprintf_>:
3000711c:	e1a0c00d 	mov	ip, sp
30007120:	e92d000c 	stmdb	sp!, {r2, r3}
30007124:	e92dd800 	stmdb	sp!, {fp, ip, lr, pc}
30007128:	e24cb00c 	sub	fp, ip, #12	; 0xc
3000712c:	e24dd014 	sub	sp, sp, #20	; 0x14
30007130:	e50b0010 	str	r0, [fp, #-16]
30007134:	e50b1014 	str	r1, [fp, #-20]
30007138:	e28b3008 	add	r3, fp, #8	; 0x8
3000713c:	e50b3018 	str	r3, [fp, #-24]
30007140:	e51b3018 	ldr	r3, [fp, #-24]
30007144:	e58d3000 	str	r3, [sp]
30007148:	e59f0024 	ldr	r0, [pc, #36]	; 30007174 <.text+0x7174>
3000714c:	e51b1010 	ldr	r1, [fp, #-16]
30007150:	e51b2014 	ldr	r2, [fp, #-20]
30007154:	e59b3004 	ldr	r3, [fp, #4]
30007158:	ebfffb08 	bl	30005d80 <_vsnprintf>
3000715c:	e1a03000 	mov	r3, r0
30007160:	e50b301c 	str	r3, [fp, #-28]
30007164:	e51b301c 	ldr	r3, [fp, #-28]
30007168:	e1a00003 	mov	r0, r3
3000716c:	e24bd00c 	sub	sp, fp, #12	; 0xc
30007170:	e89da800 	ldmia	sp, {fp, sp, pc}
30007174:	300070cc 	andcc	r7, r0, ip, asr #1

30007178 <standard_putchar_callback>:
30007178:	e1a0c00d 	mov	ip, sp
3000717c:	e92dd800 	stmdb	sp!, {fp, ip, lr, pc}
30007180:	e24cb004 	sub	fp, ip, #4	; 0x4
30007184:	e24dd004 	sub	sp, sp, #4	; 0x4
30007188:	e50b0010 	str	r0, [fp, #-16]
3000718c:	e59f2008 	ldr	r2, [pc, #8]	; 3000719c <.text+0x719c>
30007190:	e51b3010 	ldr	r3, [fp, #-16]
30007194:	e5823000 	str	r3, [r2]
30007198:	e89da808 	ldmia	sp, {r3, fp, sp, pc}
3000719c:	3000cc7c 	andcc	ip, r0, ip, ror ip

300071a0 <simple_strtoul>:
300071a0:	e1a0c00d 	mov	ip, sp
300071a4:	e92dd800 	stmdb	sp!, {fp, ip, lr, pc}
300071a8:	e24cb004 	sub	fp, ip, #4	; 0x4
300071ac:	e24dd018 	sub	sp, sp, #24	; 0x18
300071b0:	e50b0010 	str	r0, [fp, #-16]
300071b4:	e50b1014 	str	r1, [fp, #-20]
300071b8:	e50b2018 	str	r2, [fp, #-24]
300071bc:	e3a03000 	mov	r3, #0	; 0x0
300071c0:	e50b301c 	str	r3, [fp, #-28]
300071c4:	e51b3010 	ldr	r3, [fp, #-16]
300071c8:	e5d33000 	ldrb	r3, [r3]
300071cc:	e3530030 	cmp	r3, #48	; 0x30
300071d0:	1a00001e 	bne	30007250 <simple_strtoul+0xb0>
300071d4:	e51b3010 	ldr	r3, [fp, #-16]
300071d8:	e2833001 	add	r3, r3, #1	; 0x1
300071dc:	e50b3010 	str	r3, [fp, #-16]
300071e0:	e51b3010 	ldr	r3, [fp, #-16]
300071e4:	e5d33000 	ldrb	r3, [r3]
300071e8:	e3530078 	cmp	r3, #120	; 0x78
300071ec:	0a000004 	beq	30007204 <simple_strtoul+0x64>
300071f0:	e51b3010 	ldr	r3, [fp, #-16]
300071f4:	e5d33000 	ldrb	r3, [r3]
300071f8:	e3530058 	cmp	r3, #88	; 0x58
300071fc:	0a000000 	beq	30007204 <simple_strtoul+0x64>
30007200:	ea00000d 	b	3000723c <simple_strtoul+0x9c>
30007204:	e59f1170 	ldr	r1, [pc, #368]	; 3000737c <.text+0x737c>
30007208:	e3a02001 	mov	r2, #1	; 0x1
3000720c:	e51b3010 	ldr	r3, [fp, #-16]
30007210:	e0823003 	add	r3, r2, r3
30007214:	e5d33000 	ldrb	r3, [r3]
30007218:	e7d13003 	ldrb	r3, [r1, r3]
3000721c:	e2033044 	and	r3, r3, #68	; 0x44
30007220:	e3530000 	cmp	r3, #0	; 0x0
30007224:	0a000004 	beq	3000723c <simple_strtoul+0x9c>
30007228:	e3a03010 	mov	r3, #16	; 0x10
3000722c:	e50b3018 	str	r3, [fp, #-24]
30007230:	e51b3010 	ldr	r3, [fp, #-16]
30007234:	e2833001 	add	r3, r3, #1	; 0x1
30007238:	e50b3010 	str	r3, [fp, #-16]
3000723c:	e51b3018 	ldr	r3, [fp, #-24]
30007240:	e3530000 	cmp	r3, #0	; 0x0
30007244:	1a000001 	bne	30007250 <simple_strtoul+0xb0>
30007248:	e3a03008 	mov	r3, #8	; 0x8
3000724c:	e50b3018 	str	r3, [fp, #-24]
30007250:	e51b3018 	ldr	r3, [fp, #-24]
30007254:	e3530000 	cmp	r3, #0	; 0x0
30007258:	1a000001 	bne	30007264 <simple_strtoul+0xc4>
3000725c:	e3a0300a 	mov	r3, #10	; 0xa
30007260:	e50b3018 	str	r3, [fp, #-24]
30007264:	e59f2110 	ldr	r2, [pc, #272]	; 3000737c <.text+0x737c>
30007268:	e51b3010 	ldr	r3, [fp, #-16]
3000726c:	e5d33000 	ldrb	r3, [r3]
30007270:	e7d23003 	ldrb	r3, [r2, r3]
30007274:	e2033044 	and	r3, r3, #68	; 0x44
30007278:	e3530000 	cmp	r3, #0	; 0x0
3000727c:	0a000034 	beq	30007354 <simple_strtoul+0x1b4>
30007280:	e59f20f4 	ldr	r2, [pc, #244]	; 3000737c <.text+0x737c>
30007284:	e51b3010 	ldr	r3, [fp, #-16]
30007288:	e5d33000 	ldrb	r3, [r3]
3000728c:	e7d23003 	ldrb	r3, [r2, r3]
30007290:	e2033004 	and	r3, r3, #4	; 0x4
30007294:	e3530000 	cmp	r3, #0	; 0x0
30007298:	0a000006 	beq	300072b8 <simple_strtoul+0x118>
3000729c:	e51b3010 	ldr	r3, [fp, #-16]
300072a0:	e5d33000 	ldrb	r3, [r3]
300072a4:	e50b3024 	str	r3, [fp, #-36]
300072a8:	e51b3024 	ldr	r3, [fp, #-36]
300072ac:	e2433030 	sub	r3, r3, #48	; 0x30
300072b0:	e50b3024 	str	r3, [fp, #-36]
300072b4:	ea000017 	b	30007318 <simple_strtoul+0x178>
300072b8:	e59f20bc 	ldr	r2, [pc, #188]	; 3000737c <.text+0x737c>
300072bc:	e51b3010 	ldr	r3, [fp, #-16]
300072c0:	e5d33000 	ldrb	r3, [r3]
300072c4:	e7d23003 	ldrb	r3, [r2, r3]
300072c8:	e2033002 	and	r3, r3, #2	; 0x2
300072cc:	e3530000 	cmp	r3, #0	; 0x0
300072d0:	0a00000a 	beq	30007300 <simple_strtoul+0x160>
300072d4:	e51b3010 	ldr	r3, [fp, #-16]
300072d8:	e5d33000 	ldrb	r3, [r3]
300072dc:	e1a00003 	mov	r0, r3
300072e0:	eb000026 	bl	30007380 <__toupper>
300072e4:	e1a03000 	mov	r3, r0
300072e8:	e20330ff 	and	r3, r3, #255	; 0xff
300072ec:	e50b3024 	str	r3, [fp, #-36]
300072f0:	e51b3024 	ldr	r3, [fp, #-36]
300072f4:	e2433037 	sub	r3, r3, #55	; 0x37
300072f8:	e50b3024 	str	r3, [fp, #-36]
300072fc:	ea000005 	b	30007318 <simple_strtoul+0x178>
30007300:	e51b3010 	ldr	r3, [fp, #-16]
30007304:	e5d33000 	ldrb	r3, [r3]
30007308:	e50b3024 	str	r3, [fp, #-36]
3000730c:	e51b3024 	ldr	r3, [fp, #-36]
30007310:	e2433037 	sub	r3, r3, #55	; 0x37
30007314:	e50b3024 	str	r3, [fp, #-36]
30007318:	e51b2024 	ldr	r2, [fp, #-36]
3000731c:	e50b2020 	str	r2, [fp, #-32]
30007320:	e51b3018 	ldr	r3, [fp, #-24]
30007324:	e1520003 	cmp	r2, r3
30007328:	2a000009 	bcs	30007354 <simple_strtoul+0x1b4>
3000732c:	e51b201c 	ldr	r2, [fp, #-28]
30007330:	e51b3018 	ldr	r3, [fp, #-24]
30007334:	e0020293 	mul	r2, r3, r2
30007338:	e51b3020 	ldr	r3, [fp, #-32]
3000733c:	e0823003 	add	r3, r2, r3
30007340:	e50b301c 	str	r3, [fp, #-28]
30007344:	e51b3010 	ldr	r3, [fp, #-16]
30007348:	e2833001 	add	r3, r3, #1	; 0x1
3000734c:	e50b3010 	str	r3, [fp, #-16]
30007350:	eaffffc3 	b	30007264 <simple_strtoul+0xc4>
30007354:	e51b3014 	ldr	r3, [fp, #-20]
30007358:	e3530000 	cmp	r3, #0	; 0x0
3000735c:	0a000002 	beq	3000736c <simple_strtoul+0x1cc>
30007360:	e51b2014 	ldr	r2, [fp, #-20]
30007364:	e51b3010 	ldr	r3, [fp, #-16]
30007368:	e5823000 	str	r3, [r2]
3000736c:	e51b301c 	ldr	r3, [fp, #-28]
30007370:	e1a00003 	mov	r0, r3
30007374:	e24bd00c 	sub	sp, fp, #12	; 0xc
30007378:	e89da800 	ldmia	sp, {fp, sp, pc}
3000737c:	3000cb04 	andcc	ip, r0, r4, lsl #22

30007380 <__toupper>:
30007380:	e1a0c00d 	mov	ip, sp
30007384:	e92dd800 	stmdb	sp!, {fp, ip, lr, pc}
30007388:	e24cb004 	sub	fp, ip, #4	; 0x4
3000738c:	e24dd004 	sub	sp, sp, #4	; 0x4
30007390:	e1a03000 	mov	r3, r0
30007394:	e54b300d 	strb	r3, [fp, #-13]
30007398:	e59f2028 	ldr	r2, [pc, #40]	; 300073c8 <.text+0x73c8>
3000739c:	e55b300d 	ldrb	r3, [fp, #-13]
300073a0:	e7d23003 	ldrb	r3, [r2, r3]
300073a4:	e2033002 	and	r3, r3, #2	; 0x2
300073a8:	e3530000 	cmp	r3, #0	; 0x0
300073ac:	0a000002 	beq	300073bc <__toupper+0x3c>
300073b0:	e55b300d 	ldrb	r3, [fp, #-13]
300073b4:	e2433020 	sub	r3, r3, #32	; 0x20
300073b8:	e54b300d 	strb	r3, [fp, #-13]
300073bc:	e55b300d 	ldrb	r3, [fp, #-13]
300073c0:	e1a00003 	mov	r0, r3
300073c4:	e89da808 	ldmia	sp, {r3, fp, sp, pc}
300073c8:	3000cb04 	andcc	ip, r0, r4, lsl #22

300073cc <simple_strtol>:
300073cc:	e1a0c00d 	mov	ip, sp
300073d0:	e92dd800 	stmdb	sp!, {fp, ip, lr, pc}
300073d4:	e24cb004 	sub	fp, ip, #4	; 0x4
300073d8:	e24dd010 	sub	sp, sp, #16	; 0x10
300073dc:	e50b0010 	str	r0, [fp, #-16]
300073e0:	e50b1014 	str	r1, [fp, #-20]
300073e4:	e50b2018 	str	r2, [fp, #-24]
300073e8:	e51b3010 	ldr	r3, [fp, #-16]
300073ec:	e5d33000 	ldrb	r3, [r3]
300073f0:	e353002d 	cmp	r3, #45	; 0x2d
300073f4:	1a000009 	bne	30007420 <simple_strtol+0x54>
300073f8:	e51b3010 	ldr	r3, [fp, #-16]
300073fc:	e2833001 	add	r3, r3, #1	; 0x1
30007400:	e1a00003 	mov	r0, r3
30007404:	e51b1014 	ldr	r1, [fp, #-20]
30007408:	e51b2018 	ldr	r2, [fp, #-24]
3000740c:	ebffff63 	bl	300071a0 <simple_strtoul>
30007410:	e1a03000 	mov	r3, r0
30007414:	e2633000 	rsb	r3, r3, #0	; 0x0
30007418:	e50b301c 	str	r3, [fp, #-28]
3000741c:	ea000005 	b	30007438 <simple_strtol+0x6c>
30007420:	e51b0010 	ldr	r0, [fp, #-16]
30007424:	e51b1014 	ldr	r1, [fp, #-20]
30007428:	e51b2018 	ldr	r2, [fp, #-24]
3000742c:	ebffff5b 	bl	300071a0 <simple_strtoul>
30007430:	e1a03000 	mov	r3, r0
30007434:	e50b301c 	str	r3, [fp, #-28]
30007438:	e51b001c 	ldr	r0, [fp, #-28]
3000743c:	e24bd00c 	sub	sp, fp, #12	; 0xc
30007440:	e89da800 	ldmia	sp, {fp, sp, pc}

30007444 <S3C2440_StringGets>:
30007444:	e1a0c00d 	mov	ip, sp
30007448:	e92dd800 	stmdb	sp!, {fp, ip, lr, pc}
3000744c:	e24cb004 	sub	fp, ip, #4	; 0x4
30007450:	e24dd00c 	sub	sp, sp, #12	; 0xc
30007454:	e50b0010 	str	r0, [fp, #-16]
30007458:	e3a03000 	mov	r3, #0	; 0x0
3000745c:	e50b3014 	str	r3, [fp, #-20]
30007460:	e59f30d8 	ldr	r3, [pc, #216]	; 30007540 <.text+0x7540>
30007464:	e5933000 	ldr	r3, [r3]
30007468:	e1a0e00f 	mov	lr, pc
3000746c:	e1a0f003 	mov	pc, r3
30007470:	e1a03000 	mov	r3, r0
30007474:	e54b3015 	strb	r3, [fp, #-21]
30007478:	e59f30c4 	ldr	r3, [pc, #196]	; 30007544 <.text+0x7544>
3000747c:	e55b2015 	ldrb	r2, [fp, #-21]
30007480:	e5933000 	ldr	r3, [r3]
30007484:	e1a00002 	mov	r0, r2
30007488:	e1a0e00f 	mov	lr, pc
3000748c:	e1a0f003 	mov	pc, r3
30007490:	e55b3015 	ldrb	r3, [fp, #-21]
30007494:	e353000a 	cmp	r3, #10	; 0xa
30007498:	1a000005 	bne	300074b4 <S3C2440_StringGets+0x70>
3000749c:	e59f30a0 	ldr	r3, [pc, #160]	; 30007544 <.text+0x7544>
300074a0:	e5933000 	ldr	r3, [r3]
300074a4:	e3a0000d 	mov	r0, #13	; 0xd
300074a8:	e1a0e00f 	mov	lr, pc
300074ac:	e1a0f003 	mov	pc, r3
300074b0:	ea000007 	b	300074d4 <S3C2440_StringGets+0x90>
300074b4:	e55b3015 	ldrb	r3, [fp, #-21]
300074b8:	e353000d 	cmp	r3, #13	; 0xd
300074bc:	1a000004 	bne	300074d4 <S3C2440_StringGets+0x90>
300074c0:	e59f307c 	ldr	r3, [pc, #124]	; 30007544 <.text+0x7544>
300074c4:	e5933000 	ldr	r3, [r3]
300074c8:	e3a0000a 	mov	r0, #10	; 0xa
300074cc:	e1a0e00f 	mov	lr, pc
300074d0:	e1a0f003 	mov	pc, r3
300074d4:	e55b3015 	ldrb	r3, [fp, #-21]
300074d8:	e353000a 	cmp	r3, #10	; 0xa
300074dc:	0a000003 	beq	300074f0 <S3C2440_StringGets+0xac>
300074e0:	e55b3015 	ldrb	r3, [fp, #-21]
300074e4:	e353000d 	cmp	r3, #13	; 0xd
300074e8:	0a000000 	beq	300074f0 <S3C2440_StringGets+0xac>
300074ec:	ea000005 	b	30007508 <S3C2440_StringGets+0xc4>
300074f0:	e51b2010 	ldr	r2, [fp, #-16]
300074f4:	e51b3014 	ldr	r3, [fp, #-20]
300074f8:	e0822003 	add	r2, r2, r3
300074fc:	e3a03000 	mov	r3, #0	; 0x0
30007500:	e5c23000 	strb	r3, [r2]
30007504:	ea000009 	b	30007530 <S3C2440_StringGets+0xec>
30007508:	e24b0014 	sub	r0, fp, #20	; 0x14
3000750c:	e5902000 	ldr	r2, [r0]
30007510:	e1a01002 	mov	r1, r2
30007514:	e51b3010 	ldr	r3, [fp, #-16]
30007518:	e0811003 	add	r1, r1, r3
3000751c:	e55b3015 	ldrb	r3, [fp, #-21]
30007520:	e5c13000 	strb	r3, [r1]
30007524:	e2822001 	add	r2, r2, #1	; 0x1
30007528:	e5802000 	str	r2, [r0]
3000752c:	eaffffcb 	b	30007460 <S3C2440_StringGets+0x1c>
30007530:	e51b3010 	ldr	r3, [fp, #-16]
30007534:	e1a00003 	mov	r0, r3
30007538:	e24bd00c 	sub	sp, fp, #12	; 0xc
3000753c:	e89da800 	ldmia	sp, {fp, sp, pc}
30007540:	3000cc84 	andcc	ip, r0, r4, lsl #25
30007544:	3000cc80 	andcc	ip, r0, r0, lsl #25

30007548 <S3C2440_StringGetUint>:
30007548:	e1a0c00d 	mov	ip, sp
3000754c:	e92dd800 	stmdb	sp!, {fp, ip, lr, pc}
30007550:	e24cb004 	sub	fp, ip, #4	; 0x4
30007554:	e24dd064 	sub	sp, sp, #100	; 0x64
30007558:	e24b3070 	sub	r3, fp, #112	; 0x70
3000755c:	e1a00003 	mov	r0, r3
30007560:	ebffffb7 	bl	30007444 <S3C2440_StringGets>
30007564:	e24b3070 	sub	r3, fp, #112	; 0x70
30007568:	e1a00003 	mov	r0, r3
3000756c:	e3a01000 	mov	r1, #0	; 0x0
30007570:	e3a02000 	mov	r2, #0	; 0x0
30007574:	ebffff09 	bl	300071a0 <simple_strtoul>
30007578:	e1a03000 	mov	r3, r0
3000757c:	e1a00003 	mov	r0, r3
30007580:	e24bd00c 	sub	sp, fp, #12	; 0xc
30007584:	e89da800 	ldmia	sp, {fp, sp, pc}

30007588 <S3C2440_StringGetSint>:
30007588:	e1a0c00d 	mov	ip, sp
3000758c:	e92dd800 	stmdb	sp!, {fp, ip, lr, pc}
30007590:	e24cb004 	sub	fp, ip, #4	; 0x4
30007594:	e24dd064 	sub	sp, sp, #100	; 0x64
30007598:	e24b3070 	sub	r3, fp, #112	; 0x70
3000759c:	e1a00003 	mov	r0, r3
300075a0:	ebffffa7 	bl	30007444 <S3C2440_StringGets>
300075a4:	e24b3070 	sub	r3, fp, #112	; 0x70
300075a8:	e1a00003 	mov	r0, r3
300075ac:	e3a01000 	mov	r1, #0	; 0x0
300075b0:	e3a02000 	mov	r2, #0	; 0x0
300075b4:	ebffff84 	bl	300073cc <simple_strtol>
300075b8:	e1a03000 	mov	r3, r0
300075bc:	e1a00003 	mov	r0, r3
300075c0:	e24bd00c 	sub	sp, fp, #12	; 0xc
300075c4:	e89da800 	ldmia	sp, {fp, sp, pc}

300075c8 <string_putchar_callback>:
300075c8:	e1a0c00d 	mov	ip, sp
300075cc:	e92dd800 	stmdb	sp!, {fp, ip, lr, pc}
300075d0:	e24cb004 	sub	fp, ip, #4	; 0x4
300075d4:	e24dd004 	sub	sp, sp, #4	; 0x4
300075d8:	e50b0010 	str	r0, [fp, #-16]
300075dc:	e59f2008 	ldr	r2, [pc, #8]	; 300075ec <.text+0x75ec>
300075e0:	e51b3010 	ldr	r3, [fp, #-16]
300075e4:	e5823000 	str	r3, [r2]
300075e8:	e89da808 	ldmia	sp, {r3, fp, sp, pc}
300075ec:	3000cc80 	andcc	ip, r0, r0, lsl #25

300075f0 <string_getchar_callback>:
300075f0:	e1a0c00d 	mov	ip, sp
300075f4:	e92dd800 	stmdb	sp!, {fp, ip, lr, pc}
300075f8:	e24cb004 	sub	fp, ip, #4	; 0x4
300075fc:	e24dd004 	sub	sp, sp, #4	; 0x4
30007600:	e50b0010 	str	r0, [fp, #-16]
30007604:	e59f2008 	ldr	r2, [pc, #8]	; 30007614 <.text+0x7614>
30007608:	e51b3010 	ldr	r3, [fp, #-16]
3000760c:	e5823000 	str	r3, [r2]
30007610:	e89da808 	ldmia	sp, {r3, fp, sp, pc}
30007614:	3000cc84 	andcc	ip, r0, r4, lsl #25

30007618 <memset>:
30007618:	e1a0c00d 	mov	ip, sp
3000761c:	e92dd800 	stmdb	sp!, {fp, ip, lr, pc}
30007620:	e24cb004 	sub	fp, ip, #4	; 0x4
30007624:	e24dd014 	sub	sp, sp, #20	; 0x14
30007628:	e50b0010 	str	r0, [fp, #-16]
3000762c:	e50b1014 	str	r1, [fp, #-20]
30007630:	e50b2018 	str	r2, [fp, #-24]
30007634:	e51b3010 	ldr	r3, [fp, #-16]
30007638:	e50b301c 	str	r3, [fp, #-28]
3000763c:	e51b3010 	ldr	r3, [fp, #-16]
30007640:	e3530000 	cmp	r3, #0	; 0x0
30007644:	1a000002 	bne	30007654 <memset+0x3c>
30007648:	e3a03000 	mov	r3, #0	; 0x0
3000764c:	e50b3020 	str	r3, [fp, #-32]
30007650:	ea00000f 	b	30007694 <memset+0x7c>
30007654:	e51b3018 	ldr	r3, [fp, #-24]
30007658:	e2433001 	sub	r3, r3, #1	; 0x1
3000765c:	e50b3018 	str	r3, [fp, #-24]
30007660:	e3730001 	cmn	r3, #1	; 0x1
30007664:	0a000008 	beq	3000768c <memset+0x74>
30007668:	e24b001c 	sub	r0, fp, #28	; 0x1c
3000766c:	e5902000 	ldr	r2, [r0]
30007670:	e51b3014 	ldr	r3, [fp, #-20]
30007674:	e1a01003 	mov	r1, r3
30007678:	e1a03002 	mov	r3, r2
3000767c:	e5c31000 	strb	r1, [r3]
30007680:	e2822001 	add	r2, r2, #1	; 0x1
30007684:	e5802000 	str	r2, [r0]
30007688:	eafffff1 	b	30007654 <memset+0x3c>
3000768c:	e51b3010 	ldr	r3, [fp, #-16]
30007690:	e50b3020 	str	r3, [fp, #-32]
30007694:	e51b0020 	ldr	r0, [fp, #-32]
30007698:	e24bd00c 	sub	sp, fp, #12	; 0xc
3000769c:	e89da800 	ldmia	sp, {fp, sp, pc}

300076a0 <memcpy>:
300076a0:	e1a0c00d 	mov	ip, sp
300076a4:	e92dd800 	stmdb	sp!, {fp, ip, lr, pc}
300076a8:	e24cb004 	sub	fp, ip, #4	; 0x4
300076ac:	e24dd018 	sub	sp, sp, #24	; 0x18
300076b0:	e50b0010 	str	r0, [fp, #-16]
300076b4:	e50b1014 	str	r1, [fp, #-20]
300076b8:	e50b2018 	str	r2, [fp, #-24]
300076bc:	e51b3010 	ldr	r3, [fp, #-16]
300076c0:	e50b301c 	str	r3, [fp, #-28]
300076c4:	e51b3014 	ldr	r3, [fp, #-20]
300076c8:	e50b3020 	str	r3, [fp, #-32]
300076cc:	e51b3010 	ldr	r3, [fp, #-16]
300076d0:	e3530000 	cmp	r3, #0	; 0x0
300076d4:	0a000002 	beq	300076e4 <memcpy+0x44>
300076d8:	e51b3014 	ldr	r3, [fp, #-20]
300076dc:	e3530000 	cmp	r3, #0	; 0x0
300076e0:	1a000002 	bne	300076f0 <memcpy+0x50>
300076e4:	e3a03000 	mov	r3, #0	; 0x0
300076e8:	e50b3024 	str	r3, [fp, #-36]
300076ec:	ea000012 	b	3000773c <memcpy+0x9c>
300076f0:	e51b3018 	ldr	r3, [fp, #-24]
300076f4:	e2433001 	sub	r3, r3, #1	; 0x1
300076f8:	e50b3018 	str	r3, [fp, #-24]
300076fc:	e3730001 	cmn	r3, #1	; 0x1
30007700:	0a00000b 	beq	30007734 <memcpy+0x94>
30007704:	e24bc01c 	sub	ip, fp, #28	; 0x1c
30007708:	e59c2000 	ldr	r2, [ip]
3000770c:	e24b1020 	sub	r1, fp, #32	; 0x20
30007710:	e5913000 	ldr	r3, [r1]
30007714:	e5d30000 	ldrb	r0, [r3]
30007718:	e2833001 	add	r3, r3, #1	; 0x1
3000771c:	e5813000 	str	r3, [r1]
30007720:	e1a03002 	mov	r3, r2
30007724:	e5c30000 	strb	r0, [r3]
30007728:	e2822001 	add	r2, r2, #1	; 0x1
3000772c:	e58c2000 	str	r2, [ip]
30007730:	eaffffee 	b	300076f0 <memcpy+0x50>
30007734:	e51b3010 	ldr	r3, [fp, #-16]
30007738:	e50b3024 	str	r3, [fp, #-36]
3000773c:	e51b0024 	ldr	r0, [fp, #-36]
30007740:	e24bd00c 	sub	sp, fp, #12	; 0xc
30007744:	e89da800 	ldmia	sp, {fp, sp, pc}

30007748 <memchr>:
30007748:	e1a0c00d 	mov	ip, sp
3000774c:	e92dd800 	stmdb	sp!, {fp, ip, lr, pc}
30007750:	e24cb004 	sub	fp, ip, #4	; 0x4
30007754:	e24dd014 	sub	sp, sp, #20	; 0x14
30007758:	e50b0010 	str	r0, [fp, #-16]
3000775c:	e50b1014 	str	r1, [fp, #-20]
30007760:	e50b2018 	str	r2, [fp, #-24]
30007764:	e51b3010 	ldr	r3, [fp, #-16]
30007768:	e50b301c 	str	r3, [fp, #-28]
3000776c:	e51b3010 	ldr	r3, [fp, #-16]
30007770:	e3530000 	cmp	r3, #0	; 0x0
30007774:	1a000002 	bne	30007784 <memchr+0x3c>
30007778:	e3a03000 	mov	r3, #0	; 0x0
3000777c:	e50b3020 	str	r3, [fp, #-32]
30007780:	ea000018 	b	300077e8 <memchr+0xa0>
30007784:	e24b201c 	sub	r2, fp, #28	; 0x1c
30007788:	e5923000 	ldr	r3, [r2]
3000778c:	e5d31000 	ldrb	r1, [r3]
30007790:	e2833001 	add	r3, r3, #1	; 0x1
30007794:	e5823000 	str	r3, [r2]
30007798:	e20130ff 	and	r3, r1, #255	; 0xff
3000779c:	e3530000 	cmp	r3, #0	; 0x0
300077a0:	0a00000e 	beq	300077e0 <memchr+0x98>
300077a4:	e51b3018 	ldr	r3, [fp, #-24]
300077a8:	e3530000 	cmp	r3, #0	; 0x0
300077ac:	0a00000b 	beq	300077e0 <memchr+0x98>
300077b0:	e51b301c 	ldr	r3, [fp, #-28]
300077b4:	e5d32000 	ldrb	r2, [r3]
300077b8:	e51b3014 	ldr	r3, [fp, #-20]
300077bc:	e1520003 	cmp	r2, r3
300077c0:	1a000002 	bne	300077d0 <memchr+0x88>
300077c4:	e51b301c 	ldr	r3, [fp, #-28]
300077c8:	e50b3020 	str	r3, [fp, #-32]
300077cc:	ea000005 	b	300077e8 <memchr+0xa0>
300077d0:	e51b3018 	ldr	r3, [fp, #-24]
300077d4:	e2433001 	sub	r3, r3, #1	; 0x1
300077d8:	e50b3018 	str	r3, [fp, #-24]
300077dc:	eaffffe8 	b	30007784 <memchr+0x3c>
300077e0:	e3a03000 	mov	r3, #0	; 0x0
300077e4:	e50b3020 	str	r3, [fp, #-32]
300077e8:	e51b0020 	ldr	r0, [fp, #-32]
300077ec:	e24bd00c 	sub	sp, fp, #12	; 0xc
300077f0:	e89da800 	ldmia	sp, {fp, sp, pc}

300077f4 <memcmp>:
300077f4:	e1a0c00d 	mov	ip, sp
300077f8:	e92dd800 	stmdb	sp!, {fp, ip, lr, pc}
300077fc:	e24cb004 	sub	fp, ip, #4	; 0x4
30007800:	e24dd018 	sub	sp, sp, #24	; 0x18
30007804:	e50b0010 	str	r0, [fp, #-16]
30007808:	e50b1014 	str	r1, [fp, #-20]
3000780c:	e50b2018 	str	r2, [fp, #-24]
30007810:	e3a03000 	mov	r3, #0	; 0x0
30007814:	e50b3024 	str	r3, [fp, #-36]
30007818:	e51b3010 	ldr	r3, [fp, #-16]
3000781c:	e50b301c 	str	r3, [fp, #-28]
30007820:	e51b3014 	ldr	r3, [fp, #-20]
30007824:	e50b3020 	str	r3, [fp, #-32]
30007828:	e51b3018 	ldr	r3, [fp, #-24]
3000782c:	e3530000 	cmp	r3, #0	; 0x0
30007830:	0a000012 	beq	30007880 <memcmp+0x8c>
30007834:	e51b301c 	ldr	r3, [fp, #-28]
30007838:	e5d32000 	ldrb	r2, [r3]
3000783c:	e51b3020 	ldr	r3, [fp, #-32]
30007840:	e5d33000 	ldrb	r3, [r3]
30007844:	e0633002 	rsb	r3, r3, r2
30007848:	e50b3024 	str	r3, [fp, #-36]
3000784c:	e3530000 	cmp	r3, #0	; 0x0
30007850:	0a000000 	beq	30007858 <memcmp+0x64>
30007854:	ea000009 	b	30007880 <memcmp+0x8c>
30007858:	e51b301c 	ldr	r3, [fp, #-28]
3000785c:	e2833001 	add	r3, r3, #1	; 0x1
30007860:	e50b301c 	str	r3, [fp, #-28]
30007864:	e51b3020 	ldr	r3, [fp, #-32]
30007868:	e2833001 	add	r3, r3, #1	; 0x1
3000786c:	e50b3020 	str	r3, [fp, #-32]
30007870:	e51b3018 	ldr	r3, [fp, #-24]
30007874:	e2433001 	sub	r3, r3, #1	; 0x1
30007878:	e50b3018 	str	r3, [fp, #-24]
3000787c:	eaffffe9 	b	30007828 <memcmp+0x34>
30007880:	e51b3024 	ldr	r3, [fp, #-36]
30007884:	e1a00003 	mov	r0, r3
30007888:	e24bd00c 	sub	sp, fp, #12	; 0xc
3000788c:	e89da800 	ldmia	sp, {fp, sp, pc}

30007890 <memccpy>:
30007890:	e1a0c00d 	mov	ip, sp
30007894:	e92dd800 	stmdb	sp!, {fp, ip, lr, pc}
30007898:	e24cb004 	sub	fp, ip, #4	; 0x4
3000789c:	e24dd020 	sub	sp, sp, #32	; 0x20
300078a0:	e50b0010 	str	r0, [fp, #-16]
300078a4:	e50b1014 	str	r1, [fp, #-20]
300078a8:	e50b2018 	str	r2, [fp, #-24]
300078ac:	e50b301c 	str	r3, [fp, #-28]
300078b0:	e3a03000 	mov	r3, #0	; 0x0
300078b4:	e50b3020 	str	r3, [fp, #-32]
300078b8:	e51b3010 	ldr	r3, [fp, #-16]
300078bc:	e50b3024 	str	r3, [fp, #-36]
300078c0:	e51b3014 	ldr	r3, [fp, #-20]
300078c4:	e50b3028 	str	r3, [fp, #-40]
300078c8:	e51b3010 	ldr	r3, [fp, #-16]
300078cc:	e3530000 	cmp	r3, #0	; 0x0
300078d0:	0a000002 	beq	300078e0 <memccpy+0x50>
300078d4:	e51b3014 	ldr	r3, [fp, #-20]
300078d8:	e3530000 	cmp	r3, #0	; 0x0
300078dc:	1a000002 	bne	300078ec <memccpy+0x5c>
300078e0:	e3a03000 	mov	r3, #0	; 0x0
300078e4:	e50b302c 	str	r3, [fp, #-44]
300078e8:	ea000020 	b	30007970 <memccpy+0xe0>
300078ec:	e51b301c 	ldr	r3, [fp, #-28]
300078f0:	e2433001 	sub	r3, r3, #1	; 0x1
300078f4:	e50b301c 	str	r3, [fp, #-28]
300078f8:	e3730001 	cmn	r3, #1	; 0x1
300078fc:	0a000011 	beq	30007948 <memccpy+0xb8>
30007900:	e24b0024 	sub	r0, fp, #36	; 0x24
30007904:	e5902000 	ldr	r2, [r0]
30007908:	e51b3028 	ldr	r3, [fp, #-40]
3000790c:	e1a01002 	mov	r1, r2
30007910:	e5d33000 	ldrb	r3, [r3]
30007914:	e5c13000 	strb	r3, [r1]
30007918:	e2822001 	add	r2, r2, #1	; 0x1
3000791c:	e5802000 	str	r2, [r0]
30007920:	e51b3028 	ldr	r3, [fp, #-40]
30007924:	e5d32000 	ldrb	r2, [r3]
30007928:	e51b3018 	ldr	r3, [fp, #-24]
3000792c:	e1520003 	cmp	r2, r3
30007930:	1a000000 	bne	30007938 <memccpy+0xa8>
30007934:	ea000003 	b	30007948 <memccpy+0xb8>
30007938:	e51b3028 	ldr	r3, [fp, #-40]
3000793c:	e2833001 	add	r3, r3, #1	; 0x1
30007940:	e50b3028 	str	r3, [fp, #-40]
30007944:	eaffffe8 	b	300078ec <memccpy+0x5c>
30007948:	e51b301c 	ldr	r3, [fp, #-28]
3000794c:	e3530000 	cmp	r3, #0	; 0x0
30007950:	0a000002 	beq	30007960 <memccpy+0xd0>
30007954:	e51b3024 	ldr	r3, [fp, #-36]
30007958:	e50b3020 	str	r3, [fp, #-32]
3000795c:	ea000001 	b	30007968 <memccpy+0xd8>
30007960:	e3a03000 	mov	r3, #0	; 0x0
30007964:	e50b3020 	str	r3, [fp, #-32]
30007968:	e51b3020 	ldr	r3, [fp, #-32]
3000796c:	e50b302c 	str	r3, [fp, #-44]
30007970:	e51b002c 	ldr	r0, [fp, #-44]
30007974:	e24bd00c 	sub	sp, fp, #12	; 0xc
30007978:	e89da800 	ldmia	sp, {fp, sp, pc}

3000797c <memmove>:
3000797c:	e1a0c00d 	mov	ip, sp
30007980:	e92dd800 	stmdb	sp!, {fp, ip, lr, pc}
30007984:	e24cb004 	sub	fp, ip, #4	; 0x4
30007988:	e24dd018 	sub	sp, sp, #24	; 0x18
3000798c:	e50b0010 	str	r0, [fp, #-16]
30007990:	e50b1014 	str	r1, [fp, #-20]
30007994:	e50b2018 	str	r2, [fp, #-24]
30007998:	e51b3010 	ldr	r3, [fp, #-16]
3000799c:	e50b301c 	str	r3, [fp, #-28]
300079a0:	e51b3014 	ldr	r3, [fp, #-20]
300079a4:	e50b3020 	str	r3, [fp, #-32]
300079a8:	e51b3010 	ldr	r3, [fp, #-16]
300079ac:	e3530000 	cmp	r3, #0	; 0x0
300079b0:	0a000002 	beq	300079c0 <memmove+0x44>
300079b4:	e51b3014 	ldr	r3, [fp, #-20]
300079b8:	e3530000 	cmp	r3, #0	; 0x0
300079bc:	1a000002 	bne	300079cc <memmove+0x50>
300079c0:	e3a03000 	mov	r3, #0	; 0x0
300079c4:	e50b3024 	str	r3, [fp, #-36]
300079c8:	ea000038 	b	30007ab0 <memmove+0x134>
300079cc:	e51b2010 	ldr	r2, [fp, #-16]
300079d0:	e51b3014 	ldr	r3, [fp, #-20]
300079d4:	e1520003 	cmp	r2, r3
300079d8:	3a000006 	bcc	300079f8 <memmove+0x7c>
300079dc:	e51b2014 	ldr	r2, [fp, #-20]
300079e0:	e51b3018 	ldr	r3, [fp, #-24]
300079e4:	e0822003 	add	r2, r2, r3
300079e8:	e51b3010 	ldr	r3, [fp, #-16]
300079ec:	e1520003 	cmp	r2, r3
300079f0:	9a000000 	bls	300079f8 <memmove+0x7c>
300079f4:	ea000010 	b	30007a3c <memmove+0xc0>
300079f8:	e51b3018 	ldr	r3, [fp, #-24]
300079fc:	e2433001 	sub	r3, r3, #1	; 0x1
30007a00:	e50b3018 	str	r3, [fp, #-24]
30007a04:	e3730001 	cmn	r3, #1	; 0x1
30007a08:	0a000026 	beq	30007aa8 <memmove+0x12c>
30007a0c:	e24bc01c 	sub	ip, fp, #28	; 0x1c
30007a10:	e59c2000 	ldr	r2, [ip]
30007a14:	e24b1020 	sub	r1, fp, #32	; 0x20
30007a18:	e5913000 	ldr	r3, [r1]
30007a1c:	e5d30000 	ldrb	r0, [r3]
30007a20:	e2833001 	add	r3, r3, #1	; 0x1
30007a24:	e5813000 	str	r3, [r1]
30007a28:	e1a03002 	mov	r3, r2
30007a2c:	e5c30000 	strb	r0, [r3]
30007a30:	e2822001 	add	r2, r2, #1	; 0x1
30007a34:	e58c2000 	str	r2, [ip]
30007a38:	eaffffee 	b	300079f8 <memmove+0x7c>
30007a3c:	e51b2020 	ldr	r2, [fp, #-32]
30007a40:	e51b3018 	ldr	r3, [fp, #-24]
30007a44:	e0823003 	add	r3, r2, r3
30007a48:	e2433001 	sub	r3, r3, #1	; 0x1
30007a4c:	e50b3020 	str	r3, [fp, #-32]
30007a50:	e51b201c 	ldr	r2, [fp, #-28]
30007a54:	e51b3018 	ldr	r3, [fp, #-24]
30007a58:	e0823003 	add	r3, r2, r3
30007a5c:	e2433001 	sub	r3, r3, #1	; 0x1
30007a60:	e50b301c 	str	r3, [fp, #-28]
30007a64:	e51b3018 	ldr	r3, [fp, #-24]
30007a68:	e2433001 	sub	r3, r3, #1	; 0x1
30007a6c:	e50b3018 	str	r3, [fp, #-24]
30007a70:	e3730001 	cmn	r3, #1	; 0x1
30007a74:	0a00000b 	beq	30007aa8 <memmove+0x12c>
30007a78:	e24bc01c 	sub	ip, fp, #28	; 0x1c
30007a7c:	e59c2000 	ldr	r2, [ip]
30007a80:	e24b1020 	sub	r1, fp, #32	; 0x20
30007a84:	e5913000 	ldr	r3, [r1]
30007a88:	e5d30000 	ldrb	r0, [r3]
30007a8c:	e2433001 	sub	r3, r3, #1	; 0x1
30007a90:	e5813000 	str	r3, [r1]
30007a94:	e1a03002 	mov	r3, r2
30007a98:	e5c30000 	strb	r0, [r3]
30007a9c:	e2422001 	sub	r2, r2, #1	; 0x1
30007aa0:	e58c2000 	str	r2, [ip]
30007aa4:	eaffffee 	b	30007a64 <memmove+0xe8>
30007aa8:	e51b3010 	ldr	r3, [fp, #-16]
30007aac:	e50b3024 	str	r3, [fp, #-36]
30007ab0:	e51b0024 	ldr	r0, [fp, #-36]
30007ab4:	e24bd00c 	sub	sp, fp, #12	; 0xc
30007ab8:	e89da800 	ldmia	sp, {fp, sp, pc}

30007abc <strcpy>:
30007abc:	e1a0c00d 	mov	ip, sp
30007ac0:	e92dd800 	stmdb	sp!, {fp, ip, lr, pc}
30007ac4:	e24cb004 	sub	fp, ip, #4	; 0x4
30007ac8:	e24dd00c 	sub	sp, sp, #12	; 0xc
30007acc:	e50b0010 	str	r0, [fp, #-16]
30007ad0:	e50b1014 	str	r1, [fp, #-20]
30007ad4:	e51b3010 	ldr	r3, [fp, #-16]
30007ad8:	e50b3018 	str	r3, [fp, #-24]
30007adc:	e24bc010 	sub	ip, fp, #16	; 0x10
30007ae0:	e59c2000 	ldr	r2, [ip]
30007ae4:	e24b1014 	sub	r1, fp, #20	; 0x14
30007ae8:	e5913000 	ldr	r3, [r1]
30007aec:	e5d30000 	ldrb	r0, [r3]
30007af0:	e2833001 	add	r3, r3, #1	; 0x1
30007af4:	e5813000 	str	r3, [r1]
30007af8:	e1a03002 	mov	r3, r2
30007afc:	e5c30000 	strb	r0, [r3]
30007b00:	e2822001 	add	r2, r2, #1	; 0x1
30007b04:	e58c2000 	str	r2, [ip]
30007b08:	e20030ff 	and	r3, r0, #255	; 0xff
30007b0c:	e3530000 	cmp	r3, #0	; 0x0
30007b10:	0a000000 	beq	30007b18 <strcpy+0x5c>
30007b14:	eafffff0 	b	30007adc <strcpy+0x20>
30007b18:	e51b3018 	ldr	r3, [fp, #-24]
30007b1c:	e1a00003 	mov	r0, r3
30007b20:	e24bd00c 	sub	sp, fp, #12	; 0xc
30007b24:	e89da800 	ldmia	sp, {fp, sp, pc}

30007b28 <strncpy>:
30007b28:	e1a0c00d 	mov	ip, sp
30007b2c:	e92dd800 	stmdb	sp!, {fp, ip, lr, pc}
30007b30:	e24cb004 	sub	fp, ip, #4	; 0x4
30007b34:	e24dd010 	sub	sp, sp, #16	; 0x10
30007b38:	e50b0010 	str	r0, [fp, #-16]
30007b3c:	e50b1014 	str	r1, [fp, #-20]
30007b40:	e50b2018 	str	r2, [fp, #-24]
30007b44:	e51b3010 	ldr	r3, [fp, #-16]
30007b48:	e50b301c 	str	r3, [fp, #-28]
30007b4c:	e51b3018 	ldr	r3, [fp, #-24]
30007b50:	e2433001 	sub	r3, r3, #1	; 0x1
30007b54:	e50b3018 	str	r3, [fp, #-24]
30007b58:	e3730001 	cmn	r3, #1	; 0x1
30007b5c:	0a00000e 	beq	30007b9c <strncpy+0x74>
30007b60:	e24bc010 	sub	ip, fp, #16	; 0x10
30007b64:	e59c2000 	ldr	r2, [ip]
30007b68:	e24b1014 	sub	r1, fp, #20	; 0x14
30007b6c:	e5913000 	ldr	r3, [r1]
30007b70:	e5d30000 	ldrb	r0, [r3]
30007b74:	e2833001 	add	r3, r3, #1	; 0x1
30007b78:	e5813000 	str	r3, [r1]
30007b7c:	e1a03002 	mov	r3, r2
30007b80:	e5c30000 	strb	r0, [r3]
30007b84:	e2822001 	add	r2, r2, #1	; 0x1
30007b88:	e58c2000 	str	r2, [ip]
30007b8c:	e20030ff 	and	r3, r0, #255	; 0xff
30007b90:	e3530000 	cmp	r3, #0	; 0x0
30007b94:	0a000000 	beq	30007b9c <strncpy+0x74>
30007b98:	eaffffeb 	b	30007b4c <strncpy+0x24>
30007b9c:	e51b301c 	ldr	r3, [fp, #-28]
30007ba0:	e1a00003 	mov	r0, r3
30007ba4:	e24bd00c 	sub	sp, fp, #12	; 0xc
30007ba8:	e89da800 	ldmia	sp, {fp, sp, pc}

30007bac <strcat>:
30007bac:	e1a0c00d 	mov	ip, sp
30007bb0:	e92dd800 	stmdb	sp!, {fp, ip, lr, pc}
30007bb4:	e24cb004 	sub	fp, ip, #4	; 0x4
30007bb8:	e24dd00c 	sub	sp, sp, #12	; 0xc
30007bbc:	e50b0010 	str	r0, [fp, #-16]
30007bc0:	e50b1014 	str	r1, [fp, #-20]
30007bc4:	e51b3010 	ldr	r3, [fp, #-16]
30007bc8:	e50b3018 	str	r3, [fp, #-24]
30007bcc:	e51b3010 	ldr	r3, [fp, #-16]
30007bd0:	e5d33000 	ldrb	r3, [r3]
30007bd4:	e3530000 	cmp	r3, #0	; 0x0
30007bd8:	0a000003 	beq	30007bec <strcat+0x40>
30007bdc:	e51b3010 	ldr	r3, [fp, #-16]
30007be0:	e2833001 	add	r3, r3, #1	; 0x1
30007be4:	e50b3010 	str	r3, [fp, #-16]
30007be8:	eafffff7 	b	30007bcc <strcat+0x20>
30007bec:	e24bc010 	sub	ip, fp, #16	; 0x10
30007bf0:	e59c2000 	ldr	r2, [ip]
30007bf4:	e24b1014 	sub	r1, fp, #20	; 0x14
30007bf8:	e5913000 	ldr	r3, [r1]
30007bfc:	e5d30000 	ldrb	r0, [r3]
30007c00:	e2833001 	add	r3, r3, #1	; 0x1
30007c04:	e5813000 	str	r3, [r1]
30007c08:	e1a03002 	mov	r3, r2
30007c0c:	e5c30000 	strb	r0, [r3]
30007c10:	e2822001 	add	r2, r2, #1	; 0x1
30007c14:	e58c2000 	str	r2, [ip]
30007c18:	e20030ff 	and	r3, r0, #255	; 0xff
30007c1c:	e3530000 	cmp	r3, #0	; 0x0
30007c20:	0a000000 	beq	30007c28 <strcat+0x7c>
30007c24:	eafffff0 	b	30007bec <strcat+0x40>
30007c28:	e51b3018 	ldr	r3, [fp, #-24]
30007c2c:	e1a00003 	mov	r0, r3
30007c30:	e24bd00c 	sub	sp, fp, #12	; 0xc
30007c34:	e89da800 	ldmia	sp, {fp, sp, pc}

30007c38 <strncat>:
30007c38:	e1a0c00d 	mov	ip, sp
30007c3c:	e92dd800 	stmdb	sp!, {fp, ip, lr, pc}
30007c40:	e24cb004 	sub	fp, ip, #4	; 0x4
30007c44:	e24dd010 	sub	sp, sp, #16	; 0x10
30007c48:	e50b0010 	str	r0, [fp, #-16]
30007c4c:	e50b1014 	str	r1, [fp, #-20]
30007c50:	e50b2018 	str	r2, [fp, #-24]
30007c54:	e51b3010 	ldr	r3, [fp, #-16]
30007c58:	e50b301c 	str	r3, [fp, #-28]
30007c5c:	e51b3018 	ldr	r3, [fp, #-24]
30007c60:	e3530000 	cmp	r3, #0	; 0x0
30007c64:	0a00001d 	beq	30007ce0 <strncat+0xa8>
30007c68:	e51b3010 	ldr	r3, [fp, #-16]
30007c6c:	e5d33000 	ldrb	r3, [r3]
30007c70:	e3530000 	cmp	r3, #0	; 0x0
30007c74:	0a000003 	beq	30007c88 <strncat+0x50>
30007c78:	e51b3010 	ldr	r3, [fp, #-16]
30007c7c:	e2833001 	add	r3, r3, #1	; 0x1
30007c80:	e50b3010 	str	r3, [fp, #-16]
30007c84:	eafffff7 	b	30007c68 <strncat+0x30>
30007c88:	e24bc010 	sub	ip, fp, #16	; 0x10
30007c8c:	e59c2000 	ldr	r2, [ip]
30007c90:	e24b1014 	sub	r1, fp, #20	; 0x14
30007c94:	e5913000 	ldr	r3, [r1]
30007c98:	e5d30000 	ldrb	r0, [r3]
30007c9c:	e2833001 	add	r3, r3, #1	; 0x1
30007ca0:	e5813000 	str	r3, [r1]
30007ca4:	e1a03002 	mov	r3, r2
30007ca8:	e5c30000 	strb	r0, [r3]
30007cac:	e2822001 	add	r2, r2, #1	; 0x1
30007cb0:	e58c2000 	str	r2, [ip]
30007cb4:	e20030ff 	and	r3, r0, #255	; 0xff
30007cb8:	e3530000 	cmp	r3, #0	; 0x0
30007cbc:	0a000007 	beq	30007ce0 <strncat+0xa8>
30007cc0:	e51b3018 	ldr	r3, [fp, #-24]
30007cc4:	e2433001 	sub	r3, r3, #1	; 0x1
30007cc8:	e50b3018 	str	r3, [fp, #-24]
30007ccc:	e3530000 	cmp	r3, #0	; 0x0
30007cd0:	1affffec 	bne	30007c88 <strncat+0x50>
30007cd4:	e51b3010 	ldr	r3, [fp, #-16]
30007cd8:	e3a02000 	mov	r2, #0	; 0x0
30007cdc:	e5c32000 	strb	r2, [r3]
30007ce0:	e51b301c 	ldr	r3, [fp, #-28]
30007ce4:	e1a00003 	mov	r0, r3
30007ce8:	e24bd00c 	sub	sp, fp, #12	; 0xc
30007cec:	e89da800 	ldmia	sp, {fp, sp, pc}

30007cf0 <strcmp>:
30007cf0:	e1a0c00d 	mov	ip, sp
30007cf4:	e92dd800 	stmdb	sp!, {fp, ip, lr, pc}
30007cf8:	e24cb004 	sub	fp, ip, #4	; 0x4
30007cfc:	e24dd00c 	sub	sp, sp, #12	; 0xc
30007d00:	e50b0010 	str	r0, [fp, #-16]
30007d04:	e50b1014 	str	r1, [fp, #-20]
30007d08:	e51b1010 	ldr	r1, [fp, #-16]
30007d0c:	e24b0014 	sub	r0, fp, #20	; 0x14
30007d10:	e5902000 	ldr	r2, [r0]
30007d14:	e1a03002 	mov	r3, r2
30007d18:	e5d11000 	ldrb	r1, [r1]
30007d1c:	e5d33000 	ldrb	r3, [r3]
30007d20:	e0633001 	rsb	r3, r3, r1
30007d24:	e20310ff 	and	r1, r3, #255	; 0xff
30007d28:	e50b1018 	str	r1, [fp, #-24]
30007d2c:	e2822001 	add	r2, r2, #1	; 0x1
30007d30:	e5802000 	str	r2, [r0]
30007d34:	e1a03c03 	mov	r3, r3, lsl #24
30007d38:	e1a03c43 	mov	r3, r3, asr #24
30007d3c:	e3530000 	cmp	r3, #0	; 0x0
30007d40:	1a000007 	bne	30007d64 <strcmp+0x74>
30007d44:	e24b2010 	sub	r2, fp, #16	; 0x10
30007d48:	e5923000 	ldr	r3, [r2]
30007d4c:	e5d31000 	ldrb	r1, [r3]
30007d50:	e2833001 	add	r3, r3, #1	; 0x1
30007d54:	e5823000 	str	r3, [r2]
30007d58:	e20130ff 	and	r3, r1, #255	; 0xff
30007d5c:	e3530000 	cmp	r3, #0	; 0x0
30007d60:	1affffe8 	bne	30007d08 <strcmp+0x18>
30007d64:	e51b2018 	ldr	r2, [fp, #-24]
30007d68:	e1a03c02 	mov	r3, r2, lsl #24
30007d6c:	e1a03c43 	mov	r3, r3, asr #24
30007d70:	e1a00003 	mov	r0, r3
30007d74:	e24bd00c 	sub	sp, fp, #12	; 0xc
30007d78:	e89da800 	ldmia	sp, {fp, sp, pc}

30007d7c <strncmp>:
30007d7c:	e1a0c00d 	mov	ip, sp
30007d80:	e92dd800 	stmdb	sp!, {fp, ip, lr, pc}
30007d84:	e24cb004 	sub	fp, ip, #4	; 0x4
30007d88:	e24dd010 	sub	sp, sp, #16	; 0x10
30007d8c:	e50b0010 	str	r0, [fp, #-16]
30007d90:	e50b1014 	str	r1, [fp, #-20]
30007d94:	e50b2018 	str	r2, [fp, #-24]
30007d98:	e3a01000 	mov	r1, #0	; 0x0
30007d9c:	e50b101c 	str	r1, [fp, #-28]
30007da0:	e51b3018 	ldr	r3, [fp, #-24]
30007da4:	e3530000 	cmp	r3, #0	; 0x0
30007da8:	0a00001b 	beq	30007e1c <strncmp+0xa0>
30007dac:	e51b1010 	ldr	r1, [fp, #-16]
30007db0:	e24b0014 	sub	r0, fp, #20	; 0x14
30007db4:	e5902000 	ldr	r2, [r0]
30007db8:	e1a03002 	mov	r3, r2
30007dbc:	e5d11000 	ldrb	r1, [r1]
30007dc0:	e5d33000 	ldrb	r3, [r3]
30007dc4:	e0633001 	rsb	r3, r3, r1
30007dc8:	e20310ff 	and	r1, r3, #255	; 0xff
30007dcc:	e50b101c 	str	r1, [fp, #-28]
30007dd0:	e2822001 	add	r2, r2, #1	; 0x1
30007dd4:	e5802000 	str	r2, [r0]
30007dd8:	e1a03c03 	mov	r3, r3, lsl #24
30007ddc:	e1a03c43 	mov	r3, r3, asr #24
30007de0:	e3530000 	cmp	r3, #0	; 0x0
30007de4:	1a00000c 	bne	30007e1c <strncmp+0xa0>
30007de8:	e24b2010 	sub	r2, fp, #16	; 0x10
30007dec:	e5923000 	ldr	r3, [r2]
30007df0:	e5d31000 	ldrb	r1, [r3]
30007df4:	e2833001 	add	r3, r3, #1	; 0x1
30007df8:	e5823000 	str	r3, [r2]
30007dfc:	e20130ff 	and	r3, r1, #255	; 0xff
30007e00:	e3530000 	cmp	r3, #0	; 0x0
30007e04:	1a000000 	bne	30007e0c <strncmp+0x90>
30007e08:	ea000003 	b	30007e1c <strncmp+0xa0>
30007e0c:	e51b3018 	ldr	r3, [fp, #-24]
30007e10:	e2433001 	sub	r3, r3, #1	; 0x1
30007e14:	e50b3018 	str	r3, [fp, #-24]
30007e18:	eaffffe0 	b	30007da0 <strncmp+0x24>
30007e1c:	e51b201c 	ldr	r2, [fp, #-28]
30007e20:	e1a03c02 	mov	r3, r2, lsl #24
30007e24:	e1a03c43 	mov	r3, r3, asr #24
30007e28:	e1a00003 	mov	r0, r3
30007e2c:	e24bd00c 	sub	sp, fp, #12	; 0xc
30007e30:	e89da800 	ldmia	sp, {fp, sp, pc}

30007e34 <strchr>:
30007e34:	e1a0c00d 	mov	ip, sp
30007e38:	e92dd800 	stmdb	sp!, {fp, ip, lr, pc}
30007e3c:	e24cb004 	sub	fp, ip, #4	; 0x4
30007e40:	e24dd00c 	sub	sp, sp, #12	; 0xc
30007e44:	e50b0010 	str	r0, [fp, #-16]
30007e48:	e50b1014 	str	r1, [fp, #-20]
30007e4c:	e51b3010 	ldr	r3, [fp, #-16]
30007e50:	e51b2014 	ldr	r2, [fp, #-20]
30007e54:	e5d31000 	ldrb	r1, [r3]
30007e58:	e20230ff 	and	r3, r2, #255	; 0xff
30007e5c:	e1510003 	cmp	r1, r3
30007e60:	0a00000a 	beq	30007e90 <strchr+0x5c>
30007e64:	e51b3010 	ldr	r3, [fp, #-16]
30007e68:	e5d33000 	ldrb	r3, [r3]
30007e6c:	e3530000 	cmp	r3, #0	; 0x0
30007e70:	1a000002 	bne	30007e80 <strchr+0x4c>
30007e74:	e3a03000 	mov	r3, #0	; 0x0
30007e78:	e50b3018 	str	r3, [fp, #-24]
30007e7c:	ea000005 	b	30007e98 <strchr+0x64>
30007e80:	e51b3010 	ldr	r3, [fp, #-16]
30007e84:	e2833001 	add	r3, r3, #1	; 0x1
30007e88:	e50b3010 	str	r3, [fp, #-16]
30007e8c:	eaffffee 	b	30007e4c <strchr+0x18>
30007e90:	e51b3010 	ldr	r3, [fp, #-16]
30007e94:	e50b3018 	str	r3, [fp, #-24]
30007e98:	e51b0018 	ldr	r0, [fp, #-24]
30007e9c:	e24bd00c 	sub	sp, fp, #12	; 0xc
30007ea0:	e89da800 	ldmia	sp, {fp, sp, pc}

30007ea4 <strrchr>:
30007ea4:	e1a0c00d 	mov	ip, sp
30007ea8:	e92dd800 	stmdb	sp!, {fp, ip, lr, pc}
30007eac:	e24cb004 	sub	fp, ip, #4	; 0x4
30007eb0:	e24dd010 	sub	sp, sp, #16	; 0x10
30007eb4:	e50b0010 	str	r0, [fp, #-16]
30007eb8:	e50b1014 	str	r1, [fp, #-20]
30007ebc:	e51b0010 	ldr	r0, [fp, #-16]
30007ec0:	eb00001a 	bl	30007f30 <strlen>
30007ec4:	e1a03000 	mov	r3, r0
30007ec8:	e1a02003 	mov	r2, r3
30007ecc:	e51b3010 	ldr	r3, [fp, #-16]
30007ed0:	e0823003 	add	r3, r2, r3
30007ed4:	e50b3018 	str	r3, [fp, #-24]
30007ed8:	e51b3018 	ldr	r3, [fp, #-24]
30007edc:	e51b2014 	ldr	r2, [fp, #-20]
30007ee0:	e5d31000 	ldrb	r1, [r3]
30007ee4:	e20230ff 	and	r3, r2, #255	; 0xff
30007ee8:	e1510003 	cmp	r1, r3
30007eec:	1a000002 	bne	30007efc <strrchr+0x58>
30007ef0:	e51b3018 	ldr	r3, [fp, #-24]
30007ef4:	e50b301c 	str	r3, [fp, #-28]
30007ef8:	ea000009 	b	30007f24 <strrchr+0x80>
30007efc:	e51b3018 	ldr	r3, [fp, #-24]
30007f00:	e2433001 	sub	r3, r3, #1	; 0x1
30007f04:	e1a02003 	mov	r2, r3
30007f08:	e50b2018 	str	r2, [fp, #-24]
30007f0c:	e51b3010 	ldr	r3, [fp, #-16]
30007f10:	e1520003 	cmp	r2, r3
30007f14:	3a000000 	bcc	30007f1c <strrchr+0x78>
30007f18:	eaffffee 	b	30007ed8 <strrchr+0x34>
30007f1c:	e3a03000 	mov	r3, #0	; 0x0
30007f20:	e50b301c 	str	r3, [fp, #-28]
30007f24:	e51b001c 	ldr	r0, [fp, #-28]
30007f28:	e24bd00c 	sub	sp, fp, #12	; 0xc
30007f2c:	e89da800 	ldmia	sp, {fp, sp, pc}

30007f30 <strlen>:
30007f30:	e1a0c00d 	mov	ip, sp
30007f34:	e92dd800 	stmdb	sp!, {fp, ip, lr, pc}
30007f38:	e24cb004 	sub	fp, ip, #4	; 0x4
30007f3c:	e24dd008 	sub	sp, sp, #8	; 0x8
30007f40:	e50b0010 	str	r0, [fp, #-16]
30007f44:	e51b3010 	ldr	r3, [fp, #-16]
30007f48:	e50b3014 	str	r3, [fp, #-20]
30007f4c:	e51b3014 	ldr	r3, [fp, #-20]
30007f50:	e5d33000 	ldrb	r3, [r3]
30007f54:	e3530000 	cmp	r3, #0	; 0x0
30007f58:	0a000003 	beq	30007f6c <strlen+0x3c>
30007f5c:	e51b3014 	ldr	r3, [fp, #-20]
30007f60:	e2833001 	add	r3, r3, #1	; 0x1
30007f64:	e50b3014 	str	r3, [fp, #-20]
30007f68:	eafffff7 	b	30007f4c <strlen+0x1c>
30007f6c:	e51b2014 	ldr	r2, [fp, #-20]
30007f70:	e51b3010 	ldr	r3, [fp, #-16]
30007f74:	e0633002 	rsb	r3, r3, r2
30007f78:	e1a00003 	mov	r0, r3
30007f7c:	e24bd00c 	sub	sp, fp, #12	; 0xc
30007f80:	e89da800 	ldmia	sp, {fp, sp, pc}

30007f84 <strnlen>:
30007f84:	e1a0c00d 	mov	ip, sp
30007f88:	e92dd800 	stmdb	sp!, {fp, ip, lr, pc}
30007f8c:	e24cb004 	sub	fp, ip, #4	; 0x4
30007f90:	e24dd00c 	sub	sp, sp, #12	; 0xc
30007f94:	e50b0010 	str	r0, [fp, #-16]
30007f98:	e50b1014 	str	r1, [fp, #-20]
30007f9c:	e51b3010 	ldr	r3, [fp, #-16]
30007fa0:	e50b3018 	str	r3, [fp, #-24]
30007fa4:	e51b3014 	ldr	r3, [fp, #-20]
30007fa8:	e2433001 	sub	r3, r3, #1	; 0x1
30007fac:	e50b3014 	str	r3, [fp, #-20]
30007fb0:	e3730001 	cmn	r3, #1	; 0x1
30007fb4:	0a000007 	beq	30007fd8 <strnlen+0x54>
30007fb8:	e51b3018 	ldr	r3, [fp, #-24]
30007fbc:	e5d33000 	ldrb	r3, [r3]
30007fc0:	e3530000 	cmp	r3, #0	; 0x0
30007fc4:	0a000003 	beq	30007fd8 <strnlen+0x54>
30007fc8:	e51b3018 	ldr	r3, [fp, #-24]
30007fcc:	e2833001 	add	r3, r3, #1	; 0x1
30007fd0:	e50b3018 	str	r3, [fp, #-24]
30007fd4:	eafffff2 	b	30007fa4 <strnlen+0x20>
30007fd8:	e51b2018 	ldr	r2, [fp, #-24]
30007fdc:	e51b3010 	ldr	r3, [fp, #-16]
30007fe0:	e0633002 	rsb	r3, r3, r2
30007fe4:	e1a00003 	mov	r0, r3
30007fe8:	e24bd00c 	sub	sp, fp, #12	; 0xc
30007fec:	e89da800 	ldmia	sp, {fp, sp, pc}

30007ff0 <strstr>:
30007ff0:	e1a0c00d 	mov	ip, sp
30007ff4:	e92dd800 	stmdb	sp!, {fp, ip, lr, pc}
30007ff8:	e24cb004 	sub	fp, ip, #4	; 0x4
30007ffc:	e24dd014 	sub	sp, sp, #20	; 0x14
30008000:	e50b0010 	str	r0, [fp, #-16]
30008004:	e50b1014 	str	r1, [fp, #-20]
30008008:	e51b0014 	ldr	r0, [fp, #-20]
3000800c:	ebffffc7 	bl	30007f30 <strlen>
30008010:	e1a03000 	mov	r3, r0
30008014:	e50b301c 	str	r3, [fp, #-28]
30008018:	e51b301c 	ldr	r3, [fp, #-28]
3000801c:	e3530000 	cmp	r3, #0	; 0x0
30008020:	1a000002 	bne	30008030 <strstr+0x40>
30008024:	e51b3010 	ldr	r3, [fp, #-16]
30008028:	e50b3020 	str	r3, [fp, #-32]
3000802c:	ea00001a 	b	3000809c <strstr+0xac>
30008030:	e51b0010 	ldr	r0, [fp, #-16]
30008034:	ebffffbd 	bl	30007f30 <strlen>
30008038:	e1a03000 	mov	r3, r0
3000803c:	e50b3018 	str	r3, [fp, #-24]
30008040:	e51b2018 	ldr	r2, [fp, #-24]
30008044:	e51b301c 	ldr	r3, [fp, #-28]
30008048:	e1520003 	cmp	r2, r3
3000804c:	ba000010 	blt	30008094 <strstr+0xa4>
30008050:	e51b3018 	ldr	r3, [fp, #-24]
30008054:	e2433001 	sub	r3, r3, #1	; 0x1
30008058:	e50b3018 	str	r3, [fp, #-24]
3000805c:	e51b0010 	ldr	r0, [fp, #-16]
30008060:	e51b1014 	ldr	r1, [fp, #-20]
30008064:	e51b201c 	ldr	r2, [fp, #-28]
30008068:	ebfffde1 	bl	300077f4 <memcmp>
3000806c:	e1a03000 	mov	r3, r0
30008070:	e3530000 	cmp	r3, #0	; 0x0
30008074:	1a000002 	bne	30008084 <strstr+0x94>
30008078:	e51b3010 	ldr	r3, [fp, #-16]
3000807c:	e50b3020 	str	r3, [fp, #-32]
30008080:	ea000005 	b	3000809c <strstr+0xac>
30008084:	e51b3010 	ldr	r3, [fp, #-16]
30008088:	e2833001 	add	r3, r3, #1	; 0x1
3000808c:	e50b3010 	str	r3, [fp, #-16]
30008090:	eaffffea 	b	30008040 <strstr+0x50>
30008094:	e3a03000 	mov	r3, #0	; 0x0
30008098:	e50b3020 	str	r3, [fp, #-32]
3000809c:	e51b0020 	ldr	r0, [fp, #-32]
300080a0:	e24bd00c 	sub	sp, fp, #12	; 0xc
300080a4:	e89da800 	ldmia	sp, {fp, sp, pc}

300080a8 <delay_simulate>:
300080a8:	e1a0c00d 	mov	ip, sp
300080ac:	e92dd800 	stmdb	sp!, {fp, ip, lr, pc}
300080b0:	e24cb004 	sub	fp, ip, #4	; 0x4
300080b4:	e24dd004 	sub	sp, sp, #4	; 0x4
300080b8:	e50b0010 	str	r0, [fp, #-16]
300080bc:	e51b3010 	ldr	r3, [fp, #-16]
300080c0:	e2433001 	sub	r3, r3, #1	; 0x1
300080c4:	e50b3010 	str	r3, [fp, #-16]
300080c8:	e3730001 	cmn	r3, #1	; 0x1
300080cc:	0a000000 	beq	300080d4 <delay_simulate+0x2c>
300080d0:	eafffff9 	b	300080bc <delay_simulate+0x14>
300080d4:	e89da808 	ldmia	sp, {r3, fp, sp, pc}

300080d8 <S3C2440_NandFlash_doScanNandFlash>:
300080d8:	e1a0c00d 	mov	ip, sp
300080dc:	e92dd800 	stmdb	sp!, {fp, ip, lr, pc}
300080e0:	e24cb004 	sub	fp, ip, #4	; 0x4
300080e4:	e24dd008 	sub	sp, sp, #8	; 0x8
300080e8:	ebffe121 	bl	30000574 <S3C2440_NandFlashSelect>
300080ec:	e3a00090 	mov	r0, #144	; 0x90
300080f0:	ebffe135 	bl	300005cc <S3C2440_NandFlash_Write_Command>
300080f4:	e3a00000 	mov	r0, #0	; 0x0
300080f8:	ebffe148 	bl	30000620 <S3C2440_NandFlash_Write_Address>
300080fc:	e59f00cc 	ldr	r0, [pc, #204]	; 300081d0 <.text+0x81d0>
30008100:	ebfffbba 	bl	30006ff0 <printfln_>
30008104:	ebffe15a 	bl	30000674 <S3C2440_NandFlash_Read_Data>
30008108:	e54b0014 	strb	r0, [fp, #-20]
3000810c:	ebffe158 	bl	30000674 <S3C2440_NandFlash_Read_Data>
30008110:	e54b0013 	strb	r0, [fp, #-19]
30008114:	ebffe156 	bl	30000674 <S3C2440_NandFlash_Read_Data>
30008118:	e54b0012 	strb	r0, [fp, #-18]
3000811c:	ebffe154 	bl	30000674 <S3C2440_NandFlash_Read_Data>
30008120:	e54b0011 	strb	r0, [fp, #-17]
30008124:	ebffe152 	bl	30000674 <S3C2440_NandFlash_Read_Data>
30008128:	e54b0010 	strb	r0, [fp, #-16]
3000812c:	ebffe11b 	bl	300005a0 <S3C2440_NandFlashDeselect>
30008130:	e55b3014 	ldrb	r3, [fp, #-20]
30008134:	e59f0098 	ldr	r0, [pc, #152]	; 300081d4 <.text+0x81d4>
30008138:	e1a01003 	mov	r1, r3
3000813c:	ebfffbab 	bl	30006ff0 <printfln_>
30008140:	e55b3013 	ldrb	r3, [fp, #-19]
30008144:	e59f008c 	ldr	r0, [pc, #140]	; 300081d8 <.text+0x81d8>
30008148:	e1a01003 	mov	r1, r3
3000814c:	ebfffba7 	bl	30006ff0 <printfln_>
30008150:	e55b3012 	ldrb	r3, [fp, #-18]
30008154:	e59f0080 	ldr	r0, [pc, #128]	; 300081dc <.text+0x81dc>
30008158:	e1a01003 	mov	r1, r3
3000815c:	ebfffba3 	bl	30006ff0 <printfln_>
30008160:	e55b3011 	ldrb	r3, [fp, #-17]
30008164:	e59f0074 	ldr	r0, [pc, #116]	; 300081e0 <.text+0x81e0>
30008168:	e1a01003 	mov	r1, r3
3000816c:	ebfffb9f 	bl	30006ff0 <printfln_>
30008170:	e55b3010 	ldrb	r3, [fp, #-16]
30008174:	e59f0068 	ldr	r0, [pc, #104]	; 300081e4 <.text+0x81e4>
30008178:	e1a01003 	mov	r1, r3
3000817c:	ebfffb9b 	bl	30006ff0 <printfln_>
30008180:	e55b3011 	ldrb	r3, [fp, #-17]
30008184:	e2032003 	and	r2, r3, #3	; 0x3
30008188:	e3a03001 	mov	r3, #1	; 0x1
3000818c:	e1a03213 	mov	r3, r3, lsl r2
30008190:	e59f0050 	ldr	r0, [pc, #80]	; 300081e8 <.text+0x81e8>
30008194:	e1a01003 	mov	r1, r3
30008198:	ebfffb94 	bl	30006ff0 <printfln_>
3000819c:	e55b3011 	ldrb	r3, [fp, #-17]
300081a0:	e1a03223 	mov	r3, r3, lsr #4
300081a4:	e20330ff 	and	r3, r3, #255	; 0xff
300081a8:	e2032003 	and	r2, r3, #3	; 0x3
300081ac:	e3a03040 	mov	r3, #64	; 0x40
300081b0:	e1a03213 	mov	r3, r3, lsl r2
300081b4:	e59f0030 	ldr	r0, [pc, #48]	; 300081ec <.text+0x81ec>
300081b8:	e1a01003 	mov	r1, r3
300081bc:	ebfffb8b 	bl	30006ff0 <printfln_>
300081c0:	e59f0008 	ldr	r0, [pc, #8]	; 300081d0 <.text+0x81d0>
300081c4:	ebfffb89 	bl	30006ff0 <printfln_>
300081c8:	e24bd00c 	sub	sp, fp, #12	; 0xc
300081cc:	e89da800 	ldmia	sp, {fp, sp, pc}
300081d0:	3000c554 	andcc	ip, r0, r4, asr r5
300081d4:	3000c558 	andcc	ip, r0, r8, asr r5
300081d8:	3000c574 	andcc	ip, r0, r4, ror r5
300081dc:	3000c590 	mulcc	r0, r0, r5
300081e0:	3000c5ac 	andcc	ip, r0, ip, lsr #11
300081e4:	3000c5c8 	andcc	ip, r0, r8, asr #11
300081e8:	3000c5e4 	andcc	ip, r0, r4, ror #11
300081ec:	3000c604 	andcc	ip, r0, r4, lsl #12

300081f0 <S3C2440_NandFlash_doEraseNandFlash>:
300081f0:	e1a0c00d 	mov	ip, sp
300081f4:	e92dd800 	stmdb	sp!, {fp, ip, lr, pc}
300081f8:	e24cb004 	sub	fp, ip, #4	; 0x4
300081fc:	e24dd008 	sub	sp, sp, #8	; 0x8
30008200:	e59f0040 	ldr	r0, [pc, #64]	; 30008248 <.text+0x8248>
30008204:	ebfffb4e 	bl	30006f44 <printf_>
30008208:	ebfffcce 	bl	30007548 <S3C2440_StringGetUint>
3000820c:	e1a03000 	mov	r3, r0
30008210:	e50b3010 	str	r3, [fp, #-16]
30008214:	e59f0030 	ldr	r0, [pc, #48]	; 3000824c <.text+0x824c>
30008218:	ebfffb74 	bl	30006ff0 <printfln_>
3000821c:	e51b0010 	ldr	r0, [fp, #-16]
30008220:	e3a01802 	mov	r1, #131072	; 0x20000
30008224:	ebffe18a 	bl	30000854 <S3C2440_NandFlash_Erase>
30008228:	e50b0014 	str	r0, [fp, #-20]
3000822c:	e51b3014 	ldr	r3, [fp, #-20]
30008230:	e3530000 	cmp	r3, #0	; 0x0
30008234:	0a000001 	beq	30008240 <S3C2440_NandFlash_doEraseNandFlash+0x50>
30008238:	e59f0010 	ldr	r0, [pc, #16]	; 30008250 <.text+0x8250>
3000823c:	ebfffb6b 	bl	30006ff0 <printfln_>
30008240:	e24bd00c 	sub	sp, fp, #12	; 0xc
30008244:	e89da800 	ldmia	sp, {fp, sp, pc}
30008248:	3000c624 	andcc	ip, r0, r4, lsr #12
3000824c:	3000c644 	andcc	ip, r0, r4, asr #12
30008250:	3000c654 	andcc	ip, r0, r4, asr r6

30008254 <S3C2440_NandFlash_doWriteNandFlash>:
30008254:	e1a0c00d 	mov	ip, sp
30008258:	e92dd800 	stmdb	sp!, {fp, ip, lr, pc}
3000825c:	e24cb004 	sub	fp, ip, #4	; 0x4
30008260:	e24dd068 	sub	sp, sp, #104	; 0x68
30008264:	e24b3074 	sub	r3, fp, #116	; 0x74
30008268:	e1a00003 	mov	r0, r3
3000826c:	e3a01000 	mov	r1, #0	; 0x0
30008270:	e3a02064 	mov	r2, #100	; 0x64
30008274:	ebfffce7 	bl	30007618 <memset>
30008278:	e59f0054 	ldr	r0, [pc, #84]	; 300082d4 <.text+0x82d4>
3000827c:	ebfffb30 	bl	30006f44 <printf_>
30008280:	ebfffcb0 	bl	30007548 <S3C2440_StringGetUint>
30008284:	e1a03000 	mov	r3, r0
30008288:	e50b3010 	str	r3, [fp, #-16]
3000828c:	e59f0044 	ldr	r0, [pc, #68]	; 300082d8 <.text+0x82d8>
30008290:	ebfffb2b 	bl	30006f44 <printf_>
30008294:	e24b3074 	sub	r3, fp, #116	; 0x74
30008298:	e1a00003 	mov	r0, r3
3000829c:	ebfffc68 	bl	30007444 <S3C2440_StringGets>
300082a0:	e59f0034 	ldr	r0, [pc, #52]	; 300082dc <.text+0x82dc>
300082a4:	ebfffb51 	bl	30006ff0 <printfln_>
300082a8:	e24b3074 	sub	r3, fp, #116	; 0x74
300082ac:	e1a00003 	mov	r0, r3
300082b0:	ebffff1e 	bl	30007f30 <strlen>
300082b4:	e1a03000 	mov	r3, r0
300082b8:	e2832001 	add	r2, r3, #1	; 0x1
300082bc:	e24b3074 	sub	r3, fp, #116	; 0x74
300082c0:	e51b0010 	ldr	r0, [fp, #-16]
300082c4:	e1a01003 	mov	r1, r3
300082c8:	ebffe1e7 	bl	30000a6c <S3C2440_NandFlash_Write>
300082cc:	e24bd00c 	sub	sp, fp, #12	; 0xc
300082d0:	e89da800 	ldmia	sp, {fp, sp, pc}
300082d4:	3000c678 	andcc	ip, r0, r8, ror r6
300082d8:	3000c698 	mulcc	r0, r8, r6
300082dc:	3000c6b8 	strcch	ip, [r0], -r8

300082e0 <S3C2440_NandFlash_doReadNandFlash>:
300082e0:	e1a0c00d 	mov	ip, sp
300082e4:	e92dd800 	stmdb	sp!, {fp, ip, lr, pc}
300082e8:	e24cb004 	sub	fp, ip, #4	; 0x4
300082ec:	e24dd064 	sub	sp, sp, #100	; 0x64
300082f0:	e59f016c 	ldr	r0, [pc, #364]	; 30008464 <.text+0x8464>
300082f4:	ebfffb12 	bl	30006f44 <printf_>
300082f8:	ebfffc92 	bl	30007548 <S3C2440_StringGetUint>
300082fc:	e1a03000 	mov	r3, r0
30008300:	e50b3010 	str	r3, [fp, #-16]
30008304:	e24b3058 	sub	r3, fp, #88	; 0x58
30008308:	e51b0010 	ldr	r0, [fp, #-16]
3000830c:	e1a01003 	mov	r1, r3
30008310:	e3a02040 	mov	r2, #64	; 0x40
30008314:	ebffe182 	bl	30000924 <S3C2440_NandFlash_Read>
30008318:	e24b3058 	sub	r3, fp, #88	; 0x58
3000831c:	e50b3014 	str	r3, [fp, #-20]
30008320:	e59f0140 	ldr	r0, [pc, #320]	; 30008468 <.text+0x8468>
30008324:	ebfffb31 	bl	30006ff0 <printfln_>
30008328:	e3a03000 	mov	r3, #0	; 0x0
3000832c:	e50b306c 	str	r3, [fp, #-108]
30008330:	e51b306c 	ldr	r3, [fp, #-108]
30008334:	e3530003 	cmp	r3, #3	; 0x3
30008338:	ca000047 	bgt	3000845c <S3C2440_NandFlash_doReadNandFlash+0x17c>
3000833c:	e3a03000 	mov	r3, #0	; 0x0
30008340:	e50b3070 	str	r3, [fp, #-112]
30008344:	e51b3070 	ldr	r3, [fp, #-112]
30008348:	e353000f 	cmp	r3, #15	; 0xf
3000834c:	ca000014 	bgt	300083a4 <S3C2440_NandFlash_doReadNandFlash+0xc4>
30008350:	e24b2014 	sub	r2, fp, #20	; 0x14
30008354:	e5923000 	ldr	r3, [r2]
30008358:	e5d31000 	ldrb	r1, [r3]
3000835c:	e2833001 	add	r3, r3, #1	; 0x1
30008360:	e5823000 	str	r3, [r2]
30008364:	e54b1015 	strb	r1, [fp, #-21]
30008368:	e3e0205b 	mvn	r2, #91	; 0x5b
3000836c:	e51b3070 	ldr	r3, [fp, #-112]
30008370:	e24b100c 	sub	r1, fp, #12	; 0xc
30008374:	e0813003 	add	r3, r1, r3
30008378:	e0832002 	add	r2, r3, r2
3000837c:	e55b3015 	ldrb	r3, [fp, #-21]
30008380:	e5c23000 	strb	r3, [r2]
30008384:	e55b3015 	ldrb	r3, [fp, #-21]
30008388:	e59f00dc 	ldr	r0, [pc, #220]	; 3000846c <.text+0x846c>
3000838c:	e1a01003 	mov	r1, r3
30008390:	ebfffaeb 	bl	30006f44 <printf_>
30008394:	e51b3070 	ldr	r3, [fp, #-112]
30008398:	e2833001 	add	r3, r3, #1	; 0x1
3000839c:	e50b3070 	str	r3, [fp, #-112]
300083a0:	eaffffe7 	b	30008344 <S3C2440_NandFlash_doReadNandFlash+0x64>
300083a4:	e59f00c4 	ldr	r0, [pc, #196]	; 30008470 <.text+0x8470>
300083a8:	ebfffae5 	bl	30006f44 <printf_>
300083ac:	e3a03000 	mov	r3, #0	; 0x0
300083b0:	e50b3070 	str	r3, [fp, #-112]
300083b4:	e51b3070 	ldr	r3, [fp, #-112]
300083b8:	e353000f 	cmp	r3, #15	; 0xf
300083bc:	ca000020 	bgt	30008444 <S3C2440_NandFlash_doReadNandFlash+0x164>
300083c0:	e3e0205b 	mvn	r2, #91	; 0x5b
300083c4:	e51b3070 	ldr	r3, [fp, #-112]
300083c8:	e24b100c 	sub	r1, fp, #12	; 0xc
300083cc:	e0813003 	add	r3, r1, r3
300083d0:	e0833002 	add	r3, r3, r2
300083d4:	e5d33000 	ldrb	r3, [r3]
300083d8:	e353001f 	cmp	r3, #31	; 0x1f
300083dc:	9a000008 	bls	30008404 <S3C2440_NandFlash_doReadNandFlash+0x124>
300083e0:	e3e0205b 	mvn	r2, #91	; 0x5b
300083e4:	e51b3070 	ldr	r3, [fp, #-112]
300083e8:	e24b100c 	sub	r1, fp, #12	; 0xc
300083ec:	e0813003 	add	r3, r1, r3
300083f0:	e0833002 	add	r3, r3, r2
300083f4:	e5d33000 	ldrb	r3, [r3]
300083f8:	e353007e 	cmp	r3, #126	; 0x7e
300083fc:	8a000000 	bhi	30008404 <S3C2440_NandFlash_doReadNandFlash+0x124>
30008400:	ea000002 	b	30008410 <S3C2440_NandFlash_doReadNandFlash+0x130>
30008404:	e59f0068 	ldr	r0, [pc, #104]	; 30008474 <.text+0x8474>
30008408:	ebfffacd 	bl	30006f44 <printf_>
3000840c:	ea000008 	b	30008434 <S3C2440_NandFlash_doReadNandFlash+0x154>
30008410:	e3e0205b 	mvn	r2, #91	; 0x5b
30008414:	e51b3070 	ldr	r3, [fp, #-112]
30008418:	e24b100c 	sub	r1, fp, #12	; 0xc
3000841c:	e0813003 	add	r3, r1, r3
30008420:	e0833002 	add	r3, r3, r2
30008424:	e5d33000 	ldrb	r3, [r3]
30008428:	e59f0048 	ldr	r0, [pc, #72]	; 30008478 <.text+0x8478>
3000842c:	e1a01003 	mov	r1, r3
30008430:	ebfffac3 	bl	30006f44 <printf_>
30008434:	e51b3070 	ldr	r3, [fp, #-112]
30008438:	e2833001 	add	r3, r3, #1	; 0x1
3000843c:	e50b3070 	str	r3, [fp, #-112]
30008440:	eaffffdb 	b	300083b4 <S3C2440_NandFlash_doReadNandFlash+0xd4>
30008444:	e59f0030 	ldr	r0, [pc, #48]	; 3000847c <.text+0x847c>
30008448:	ebfffae8 	bl	30006ff0 <printfln_>
3000844c:	e51b306c 	ldr	r3, [fp, #-108]
30008450:	e2833001 	add	r3, r3, #1	; 0x1
30008454:	e50b306c 	str	r3, [fp, #-108]
30008458:	eaffffb4 	b	30008330 <S3C2440_NandFlash_doReadNandFlash+0x50>
3000845c:	e24bd00c 	sub	sp, fp, #12	; 0xc
30008460:	e89da800 	ldmia	sp, {fp, sp, pc}
30008464:	3000c6c8 	andcc	ip, r0, r8, asr #13
30008468:	3000c6e8 	andcc	ip, r0, r8, ror #13
3000846c:	3000c6f0 	strccd	ip, [r0], -r0
30008470:	3000c6f8 	strccd	ip, [r0], -r8
30008474:	3000c700 	andcc	ip, r0, r0, lsl #14
30008478:	3000c704 	andcc	ip, r0, r4, lsl #14
3000847c:	3000c554 	andcc	ip, r0, r4, asr r5

30008480 <S3C2440_NandFlashTest>:
30008480:	e1a0c00d 	mov	ip, sp
30008484:	e92dd800 	stmdb	sp!, {fp, ip, lr, pc}
30008488:	e24cb004 	sub	fp, ip, #4	; 0x4
3000848c:	e24dd004 	sub	sp, sp, #4	; 0x4
30008490:	e3a03000 	mov	r3, #0	; 0x0
30008494:	e54b300d 	strb	r3, [fp, #-13]
30008498:	e59f0144 	ldr	r0, [pc, #324]	; 300085e4 <.text+0x85e4>
3000849c:	ebfffaa8 	bl	30006f44 <printf_>
300084a0:	e59f0140 	ldr	r0, [pc, #320]	; 300085e8 <.text+0x85e8>
300084a4:	ebfffaa6 	bl	30006f44 <printf_>
300084a8:	e59f013c 	ldr	r0, [pc, #316]	; 300085ec <.text+0x85ec>
300084ac:	ebfffaa4 	bl	30006f44 <printf_>
300084b0:	e59f0138 	ldr	r0, [pc, #312]	; 300085f0 <.text+0x85f0>
300084b4:	ebfffaa2 	bl	30006f44 <printf_>
300084b8:	e59f0134 	ldr	r0, [pc, #308]	; 300085f4 <.text+0x85f4>
300084bc:	ebfffaa0 	bl	30006f44 <printf_>
300084c0:	e59f0130 	ldr	r0, [pc, #304]	; 300085f8 <.text+0x85f8>
300084c4:	ebfffa9e 	bl	30006f44 <printf_>
300084c8:	ebffe4dc 	bl	30001840 <S3C2440_Uart0_Getchar>
300084cc:	e1a03000 	mov	r3, r0
300084d0:	e54b300d 	strb	r3, [fp, #-13]
300084d4:	e55b300d 	ldrb	r3, [fp, #-13]
300084d8:	e59f011c 	ldr	r0, [pc, #284]	; 300085fc <.text+0x85fc>
300084dc:	e1a01003 	mov	r1, r3
300084e0:	ebfffa97 	bl	30006f44 <printf_>
300084e4:	e55b300d 	ldrb	r3, [fp, #-13]
300084e8:	e2433045 	sub	r3, r3, #69	; 0x45
300084ec:	e3530032 	cmp	r3, #50	; 0x32
300084f0:	979ff103 	ldrls	pc, [pc, r3, lsl #2]
300084f4:	ea000039 	b	300085e0 <.text+0x85e0>
300084f8:	300085cc 	andcc	r8, r0, ip, asr #11
300084fc:	300085e0 	andcc	r8, r0, r0, ror #11
30008500:	300085e0 	andcc	r8, r0, r0, ror #11
30008504:	300085e0 	andcc	r8, r0, r0, ror #11
30008508:	300085e0 	andcc	r8, r0, r0, ror #11
3000850c:	300085e0 	andcc	r8, r0, r0, ror #11
30008510:	300085e0 	andcc	r8, r0, r0, ror #11
30008514:	300085e0 	andcc	r8, r0, r0, ror #11
30008518:	300085e0 	andcc	r8, r0, r0, ror #11
3000851c:	300085e0 	andcc	r8, r0, r0, ror #11
30008520:	300085e0 	andcc	r8, r0, r0, ror #11
30008524:	300085e0 	andcc	r8, r0, r0, ror #11
30008528:	300085e0 	andcc	r8, r0, r0, ror #11
3000852c:	300085dc 	ldrccd	r8, [r0], -ip
30008530:	300085c4 	andcc	r8, r0, r4, asr #11
30008534:	300085e0 	andcc	r8, r0, r0, ror #11
30008538:	300085e0 	andcc	r8, r0, r0, ror #11
3000853c:	300085e0 	andcc	r8, r0, r0, ror #11
30008540:	300085d4 	ldrccd	r8, [r0], -r4
30008544:	300085e0 	andcc	r8, r0, r0, ror #11
30008548:	300085e0 	andcc	r8, r0, r0, ror #11
3000854c:	300085e0 	andcc	r8, r0, r0, ror #11
30008550:	300085e0 	andcc	r8, r0, r0, ror #11
30008554:	300085e0 	andcc	r8, r0, r0, ror #11
30008558:	300085e0 	andcc	r8, r0, r0, ror #11
3000855c:	300085e0 	andcc	r8, r0, r0, ror #11
30008560:	300085e0 	andcc	r8, r0, r0, ror #11
30008564:	300085e0 	andcc	r8, r0, r0, ror #11
30008568:	300085e0 	andcc	r8, r0, r0, ror #11
3000856c:	300085e0 	andcc	r8, r0, r0, ror #11
30008570:	300085e0 	andcc	r8, r0, r0, ror #11
30008574:	300085e0 	andcc	r8, r0, r0, ror #11
30008578:	300085cc 	andcc	r8, r0, ip, asr #11
3000857c:	300085e0 	andcc	r8, r0, r0, ror #11
30008580:	300085e0 	andcc	r8, r0, r0, ror #11
30008584:	300085e0 	andcc	r8, r0, r0, ror #11
30008588:	300085e0 	andcc	r8, r0, r0, ror #11
3000858c:	300085e0 	andcc	r8, r0, r0, ror #11
30008590:	300085e0 	andcc	r8, r0, r0, ror #11
30008594:	300085e0 	andcc	r8, r0, r0, ror #11
30008598:	300085e0 	andcc	r8, r0, r0, ror #11
3000859c:	300085e0 	andcc	r8, r0, r0, ror #11
300085a0:	300085e0 	andcc	r8, r0, r0, ror #11
300085a4:	300085e0 	andcc	r8, r0, r0, ror #11
300085a8:	300085e0 	andcc	r8, r0, r0, ror #11
300085ac:	300085dc 	ldrccd	r8, [r0], -ip
300085b0:	300085c4 	andcc	r8, r0, r4, asr #11
300085b4:	300085e0 	andcc	r8, r0, r0, ror #11
300085b8:	300085e0 	andcc	r8, r0, r0, ror #11
300085bc:	300085e0 	andcc	r8, r0, r0, ror #11
300085c0:	300085d4 	ldrccd	r8, [r0], -r4
300085c4:	ebfffec3 	bl	300080d8 <S3C2440_NandFlash_doScanNandFlash>
300085c8:	ea000004 	b	300085e0 <.text+0x85e0>
300085cc:	ebffff07 	bl	300081f0 <S3C2440_NandFlash_doEraseNandFlash>
300085d0:	ea000002 	b	300085e0 <.text+0x85e0>
300085d4:	ebffff1e 	bl	30008254 <S3C2440_NandFlash_doWriteNandFlash>
300085d8:	ea000000 	b	300085e0 <.text+0x85e0>
300085dc:	ebffff3f 	bl	300082e0 <S3C2440_NandFlash_doReadNandFlash>
300085e0:	e89da808 	ldmia	sp, {r3, fp, sp, pc}
300085e4:	3000c708 	andcc	ip, r0, r8, lsl #14
300085e8:	3000c720 	andcc	ip, r0, r0, lsr #14
300085ec:	3000c738 	andcc	ip, r0, r8, lsr r7
300085f0:	3000c750 	andcc	ip, r0, r0, asr r7
300085f4:	3000c768 	andcc	ip, r0, r8, ror #14
300085f8:	3000c77c 	andcc	ip, r0, ip, ror r7
300085fc:	3000c790 	mulcc	r0, r0, r7

30008600 <S3C2440_NorFlash_doScanNorFlash>:
30008600:	e1a0c00d 	mov	ip, sp
30008604:	e92dd810 	stmdb	sp!, {r4, fp, ip, lr, pc}
30008608:	e24cb004 	sub	fp, ip, #4	; 0x4
3000860c:	e24dd030 	sub	sp, sp, #48	; 0x30
30008610:	e3a0302d 	mov	r3, #45	; 0x2d
30008614:	e50b3028 	str	r3, [fp, #-40]
30008618:	e3a03000 	mov	r3, #0	; 0x0
3000861c:	e50b3034 	str	r3, [fp, #-52]
30008620:	e59f02a4 	ldr	r0, [pc, #676]	; 300088cc <.text+0x88cc>
30008624:	ebfffa71 	bl	30006ff0 <printfln_>
30008628:	e3a00e55 	mov	r0, #1360	; 0x550
3000862c:	e2800005 	add	r0, r0, #5	; 0x5
30008630:	e3a010aa 	mov	r1, #170	; 0xaa
30008634:	ebffe194 	bl	30000c8c <S3C2440_NorFlash_Write_Command>
30008638:	e3a00faa 	mov	r0, #680	; 0x2a8
3000863c:	e2800002 	add	r0, r0, #2	; 0x2
30008640:	e3a01055 	mov	r1, #85	; 0x55
30008644:	ebffe190 	bl	30000c8c <S3C2440_NorFlash_Write_Command>
30008648:	e3a00e55 	mov	r0, #1360	; 0x550
3000864c:	e2800005 	add	r0, r0, #5	; 0x5
30008650:	e3a01090 	mov	r1, #144	; 0x90
30008654:	ebffe18c 	bl	30000c8c <S3C2440_NorFlash_Write_Command>
30008658:	e3a00000 	mov	r0, #0	; 0x0
3000865c:	ebffe198 	bl	30000cc4 <S3C2440_NorFlash_Read_Data>
30008660:	e1a03000 	mov	r3, r0
30008664:	e1a03803 	mov	r3, r3, lsl #16
30008668:	e1a03823 	mov	r3, r3, lsr #16
3000866c:	e50b301c 	str	r3, [fp, #-28]
30008670:	e3a00001 	mov	r0, #1	; 0x1
30008674:	ebffe192 	bl	30000cc4 <S3C2440_NorFlash_Read_Data>
30008678:	e1a03000 	mov	r3, r0
3000867c:	e1a03803 	mov	r3, r3, lsl #16
30008680:	e1a03823 	mov	r3, r3, lsr #16
30008684:	e50b3020 	str	r3, [fp, #-32]
30008688:	e59f0240 	ldr	r0, [pc, #576]	; 300088d0 <.text+0x88d0>
3000868c:	e51b101c 	ldr	r1, [fp, #-28]
30008690:	ebfffa56 	bl	30006ff0 <printfln_>
30008694:	e59f0238 	ldr	r0, [pc, #568]	; 300088d4 <.text+0x88d4>
30008698:	e51b1020 	ldr	r1, [fp, #-32]
3000869c:	ebfffa53 	bl	30006ff0 <printfln_>
300086a0:	e3a00000 	mov	r0, #0	; 0x0
300086a4:	e3a010f0 	mov	r1, #240	; 0xf0
300086a8:	ebffe177 	bl	30000c8c <S3C2440_NorFlash_Write_Command>
300086ac:	e3a00055 	mov	r0, #85	; 0x55
300086b0:	e3a01098 	mov	r1, #152	; 0x98
300086b4:	ebffe174 	bl	30000c8c <S3C2440_NorFlash_Write_Command>
300086b8:	e3a00010 	mov	r0, #16	; 0x10
300086bc:	ebffe180 	bl	30000cc4 <S3C2440_NorFlash_Read_Data>
300086c0:	e1a03000 	mov	r3, r0
300086c4:	e54b3014 	strb	r3, [fp, #-20]
300086c8:	e3a00011 	mov	r0, #17	; 0x11
300086cc:	ebffe17c 	bl	30000cc4 <S3C2440_NorFlash_Read_Data>
300086d0:	e1a03000 	mov	r3, r0
300086d4:	e54b3013 	strb	r3, [fp, #-19]
300086d8:	e3a00012 	mov	r0, #18	; 0x12
300086dc:	ebffe178 	bl	30000cc4 <S3C2440_NorFlash_Read_Data>
300086e0:	e1a03000 	mov	r3, r0
300086e4:	e54b3012 	strb	r3, [fp, #-18]
300086e8:	e3a03000 	mov	r3, #0	; 0x0
300086ec:	e54b3011 	strb	r3, [fp, #-17]
300086f0:	e24b3014 	sub	r3, fp, #20	; 0x14
300086f4:	e59f01dc 	ldr	r0, [pc, #476]	; 300088d8 <.text+0x88d8>
300086f8:	e1a01003 	mov	r1, r3
300086fc:	ebfffa3b 	bl	30006ff0 <printfln_>
30008700:	e3a00027 	mov	r0, #39	; 0x27
30008704:	ebffe16e 	bl	30000cc4 <S3C2440_NorFlash_Read_Data>
30008708:	e1a03000 	mov	r3, r0
3000870c:	e1a03803 	mov	r3, r3, lsl #16
30008710:	e1a02823 	mov	r2, r3, lsr #16
30008714:	e3a03001 	mov	r3, #1	; 0x1
30008718:	e1a03213 	mov	r3, r3, lsl r2
3000871c:	e50b3018 	str	r3, [fp, #-24]
30008720:	e51b3018 	ldr	r3, [fp, #-24]
30008724:	e1a03a23 	mov	r3, r3, lsr #20
30008728:	e59f01ac 	ldr	r0, [pc, #428]	; 300088dc <.text+0x88dc>
3000872c:	e51b1018 	ldr	r1, [fp, #-24]
30008730:	e1a02003 	mov	r2, r3
30008734:	ebfffa2d 	bl	30006ff0 <printfln_>
30008738:	e51b3018 	ldr	r3, [fp, #-24]
3000873c:	e3530000 	cmp	r3, #0	; 0x0
30008740:	1a000000 	bne	30008748 <S3C2440_NorFlash_doScanNorFlash+0x148>
30008744:	ea000059 	b	300088b0 <S3C2440_NorFlash_doScanNorFlash+0x2b0>
30008748:	e3a03000 	mov	r3, #0	; 0x0
3000874c:	e54b3035 	strb	r3, [fp, #-53]
30008750:	e59f0188 	ldr	r0, [pc, #392]	; 300088e0 <.text+0x88e0>
30008754:	ebfffa25 	bl	30006ff0 <printfln_>
30008758:	e3a0002c 	mov	r0, #44	; 0x2c
3000875c:	ebffe158 	bl	30000cc4 <S3C2440_NorFlash_Read_Data>
30008760:	e1a03000 	mov	r3, r0
30008764:	e1a03803 	mov	r3, r3, lsl #16
30008768:	e1a03823 	mov	r3, r3, lsr #16
3000876c:	e50b3024 	str	r3, [fp, #-36]
30008770:	e3a03000 	mov	r3, #0	; 0x0
30008774:	e50b303c 	str	r3, [fp, #-60]
30008778:	e51b203c 	ldr	r2, [fp, #-60]
3000877c:	e51b3024 	ldr	r3, [fp, #-36]
30008780:	e1520003 	cmp	r2, r3
30008784:	2a000049 	bcs	300088b0 <S3C2440_NorFlash_doScanNorFlash+0x2b0>
30008788:	e51b0028 	ldr	r0, [fp, #-40]
3000878c:	ebffe14c 	bl	30000cc4 <S3C2440_NorFlash_Read_Data>
30008790:	e1a03000 	mov	r3, r0
30008794:	e1a03803 	mov	r3, r3, lsl #16
30008798:	e1a04823 	mov	r4, r3, lsr #16
3000879c:	e51b3028 	ldr	r3, [fp, #-40]
300087a0:	e2833001 	add	r3, r3, #1	; 0x1
300087a4:	e1a00003 	mov	r0, r3
300087a8:	ebffe145 	bl	30000cc4 <S3C2440_NorFlash_Read_Data>
300087ac:	e1a03000 	mov	r3, r0
300087b0:	e1a03803 	mov	r3, r3, lsl #16
300087b4:	e1a03823 	mov	r3, r3, lsr #16
300087b8:	e1a03403 	mov	r3, r3, lsl #8
300087bc:	e1843003 	orr	r3, r4, r3
300087c0:	e2833001 	add	r3, r3, #1	; 0x1
300087c4:	e50b302c 	str	r3, [fp, #-44]
300087c8:	e51b3028 	ldr	r3, [fp, #-40]
300087cc:	e2833002 	add	r3, r3, #2	; 0x2
300087d0:	e1a00003 	mov	r0, r3
300087d4:	ebffe13a 	bl	30000cc4 <S3C2440_NorFlash_Read_Data>
300087d8:	e1a03000 	mov	r3, r0
300087dc:	e1a03803 	mov	r3, r3, lsl #16
300087e0:	e1a04823 	mov	r4, r3, lsr #16
300087e4:	e51b3028 	ldr	r3, [fp, #-40]
300087e8:	e2833003 	add	r3, r3, #3	; 0x3
300087ec:	e1a00003 	mov	r0, r3
300087f0:	ebffe133 	bl	30000cc4 <S3C2440_NorFlash_Read_Data>
300087f4:	e1a03000 	mov	r3, r0
300087f8:	e1a03803 	mov	r3, r3, lsl #16
300087fc:	e1a03823 	mov	r3, r3, lsr #16
30008800:	e1a03403 	mov	r3, r3, lsl #8
30008804:	e1843003 	orr	r3, r4, r3
30008808:	e1a03403 	mov	r3, r3, lsl #8
3000880c:	e50b3030 	str	r3, [fp, #-48]
30008810:	e51b3028 	ldr	r3, [fp, #-40]
30008814:	e2833004 	add	r3, r3, #4	; 0x4
30008818:	e50b3028 	str	r3, [fp, #-40]
3000881c:	e3a03000 	mov	r3, #0	; 0x0
30008820:	e50b3040 	str	r3, [fp, #-64]
30008824:	e51b2040 	ldr	r2, [fp, #-64]
30008828:	e51b302c 	ldr	r3, [fp, #-44]
3000882c:	e1520003 	cmp	r2, r3
30008830:	2a00001a 	bcs	300088a0 <S3C2440_NorFlash_doScanNorFlash+0x2a0>
30008834:	e59f00a8 	ldr	r0, [pc, #168]	; 300088e4 <.text+0x88e4>
30008838:	e51b1034 	ldr	r1, [fp, #-52]
3000883c:	ebfff9c0 	bl	30006f44 <printf_>
30008840:	e51b2034 	ldr	r2, [fp, #-52]
30008844:	e51b3030 	ldr	r3, [fp, #-48]
30008848:	e0823003 	add	r3, r2, r3
3000884c:	e50b3034 	str	r3, [fp, #-52]
30008850:	e55b3035 	ldrb	r3, [fp, #-53]
30008854:	e2833001 	add	r3, r3, #1	; 0x1
30008858:	e54b3035 	strb	r3, [fp, #-53]
3000885c:	e55b1035 	ldrb	r1, [fp, #-53]
30008860:	e59f3080 	ldr	r3, [pc, #128]	; 300088e8 <.text+0x88e8>
30008864:	e0832391 	umull	r2, r3, r1, r3
30008868:	e1a02123 	mov	r2, r3, lsr #2
3000886c:	e1a03002 	mov	r3, r2
30008870:	e1a03103 	mov	r3, r3, lsl #2
30008874:	e0833002 	add	r3, r3, r2
30008878:	e0633001 	rsb	r3, r3, r1
3000887c:	e20330ff 	and	r3, r3, #255	; 0xff
30008880:	e3530000 	cmp	r3, #0	; 0x0
30008884:	1a000001 	bne	30008890 <S3C2440_NorFlash_doScanNorFlash+0x290>
30008888:	e59f003c 	ldr	r0, [pc, #60]	; 300088cc <.text+0x88cc>
3000888c:	ebfff9d7 	bl	30006ff0 <printfln_>
30008890:	e51b3040 	ldr	r3, [fp, #-64]
30008894:	e2833001 	add	r3, r3, #1	; 0x1
30008898:	e50b3040 	str	r3, [fp, #-64]
3000889c:	eaffffe0 	b	30008824 <S3C2440_NorFlash_doScanNorFlash+0x224>
300088a0:	e51b303c 	ldr	r3, [fp, #-60]
300088a4:	e2833001 	add	r3, r3, #1	; 0x1
300088a8:	e50b303c 	str	r3, [fp, #-60]
300088ac:	eaffffb1 	b	30008778 <S3C2440_NorFlash_doScanNorFlash+0x178>
300088b0:	e3a00000 	mov	r0, #0	; 0x0
300088b4:	e3a010f0 	mov	r1, #240	; 0xf0
300088b8:	ebffe0f3 	bl	30000c8c <S3C2440_NorFlash_Write_Command>
300088bc:	e59f0008 	ldr	r0, [pc, #8]	; 300088cc <.text+0x88cc>
300088c0:	ebfff9ca 	bl	30006ff0 <printfln_>
300088c4:	e24bd010 	sub	sp, fp, #16	; 0x10
300088c8:	e89da810 	ldmia	sp, {r4, fp, sp, pc}
300088cc:	3000c798 	mulcc	r0, r8, r7
300088d0:	3000c79c 	mulcc	r0, ip, r7
300088d4:	3000c7b8 	strcch	ip, [r0], -r8
300088d8:	3000c7d4 	ldrccd	ip, [r0], -r4
300088dc:	3000c7ec 	andcc	ip, r0, ip, ror #15
300088e0:	3000c80c 	andcc	ip, r0, ip, lsl #16
300088e4:	3000c828 	andcc	ip, r0, r8, lsr #16
300088e8:	cccccccd 	stcgtl	12, cr12, [ip], {205}

300088ec <S3C2440_NorFlash_doEraseNorFlash>:
300088ec:	e1a0c00d 	mov	ip, sp
300088f0:	e92dd800 	stmdb	sp!, {fp, ip, lr, pc}
300088f4:	e24cb004 	sub	fp, ip, #4	; 0x4
300088f8:	e24dd004 	sub	sp, sp, #4	; 0x4
300088fc:	e59f0020 	ldr	r0, [pc, #32]	; 30008924 <.text+0x8924>
30008900:	ebfff98f 	bl	30006f44 <printf_>
30008904:	ebfffb0f 	bl	30007548 <S3C2440_StringGetUint>
30008908:	e1a03000 	mov	r3, r0
3000890c:	e50b3010 	str	r3, [fp, #-16]
30008910:	e59f0010 	ldr	r0, [pc, #16]	; 30008928 <.text+0x8928>
30008914:	ebfff9b5 	bl	30006ff0 <printfln_>
30008918:	e51b0010 	ldr	r0, [fp, #-16]
3000891c:	ebffe117 	bl	30000d80 <S3C2440_NorFlash_Erase>
30008920:	e89da808 	ldmia	sp, {r3, fp, sp, pc}
30008924:	3000c830 	andcc	ip, r0, r0, lsr r8
30008928:	3000c850 	andcc	ip, r0, r0, asr r8

3000892c <S3C2440_NorFlash_doWriteNorFlash>:
3000892c:	e1a0c00d 	mov	ip, sp
30008930:	e92dd800 	stmdb	sp!, {fp, ip, lr, pc}
30008934:	e24cb004 	sub	fp, ip, #4	; 0x4
30008938:	e24dd068 	sub	sp, sp, #104	; 0x68
3000893c:	e24b3074 	sub	r3, fp, #116	; 0x74
30008940:	e1a00003 	mov	r0, r3
30008944:	e3a01000 	mov	r1, #0	; 0x0
30008948:	e3a02064 	mov	r2, #100	; 0x64
3000894c:	ebfffb31 	bl	30007618 <memset>
30008950:	e59f0054 	ldr	r0, [pc, #84]	; 300089ac <.text+0x89ac>
30008954:	ebfff97a 	bl	30006f44 <printf_>
30008958:	ebfffafa 	bl	30007548 <S3C2440_StringGetUint>
3000895c:	e1a03000 	mov	r3, r0
30008960:	e50b3010 	str	r3, [fp, #-16]
30008964:	e59f0044 	ldr	r0, [pc, #68]	; 300089b0 <.text+0x89b0>
30008968:	ebfff975 	bl	30006f44 <printf_>
3000896c:	e24b3074 	sub	r3, fp, #116	; 0x74
30008970:	e1a00003 	mov	r0, r3
30008974:	ebfffab2 	bl	30007444 <S3C2440_StringGets>
30008978:	e59f0034 	ldr	r0, [pc, #52]	; 300089b4 <.text+0x89b4>
3000897c:	ebfff99b 	bl	30006ff0 <printfln_>
30008980:	e24b3074 	sub	r3, fp, #116	; 0x74
30008984:	e1a00003 	mov	r0, r3
30008988:	ebfffd68 	bl	30007f30 <strlen>
3000898c:	e1a03000 	mov	r3, r0
30008990:	e2832001 	add	r2, r3, #1	; 0x1
30008994:	e24b3074 	sub	r3, fp, #116	; 0x74
30008998:	e51b0010 	ldr	r0, [fp, #-16]
3000899c:	e1a01003 	mov	r1, r3
300089a0:	ebffe13b 	bl	30000e94 <S3C2440_NorFlash_Write>
300089a4:	e24bd00c 	sub	sp, fp, #12	; 0xc
300089a8:	e89da800 	ldmia	sp, {fp, sp, pc}
300089ac:	3000c860 	andcc	ip, r0, r0, ror #16
300089b0:	3000c880 	andcc	ip, r0, r0, lsl #17
300089b4:	3000c8a0 	andcc	ip, r0, r0, lsr #17

300089b8 <S3C2440_NorFlash_doReadNorFlash>:
300089b8:	e1a0c00d 	mov	ip, sp
300089bc:	e92dd800 	stmdb	sp!, {fp, ip, lr, pc}
300089c0:	e24cb004 	sub	fp, ip, #4	; 0x4
300089c4:	e24dd064 	sub	sp, sp, #100	; 0x64
300089c8:	e59f016c 	ldr	r0, [pc, #364]	; 30008b3c <.text+0x8b3c>
300089cc:	ebfff95c 	bl	30006f44 <printf_>
300089d0:	ebfffadc 	bl	30007548 <S3C2440_StringGetUint>
300089d4:	e1a03000 	mov	r3, r0
300089d8:	e50b3010 	str	r3, [fp, #-16]
300089dc:	e24b3058 	sub	r3, fp, #88	; 0x58
300089e0:	e51b0010 	ldr	r0, [fp, #-16]
300089e4:	e1a01003 	mov	r1, r3
300089e8:	e3a02040 	mov	r2, #64	; 0x40
300089ec:	ebffe106 	bl	30000e0c <S3C2440_NorFlash_Read>
300089f0:	e24b3058 	sub	r3, fp, #88	; 0x58
300089f4:	e50b3014 	str	r3, [fp, #-20]
300089f8:	e59f0140 	ldr	r0, [pc, #320]	; 30008b40 <.text+0x8b40>
300089fc:	ebfff97b 	bl	30006ff0 <printfln_>
30008a00:	e3a03000 	mov	r3, #0	; 0x0
30008a04:	e50b306c 	str	r3, [fp, #-108]
30008a08:	e51b306c 	ldr	r3, [fp, #-108]
30008a0c:	e3530003 	cmp	r3, #3	; 0x3
30008a10:	ca000047 	bgt	30008b34 <S3C2440_NorFlash_doReadNorFlash+0x17c>
30008a14:	e3a03000 	mov	r3, #0	; 0x0
30008a18:	e50b3070 	str	r3, [fp, #-112]
30008a1c:	e51b3070 	ldr	r3, [fp, #-112]
30008a20:	e353000f 	cmp	r3, #15	; 0xf
30008a24:	ca000014 	bgt	30008a7c <S3C2440_NorFlash_doReadNorFlash+0xc4>
30008a28:	e24b2014 	sub	r2, fp, #20	; 0x14
30008a2c:	e5923000 	ldr	r3, [r2]
30008a30:	e5d31000 	ldrb	r1, [r3]
30008a34:	e2833001 	add	r3, r3, #1	; 0x1
30008a38:	e5823000 	str	r3, [r2]
30008a3c:	e54b1015 	strb	r1, [fp, #-21]
30008a40:	e3e0205b 	mvn	r2, #91	; 0x5b
30008a44:	e51b3070 	ldr	r3, [fp, #-112]
30008a48:	e24b100c 	sub	r1, fp, #12	; 0xc
30008a4c:	e0813003 	add	r3, r1, r3
30008a50:	e0832002 	add	r2, r3, r2
30008a54:	e55b3015 	ldrb	r3, [fp, #-21]
30008a58:	e5c23000 	strb	r3, [r2]
30008a5c:	e55b3015 	ldrb	r3, [fp, #-21]
30008a60:	e59f00dc 	ldr	r0, [pc, #220]	; 30008b44 <.text+0x8b44>
30008a64:	e1a01003 	mov	r1, r3
30008a68:	ebfff935 	bl	30006f44 <printf_>
30008a6c:	e51b3070 	ldr	r3, [fp, #-112]
30008a70:	e2833001 	add	r3, r3, #1	; 0x1
30008a74:	e50b3070 	str	r3, [fp, #-112]
30008a78:	eaffffe7 	b	30008a1c <S3C2440_NorFlash_doReadNorFlash+0x64>
30008a7c:	e59f00c4 	ldr	r0, [pc, #196]	; 30008b48 <.text+0x8b48>
30008a80:	ebfff92f 	bl	30006f44 <printf_>
30008a84:	e3a03000 	mov	r3, #0	; 0x0
30008a88:	e50b3070 	str	r3, [fp, #-112]
30008a8c:	e51b3070 	ldr	r3, [fp, #-112]
30008a90:	e353000f 	cmp	r3, #15	; 0xf
30008a94:	ca000020 	bgt	30008b1c <S3C2440_NorFlash_doReadNorFlash+0x164>
30008a98:	e3e0205b 	mvn	r2, #91	; 0x5b
30008a9c:	e51b3070 	ldr	r3, [fp, #-112]
30008aa0:	e24b100c 	sub	r1, fp, #12	; 0xc
30008aa4:	e0813003 	add	r3, r1, r3
30008aa8:	e0833002 	add	r3, r3, r2
30008aac:	e5d33000 	ldrb	r3, [r3]
30008ab0:	e353001f 	cmp	r3, #31	; 0x1f
30008ab4:	9a000008 	bls	30008adc <S3C2440_NorFlash_doReadNorFlash+0x124>
30008ab8:	e3e0205b 	mvn	r2, #91	; 0x5b
30008abc:	e51b3070 	ldr	r3, [fp, #-112]
30008ac0:	e24b100c 	sub	r1, fp, #12	; 0xc
30008ac4:	e0813003 	add	r3, r1, r3
30008ac8:	e0833002 	add	r3, r3, r2
30008acc:	e5d33000 	ldrb	r3, [r3]
30008ad0:	e353007e 	cmp	r3, #126	; 0x7e
30008ad4:	8a000000 	bhi	30008adc <S3C2440_NorFlash_doReadNorFlash+0x124>
30008ad8:	ea000002 	b	30008ae8 <S3C2440_NorFlash_doReadNorFlash+0x130>
30008adc:	e59f0068 	ldr	r0, [pc, #104]	; 30008b4c <.text+0x8b4c>
30008ae0:	ebfff917 	bl	30006f44 <printf_>
30008ae4:	ea000008 	b	30008b0c <S3C2440_NorFlash_doReadNorFlash+0x154>
30008ae8:	e3e0205b 	mvn	r2, #91	; 0x5b
30008aec:	e51b3070 	ldr	r3, [fp, #-112]
30008af0:	e24b100c 	sub	r1, fp, #12	; 0xc
30008af4:	e0813003 	add	r3, r1, r3
30008af8:	e0833002 	add	r3, r3, r2
30008afc:	e5d33000 	ldrb	r3, [r3]
30008b00:	e59f0048 	ldr	r0, [pc, #72]	; 30008b50 <.text+0x8b50>
30008b04:	e1a01003 	mov	r1, r3
30008b08:	ebfff90d 	bl	30006f44 <printf_>
30008b0c:	e51b3070 	ldr	r3, [fp, #-112]
30008b10:	e2833001 	add	r3, r3, #1	; 0x1
30008b14:	e50b3070 	str	r3, [fp, #-112]
30008b18:	eaffffdb 	b	30008a8c <S3C2440_NorFlash_doReadNorFlash+0xd4>
30008b1c:	e59f0030 	ldr	r0, [pc, #48]	; 30008b54 <.text+0x8b54>
30008b20:	ebfff932 	bl	30006ff0 <printfln_>
30008b24:	e51b306c 	ldr	r3, [fp, #-108]
30008b28:	e2833001 	add	r3, r3, #1	; 0x1
30008b2c:	e50b306c 	str	r3, [fp, #-108]
30008b30:	eaffffb4 	b	30008a08 <S3C2440_NorFlash_doReadNorFlash+0x50>
30008b34:	e24bd00c 	sub	sp, fp, #12	; 0xc
30008b38:	e89da800 	ldmia	sp, {fp, sp, pc}
30008b3c:	3000c8b0 	strcch	ip, [r0], -r0
30008b40:	3000c8d0 	ldrccd	ip, [r0], -r0
30008b44:	3000c8d8 	ldrccd	ip, [r0], -r8
30008b48:	3000c8e0 	andcc	ip, r0, r0, ror #17
30008b4c:	3000c8e8 	andcc	ip, r0, r8, ror #17
30008b50:	3000c8ec 	andcc	ip, r0, ip, ror #17
30008b54:	3000c798 	mulcc	r0, r8, r7

30008b58 <S3C2440_NorFlashTest>:
30008b58:	e1a0c00d 	mov	ip, sp
30008b5c:	e92dd800 	stmdb	sp!, {fp, ip, lr, pc}
30008b60:	e24cb004 	sub	fp, ip, #4	; 0x4
30008b64:	e24dd004 	sub	sp, sp, #4	; 0x4
30008b68:	e3a03000 	mov	r3, #0	; 0x0
30008b6c:	e54b300d 	strb	r3, [fp, #-13]
30008b70:	e59f0144 	ldr	r0, [pc, #324]	; 30008cbc <.text+0x8cbc>
30008b74:	ebfff8f2 	bl	30006f44 <printf_>
30008b78:	e59f0140 	ldr	r0, [pc, #320]	; 30008cc0 <.text+0x8cc0>
30008b7c:	ebfff8f0 	bl	30006f44 <printf_>
30008b80:	e59f013c 	ldr	r0, [pc, #316]	; 30008cc4 <.text+0x8cc4>
30008b84:	ebfff8ee 	bl	30006f44 <printf_>
30008b88:	e59f0138 	ldr	r0, [pc, #312]	; 30008cc8 <.text+0x8cc8>
30008b8c:	ebfff8ec 	bl	30006f44 <printf_>
30008b90:	e59f0134 	ldr	r0, [pc, #308]	; 30008ccc <.text+0x8ccc>
30008b94:	ebfff8ea 	bl	30006f44 <printf_>
30008b98:	e59f0130 	ldr	r0, [pc, #304]	; 30008cd0 <.text+0x8cd0>
30008b9c:	ebfff8e8 	bl	30006f44 <printf_>
30008ba0:	ebffe326 	bl	30001840 <S3C2440_Uart0_Getchar>
30008ba4:	e1a03000 	mov	r3, r0
30008ba8:	e54b300d 	strb	r3, [fp, #-13]
30008bac:	e55b300d 	ldrb	r3, [fp, #-13]
30008bb0:	e59f011c 	ldr	r0, [pc, #284]	; 30008cd4 <.text+0x8cd4>
30008bb4:	e1a01003 	mov	r1, r3
30008bb8:	ebfff8e1 	bl	30006f44 <printf_>
30008bbc:	e55b300d 	ldrb	r3, [fp, #-13]
30008bc0:	e2433045 	sub	r3, r3, #69	; 0x45
30008bc4:	e3530032 	cmp	r3, #50	; 0x32
30008bc8:	979ff103 	ldrls	pc, [pc, r3, lsl #2]
30008bcc:	ea000039 	b	30008cb8 <.text+0x8cb8>
30008bd0:	30008ca4 	andcc	r8, r0, r4, lsr #25
30008bd4:	30008cb8 	strcch	r8, [r0], -r8
30008bd8:	30008cb8 	strcch	r8, [r0], -r8
30008bdc:	30008cb8 	strcch	r8, [r0], -r8
30008be0:	30008cb8 	strcch	r8, [r0], -r8
30008be4:	30008cb8 	strcch	r8, [r0], -r8
30008be8:	30008cb8 	strcch	r8, [r0], -r8
30008bec:	30008cb8 	strcch	r8, [r0], -r8
30008bf0:	30008cb8 	strcch	r8, [r0], -r8
30008bf4:	30008cb8 	strcch	r8, [r0], -r8
30008bf8:	30008cb8 	strcch	r8, [r0], -r8
30008bfc:	30008cb8 	strcch	r8, [r0], -r8
30008c00:	30008cb8 	strcch	r8, [r0], -r8
30008c04:	30008cb4 	strcch	r8, [r0], -r4
30008c08:	30008c9c 	mulcc	r0, ip, ip
30008c0c:	30008cb8 	strcch	r8, [r0], -r8
30008c10:	30008cb8 	strcch	r8, [r0], -r8
30008c14:	30008cb8 	strcch	r8, [r0], -r8
30008c18:	30008cac 	andcc	r8, r0, ip, lsr #25
30008c1c:	30008cb8 	strcch	r8, [r0], -r8
30008c20:	30008cb8 	strcch	r8, [r0], -r8
30008c24:	30008cb8 	strcch	r8, [r0], -r8
30008c28:	30008cb8 	strcch	r8, [r0], -r8
30008c2c:	30008cb8 	strcch	r8, [r0], -r8
30008c30:	30008cb8 	strcch	r8, [r0], -r8
30008c34:	30008cb8 	strcch	r8, [r0], -r8
30008c38:	30008cb8 	strcch	r8, [r0], -r8
30008c3c:	30008cb8 	strcch	r8, [r0], -r8
30008c40:	30008cb8 	strcch	r8, [r0], -r8
30008c44:	30008cb8 	strcch	r8, [r0], -r8
30008c48:	30008cb8 	strcch	r8, [r0], -r8
30008c4c:	30008cb8 	strcch	r8, [r0], -r8
30008c50:	30008ca4 	andcc	r8, r0, r4, lsr #25
30008c54:	30008cb8 	strcch	r8, [r0], -r8
30008c58:	30008cb8 	strcch	r8, [r0], -r8
30008c5c:	30008cb8 	strcch	r8, [r0], -r8
30008c60:	30008cb8 	strcch	r8, [r0], -r8
30008c64:	30008cb8 	strcch	r8, [r0], -r8
30008c68:	30008cb8 	strcch	r8, [r0], -r8
30008c6c:	30008cb8 	strcch	r8, [r0], -r8
30008c70:	30008cb8 	strcch	r8, [r0], -r8
30008c74:	30008cb8 	strcch	r8, [r0], -r8
30008c78:	30008cb8 	strcch	r8, [r0], -r8
30008c7c:	30008cb8 	strcch	r8, [r0], -r8
30008c80:	30008cb8 	strcch	r8, [r0], -r8
30008c84:	30008cb4 	strcch	r8, [r0], -r4
30008c88:	30008c9c 	mulcc	r0, ip, ip
30008c8c:	30008cb8 	strcch	r8, [r0], -r8
30008c90:	30008cb8 	strcch	r8, [r0], -r8
30008c94:	30008cb8 	strcch	r8, [r0], -r8
30008c98:	30008cac 	andcc	r8, r0, ip, lsr #25
30008c9c:	ebfffe57 	bl	30008600 <S3C2440_NorFlash_doScanNorFlash>
30008ca0:	ea000004 	b	30008cb8 <.text+0x8cb8>
30008ca4:	ebffff10 	bl	300088ec <S3C2440_NorFlash_doEraseNorFlash>
30008ca8:	ea000002 	b	30008cb8 <.text+0x8cb8>
30008cac:	ebffff1e 	bl	3000892c <S3C2440_NorFlash_doWriteNorFlash>
30008cb0:	ea000000 	b	30008cb8 <.text+0x8cb8>
30008cb4:	ebffff3f 	bl	300089b8 <S3C2440_NorFlash_doReadNorFlash>
30008cb8:	e89da808 	ldmia	sp, {r3, fp, sp, pc}
30008cbc:	3000c8f0 	strccd	ip, [r0], -r0
30008cc0:	3000c908 	andcc	ip, r0, r8, lsl #18
30008cc4:	3000c920 	andcc	ip, r0, r0, lsr #18
30008cc8:	3000c938 	andcc	ip, r0, r8, lsr r9
30008ccc:	3000c950 	andcc	ip, r0, r0, asr r9
30008cd0:	3000c964 	andcc	ip, r0, r4, ror #18
30008cd4:	3000c978 	andcc	ip, r0, r8, ror r9

30008cd8 <S3C2440_LCDTest>:
30008cd8:	e1a0c00d 	mov	ip, sp
30008cdc:	e92dd800 	stmdb	sp!, {fp, ip, lr, pc}
30008ce0:	e24cb004 	sub	fp, ip, #4	; 0x4
30008ce4:	e24dd01c 	sub	sp, sp, #28	; 0x1c
30008ce8:	ebffea75 	bl	300036c4 <LCD_Init>
30008cec:	ebffea61 	bl	30003678 <LCD_enable>
30008cf0:	e59f092c 	ldr	r0, [pc, #2348]	; 30009624 <.text+0x9624>
30008cf4:	e59f192c 	ldr	r1, [pc, #2348]	; 30009628 <.text+0x9628>
30008cf8:	e59f292c 	ldr	r2, [pc, #2348]	; 3000962c <.text+0x962c>
30008cfc:	e59f392c 	ldr	r3, [pc, #2348]	; 30009630 <.text+0x9630>
30008d00:	ebffea95 	bl	3000375c <LCD_Get_Params>
30008d04:	e59f391c 	ldr	r3, [pc, #2332]	; 30009628 <.text+0x9628>
30008d08:	e5933008 	ldr	r3, [r3, #8]
30008d0c:	e50b3024 	str	r3, [fp, #-36]
30008d10:	e51b0024 	ldr	r0, [fp, #-36]
30008d14:	e3500010 	cmp	r0, #16	; 0x10
30008d18:	0a000097 	beq	30008f7c <S3C2440_LCDTest+0x2a4>
30008d1c:	e51b3024 	ldr	r3, [fp, #-36]
30008d20:	e3530010 	cmp	r3, #16	; 0x10
30008d24:	ca000003 	bgt	30008d38 <S3C2440_LCDTest+0x60>
30008d28:	e51b0024 	ldr	r0, [fp, #-36]
30008d2c:	e3500008 	cmp	r0, #8	; 0x8
30008d30:	0a000004 	beq	30008d48 <S3C2440_LCDTest+0x70>
30008d34:	ea0001a2 	b	300093c4 <S3C2440_LCDTest+0x6ec>
30008d38:	e51b3024 	ldr	r3, [fp, #-36]
30008d3c:	e3530020 	cmp	r3, #32	; 0x20
30008d40:	0a000116 	beq	300091a0 <S3C2440_LCDTest+0x4c8>
30008d44:	ea00019e 	b	300093c4 <S3C2440_LCDTest+0x6ec>
30008d48:	e59f38d8 	ldr	r3, [pc, #2264]	; 30009628 <.text+0x9628>
30008d4c:	e593300c 	ldr	r3, [r3, #12]
30008d50:	e50b3010 	str	r3, [fp, #-16]
30008d54:	e3a03000 	mov	r3, #0	; 0x0
30008d58:	e50b301c 	str	r3, [fp, #-28]
30008d5c:	e59f38c4 	ldr	r3, [pc, #2244]	; 30009628 <.text+0x9628>
30008d60:	e5932000 	ldr	r2, [r3]
30008d64:	e51b301c 	ldr	r3, [fp, #-28]
30008d68:	e1520003 	cmp	r2, r3
30008d6c:	da000015 	ble	30008dc8 <S3C2440_LCDTest+0xf0>
30008d70:	e3a03000 	mov	r3, #0	; 0x0
30008d74:	e50b3020 	str	r3, [fp, #-32]
30008d78:	e59f38a8 	ldr	r3, [pc, #2216]	; 30009628 <.text+0x9628>
30008d7c:	e5932004 	ldr	r2, [r3, #4]
30008d80:	e51b3020 	ldr	r3, [fp, #-32]
30008d84:	e1520003 	cmp	r2, r3
30008d88:	da00000a 	ble	30008db8 <S3C2440_LCDTest+0xe0>
30008d8c:	e24b0010 	sub	r0, fp, #16	; 0x10
30008d90:	e5902000 	ldr	r2, [r0]
30008d94:	e1a01002 	mov	r1, r2
30008d98:	e3a0300c 	mov	r3, #12	; 0xc
30008d9c:	e5c13000 	strb	r3, [r1]
30008da0:	e2822001 	add	r2, r2, #1	; 0x1
30008da4:	e5802000 	str	r2, [r0]
30008da8:	e51b3020 	ldr	r3, [fp, #-32]
30008dac:	e2833001 	add	r3, r3, #1	; 0x1
30008db0:	e50b3020 	str	r3, [fp, #-32]
30008db4:	eaffffef 	b	30008d78 <S3C2440_LCDTest+0xa0>
30008db8:	e51b301c 	ldr	r3, [fp, #-28]
30008dbc:	e2833001 	add	r3, r3, #1	; 0x1
30008dc0:	e50b301c 	str	r3, [fp, #-28]
30008dc4:	eaffffe4 	b	30008d5c <S3C2440_LCDTest+0x84>
30008dc8:	e3e004ff 	mvn	r0, #-16777216	; 0xff000000
30008dcc:	e240073f 	sub	r0, r0, #16515072	; 0xfc0000
30008dd0:	ebfffcb4 	bl	300080a8 <delay_simulate>
30008dd4:	e59f384c 	ldr	r3, [pc, #2124]	; 30009628 <.text+0x9628>
30008dd8:	e593300c 	ldr	r3, [r3, #12]
30008ddc:	e50b3010 	str	r3, [fp, #-16]
30008de0:	e3a03000 	mov	r3, #0	; 0x0
30008de4:	e50b3020 	str	r3, [fp, #-32]
30008de8:	e59f3838 	ldr	r3, [pc, #2104]	; 30009628 <.text+0x9628>
30008dec:	e5932000 	ldr	r2, [r3]
30008df0:	e51b3020 	ldr	r3, [fp, #-32]
30008df4:	e1520003 	cmp	r2, r3
30008df8:	da000015 	ble	30008e54 <S3C2440_LCDTest+0x17c>
30008dfc:	e3a03000 	mov	r3, #0	; 0x0
30008e00:	e50b301c 	str	r3, [fp, #-28]
30008e04:	e59f381c 	ldr	r3, [pc, #2076]	; 30009628 <.text+0x9628>
30008e08:	e5932004 	ldr	r2, [r3, #4]
30008e0c:	e51b301c 	ldr	r3, [fp, #-28]
30008e10:	e1520003 	cmp	r2, r3
30008e14:	da00000a 	ble	30008e44 <S3C2440_LCDTest+0x16c>
30008e18:	e24b0010 	sub	r0, fp, #16	; 0x10
30008e1c:	e5902000 	ldr	r2, [r0]
30008e20:	e1a01002 	mov	r1, r2
30008e24:	e3a0302f 	mov	r3, #47	; 0x2f
30008e28:	e5c13000 	strb	r3, [r1]
30008e2c:	e2822001 	add	r2, r2, #1	; 0x1
30008e30:	e5802000 	str	r2, [r0]
30008e34:	e51b301c 	ldr	r3, [fp, #-28]
30008e38:	e2833001 	add	r3, r3, #1	; 0x1
30008e3c:	e50b301c 	str	r3, [fp, #-28]
30008e40:	eaffffef 	b	30008e04 <S3C2440_LCDTest+0x12c>
30008e44:	e51b3020 	ldr	r3, [fp, #-32]
30008e48:	e2833001 	add	r3, r3, #1	; 0x1
30008e4c:	e50b3020 	str	r3, [fp, #-32]
30008e50:	eaffffe4 	b	30008de8 <S3C2440_LCDTest+0x110>
30008e54:	e3e004ff 	mvn	r0, #-16777216	; 0xff000000
30008e58:	e240073f 	sub	r0, r0, #16515072	; 0xfc0000
30008e5c:	ebfffc91 	bl	300080a8 <delay_simulate>
30008e60:	e59f37c0 	ldr	r3, [pc, #1984]	; 30009628 <.text+0x9628>
30008e64:	e593300c 	ldr	r3, [r3, #12]
30008e68:	e50b3010 	str	r3, [fp, #-16]
30008e6c:	e3a03000 	mov	r3, #0	; 0x0
30008e70:	e50b3020 	str	r3, [fp, #-32]
30008e74:	e59f37ac 	ldr	r3, [pc, #1964]	; 30009628 <.text+0x9628>
30008e78:	e5932000 	ldr	r2, [r3]
30008e7c:	e51b3020 	ldr	r3, [fp, #-32]
30008e80:	e1520003 	cmp	r2, r3
30008e84:	da000015 	ble	30008ee0 <S3C2440_LCDTest+0x208>
30008e88:	e3a03000 	mov	r3, #0	; 0x0
30008e8c:	e50b301c 	str	r3, [fp, #-28]
30008e90:	e59f3790 	ldr	r3, [pc, #1936]	; 30009628 <.text+0x9628>
30008e94:	e5932004 	ldr	r2, [r3, #4]
30008e98:	e51b301c 	ldr	r3, [fp, #-28]
30008e9c:	e1520003 	cmp	r2, r3
30008ea0:	da00000a 	ble	30008ed0 <S3C2440_LCDTest+0x1f8>
30008ea4:	e24b0010 	sub	r0, fp, #16	; 0x10
30008ea8:	e5902000 	ldr	r2, [r0]
30008eac:	e1a01002 	mov	r1, r2
30008eb0:	e3a03058 	mov	r3, #88	; 0x58
30008eb4:	e5c13000 	strb	r3, [r1]
30008eb8:	e2822001 	add	r2, r2, #1	; 0x1
30008ebc:	e5802000 	str	r2, [r0]
30008ec0:	e51b301c 	ldr	r3, [fp, #-28]
30008ec4:	e2833001 	add	r3, r3, #1	; 0x1
30008ec8:	e50b301c 	str	r3, [fp, #-28]
30008ecc:	eaffffef 	b	30008e90 <S3C2440_LCDTest+0x1b8>
30008ed0:	e51b3020 	ldr	r3, [fp, #-32]
30008ed4:	e2833001 	add	r3, r3, #1	; 0x1
30008ed8:	e50b3020 	str	r3, [fp, #-32]
30008edc:	eaffffe4 	b	30008e74 <S3C2440_LCDTest+0x19c>
30008ee0:	e3e004ff 	mvn	r0, #-16777216	; 0xff000000
30008ee4:	e240073f 	sub	r0, r0, #16515072	; 0xfc0000
30008ee8:	ebfffc6e 	bl	300080a8 <delay_simulate>
30008eec:	e59f3734 	ldr	r3, [pc, #1844]	; 30009628 <.text+0x9628>
30008ef0:	e593300c 	ldr	r3, [r3, #12]
30008ef4:	e50b3010 	str	r3, [fp, #-16]
30008ef8:	e3a03000 	mov	r3, #0	; 0x0
30008efc:	e50b3020 	str	r3, [fp, #-32]
30008f00:	e59f3720 	ldr	r3, [pc, #1824]	; 30009628 <.text+0x9628>
30008f04:	e5932000 	ldr	r2, [r3]
30008f08:	e51b3020 	ldr	r3, [fp, #-32]
30008f0c:	e1520003 	cmp	r2, r3
30008f10:	da000015 	ble	30008f6c <S3C2440_LCDTest+0x294>
30008f14:	e3a03000 	mov	r3, #0	; 0x0
30008f18:	e50b301c 	str	r3, [fp, #-28]
30008f1c:	e59f3704 	ldr	r3, [pc, #1796]	; 30009628 <.text+0x9628>
30008f20:	e5932004 	ldr	r2, [r3, #4]
30008f24:	e51b301c 	ldr	r3, [fp, #-28]
30008f28:	e1520003 	cmp	r2, r3
30008f2c:	da00000a 	ble	30008f5c <S3C2440_LCDTest+0x284>
30008f30:	e24b0010 	sub	r0, fp, #16	; 0x10
30008f34:	e5902000 	ldr	r2, [r0]
30008f38:	e1a01002 	mov	r1, r2
30008f3c:	e3a03000 	mov	r3, #0	; 0x0
30008f40:	e5c13000 	strb	r3, [r1]
30008f44:	e2822001 	add	r2, r2, #1	; 0x1
30008f48:	e5802000 	str	r2, [r0]
30008f4c:	e51b301c 	ldr	r3, [fp, #-28]
30008f50:	e2833001 	add	r3, r3, #1	; 0x1
30008f54:	e50b301c 	str	r3, [fp, #-28]
30008f58:	eaffffef 	b	30008f1c <S3C2440_LCDTest+0x244>
30008f5c:	e51b3020 	ldr	r3, [fp, #-32]
30008f60:	e2833001 	add	r3, r3, #1	; 0x1
30008f64:	e50b3020 	str	r3, [fp, #-32]
30008f68:	eaffffe4 	b	30008f00 <S3C2440_LCDTest+0x228>
30008f6c:	e3e004ff 	mvn	r0, #-16777216	; 0xff000000
30008f70:	e240073f 	sub	r0, r0, #16515072	; 0xfc0000
30008f74:	ebfffc4b 	bl	300080a8 <delay_simulate>
30008f78:	ea000111 	b	300093c4 <S3C2440_LCDTest+0x6ec>
30008f7c:	e59f36a4 	ldr	r3, [pc, #1700]	; 30009628 <.text+0x9628>
30008f80:	e593300c 	ldr	r3, [r3, #12]
30008f84:	e50b3014 	str	r3, [fp, #-20]
30008f88:	e3a03000 	mov	r3, #0	; 0x0
30008f8c:	e50b3020 	str	r3, [fp, #-32]
30008f90:	e59f3690 	ldr	r3, [pc, #1680]	; 30009628 <.text+0x9628>
30008f94:	e5932000 	ldr	r2, [r3]
30008f98:	e51b3020 	ldr	r3, [fp, #-32]
30008f9c:	e1520003 	cmp	r2, r3
30008fa0:	da000015 	ble	30008ffc <S3C2440_LCDTest+0x324>
30008fa4:	e3a03000 	mov	r3, #0	; 0x0
30008fa8:	e50b301c 	str	r3, [fp, #-28]
30008fac:	e59f3674 	ldr	r3, [pc, #1652]	; 30009628 <.text+0x9628>
30008fb0:	e5932004 	ldr	r2, [r3, #4]
30008fb4:	e51b301c 	ldr	r3, [fp, #-28]
30008fb8:	e1520003 	cmp	r2, r3
30008fbc:	da00000a 	ble	30008fec <S3C2440_LCDTest+0x314>
30008fc0:	e24b0014 	sub	r0, fp, #20	; 0x14
30008fc4:	e5902000 	ldr	r2, [r0]
30008fc8:	e1a01002 	mov	r1, r2
30008fcc:	e3a03b3e 	mov	r3, #63488	; 0xf800
30008fd0:	e1c130b0 	strh	r3, [r1]
30008fd4:	e2822002 	add	r2, r2, #2	; 0x2
30008fd8:	e5802000 	str	r2, [r0]
30008fdc:	e51b301c 	ldr	r3, [fp, #-28]
30008fe0:	e2833001 	add	r3, r3, #1	; 0x1
30008fe4:	e50b301c 	str	r3, [fp, #-28]
30008fe8:	eaffffef 	b	30008fac <S3C2440_LCDTest+0x2d4>
30008fec:	e51b3020 	ldr	r3, [fp, #-32]
30008ff0:	e2833001 	add	r3, r3, #1	; 0x1
30008ff4:	e50b3020 	str	r3, [fp, #-32]
30008ff8:	eaffffe4 	b	30008f90 <S3C2440_LCDTest+0x2b8>
30008ffc:	e3e004ff 	mvn	r0, #-16777216	; 0xff000000
30009000:	e240073f 	sub	r0, r0, #16515072	; 0xfc0000
30009004:	ebfffc27 	bl	300080a8 <delay_simulate>
30009008:	e59f3618 	ldr	r3, [pc, #1560]	; 30009628 <.text+0x9628>
3000900c:	e593300c 	ldr	r3, [r3, #12]
30009010:	e50b3014 	str	r3, [fp, #-20]
30009014:	e3a03000 	mov	r3, #0	; 0x0
30009018:	e50b3020 	str	r3, [fp, #-32]
3000901c:	e59f3604 	ldr	r3, [pc, #1540]	; 30009628 <.text+0x9628>
30009020:	e5932000 	ldr	r2, [r3]
30009024:	e51b3020 	ldr	r3, [fp, #-32]
30009028:	e1520003 	cmp	r2, r3
3000902c:	da000015 	ble	30009088 <S3C2440_LCDTest+0x3b0>
30009030:	e3a03000 	mov	r3, #0	; 0x0
30009034:	e50b301c 	str	r3, [fp, #-28]
30009038:	e59f35e8 	ldr	r3, [pc, #1512]	; 30009628 <.text+0x9628>
3000903c:	e5932004 	ldr	r2, [r3, #4]
30009040:	e51b301c 	ldr	r3, [fp, #-28]
30009044:	e1520003 	cmp	r2, r3
30009048:	da00000a 	ble	30009078 <S3C2440_LCDTest+0x3a0>
3000904c:	e24b0014 	sub	r0, fp, #20	; 0x14
30009050:	e5902000 	ldr	r2, [r0]
30009054:	e1a01002 	mov	r1, r2
30009058:	e3a03e7e 	mov	r3, #2016	; 0x7e0
3000905c:	e1c130b0 	strh	r3, [r1]
30009060:	e2822002 	add	r2, r2, #2	; 0x2
30009064:	e5802000 	str	r2, [r0]
30009068:	e51b301c 	ldr	r3, [fp, #-28]
3000906c:	e2833001 	add	r3, r3, #1	; 0x1
30009070:	e50b301c 	str	r3, [fp, #-28]
30009074:	eaffffef 	b	30009038 <S3C2440_LCDTest+0x360>
30009078:	e51b3020 	ldr	r3, [fp, #-32]
3000907c:	e2833001 	add	r3, r3, #1	; 0x1
30009080:	e50b3020 	str	r3, [fp, #-32]
30009084:	eaffffe4 	b	3000901c <S3C2440_LCDTest+0x344>
30009088:	e3e004ff 	mvn	r0, #-16777216	; 0xff000000
3000908c:	e240073f 	sub	r0, r0, #16515072	; 0xfc0000
30009090:	ebfffc04 	bl	300080a8 <delay_simulate>
30009094:	e59f358c 	ldr	r3, [pc, #1420]	; 30009628 <.text+0x9628>
30009098:	e593300c 	ldr	r3, [r3, #12]
3000909c:	e50b3014 	str	r3, [fp, #-20]
300090a0:	e3a03000 	mov	r3, #0	; 0x0
300090a4:	e50b3020 	str	r3, [fp, #-32]
300090a8:	e59f3578 	ldr	r3, [pc, #1400]	; 30009628 <.text+0x9628>
300090ac:	e5932000 	ldr	r2, [r3]
300090b0:	e51b3020 	ldr	r3, [fp, #-32]
300090b4:	e1520003 	cmp	r2, r3
300090b8:	da000015 	ble	30009114 <S3C2440_LCDTest+0x43c>
300090bc:	e3a03000 	mov	r3, #0	; 0x0
300090c0:	e50b301c 	str	r3, [fp, #-28]
300090c4:	e59f355c 	ldr	r3, [pc, #1372]	; 30009628 <.text+0x9628>
300090c8:	e5932004 	ldr	r2, [r3, #4]
300090cc:	e51b301c 	ldr	r3, [fp, #-28]
300090d0:	e1520003 	cmp	r2, r3
300090d4:	da00000a 	ble	30009104 <S3C2440_LCDTest+0x42c>
300090d8:	e24b0014 	sub	r0, fp, #20	; 0x14
300090dc:	e5902000 	ldr	r2, [r0]
300090e0:	e1a01002 	mov	r1, r2
300090e4:	e3a0301f 	mov	r3, #31	; 0x1f
300090e8:	e1c130b0 	strh	r3, [r1]
300090ec:	e2822002 	add	r2, r2, #2	; 0x2
300090f0:	e5802000 	str	r2, [r0]
300090f4:	e51b301c 	ldr	r3, [fp, #-28]
300090f8:	e2833001 	add	r3, r3, #1	; 0x1
300090fc:	e50b301c 	str	r3, [fp, #-28]
30009100:	eaffffef 	b	300090c4 <S3C2440_LCDTest+0x3ec>
30009104:	e51b3020 	ldr	r3, [fp, #-32]
30009108:	e2833001 	add	r3, r3, #1	; 0x1
3000910c:	e50b3020 	str	r3, [fp, #-32]
30009110:	eaffffe4 	b	300090a8 <S3C2440_LCDTest+0x3d0>
30009114:	e3e004ff 	mvn	r0, #-16777216	; 0xff000000
30009118:	e240073f 	sub	r0, r0, #16515072	; 0xfc0000
3000911c:	ebfffbe1 	bl	300080a8 <delay_simulate>
30009120:	e59f3500 	ldr	r3, [pc, #1280]	; 30009628 <.text+0x9628>
30009124:	e593300c 	ldr	r3, [r3, #12]
30009128:	e50b3014 	str	r3, [fp, #-20]
3000912c:	e3a03000 	mov	r3, #0	; 0x0
30009130:	e50b3020 	str	r3, [fp, #-32]
30009134:	e59f34ec 	ldr	r3, [pc, #1260]	; 30009628 <.text+0x9628>
30009138:	e5932000 	ldr	r2, [r3]
3000913c:	e51b3020 	ldr	r3, [fp, #-32]
30009140:	e1520003 	cmp	r2, r3
30009144:	da00009e 	ble	300093c4 <S3C2440_LCDTest+0x6ec>
30009148:	e3a03000 	mov	r3, #0	; 0x0
3000914c:	e50b301c 	str	r3, [fp, #-28]
30009150:	e59f34d0 	ldr	r3, [pc, #1232]	; 30009628 <.text+0x9628>
30009154:	e5932004 	ldr	r2, [r3, #4]
30009158:	e51b301c 	ldr	r3, [fp, #-28]
3000915c:	e1520003 	cmp	r2, r3
30009160:	da00000a 	ble	30009190 <S3C2440_LCDTest+0x4b8>
30009164:	e24b0014 	sub	r0, fp, #20	; 0x14
30009168:	e5902000 	ldr	r2, [r0]
3000916c:	e1a01002 	mov	r1, r2
30009170:	e3a03000 	mov	r3, #0	; 0x0
30009174:	e1c130b0 	strh	r3, [r1]
30009178:	e2822002 	add	r2, r2, #2	; 0x2
3000917c:	e5802000 	str	r2, [r0]
30009180:	e51b301c 	ldr	r3, [fp, #-28]
30009184:	e2833001 	add	r3, r3, #1	; 0x1
30009188:	e50b301c 	str	r3, [fp, #-28]
3000918c:	eaffffef 	b	30009150 <S3C2440_LCDTest+0x478>
30009190:	e51b3020 	ldr	r3, [fp, #-32]
30009194:	e2833001 	add	r3, r3, #1	; 0x1
30009198:	e50b3020 	str	r3, [fp, #-32]
3000919c:	eaffffe4 	b	30009134 <S3C2440_LCDTest+0x45c>
300091a0:	e59f3480 	ldr	r3, [pc, #1152]	; 30009628 <.text+0x9628>
300091a4:	e593300c 	ldr	r3, [r3, #12]
300091a8:	e50b3018 	str	r3, [fp, #-24]
300091ac:	e3a03000 	mov	r3, #0	; 0x0
300091b0:	e50b3020 	str	r3, [fp, #-32]
300091b4:	e59f346c 	ldr	r3, [pc, #1132]	; 30009628 <.text+0x9628>
300091b8:	e5932000 	ldr	r2, [r3]
300091bc:	e51b3020 	ldr	r3, [fp, #-32]
300091c0:	e1520003 	cmp	r2, r3
300091c4:	da000015 	ble	30009220 <S3C2440_LCDTest+0x548>
300091c8:	e3a03000 	mov	r3, #0	; 0x0
300091cc:	e50b301c 	str	r3, [fp, #-28]
300091d0:	e59f3450 	ldr	r3, [pc, #1104]	; 30009628 <.text+0x9628>
300091d4:	e5932004 	ldr	r2, [r3, #4]
300091d8:	e51b301c 	ldr	r3, [fp, #-28]
300091dc:	e1520003 	cmp	r2, r3
300091e0:	da00000a 	ble	30009210 <S3C2440_LCDTest+0x538>
300091e4:	e24b0018 	sub	r0, fp, #24	; 0x18
300091e8:	e5903000 	ldr	r3, [r0]
300091ec:	e1a01003 	mov	r1, r3
300091f0:	e3a028ff 	mov	r2, #16711680	; 0xff0000
300091f4:	e5812000 	str	r2, [r1]
300091f8:	e2833004 	add	r3, r3, #4	; 0x4
300091fc:	e5803000 	str	r3, [r0]
30009200:	e51b301c 	ldr	r3, [fp, #-28]
30009204:	e2833001 	add	r3, r3, #1	; 0x1
30009208:	e50b301c 	str	r3, [fp, #-28]
3000920c:	eaffffef 	b	300091d0 <S3C2440_LCDTest+0x4f8>
30009210:	e51b3020 	ldr	r3, [fp, #-32]
30009214:	e2833001 	add	r3, r3, #1	; 0x1
30009218:	e50b3020 	str	r3, [fp, #-32]
3000921c:	eaffffe4 	b	300091b4 <S3C2440_LCDTest+0x4dc>
30009220:	e3e004ff 	mvn	r0, #-16777216	; 0xff000000
30009224:	e240073f 	sub	r0, r0, #16515072	; 0xfc0000
30009228:	ebfffb9e 	bl	300080a8 <delay_simulate>
3000922c:	e59f33f4 	ldr	r3, [pc, #1012]	; 30009628 <.text+0x9628>
30009230:	e593300c 	ldr	r3, [r3, #12]
30009234:	e50b3018 	str	r3, [fp, #-24]
30009238:	e3a03000 	mov	r3, #0	; 0x0
3000923c:	e50b3020 	str	r3, [fp, #-32]
30009240:	e59f33e0 	ldr	r3, [pc, #992]	; 30009628 <.text+0x9628>
30009244:	e5932000 	ldr	r2, [r3]
30009248:	e51b3020 	ldr	r3, [fp, #-32]
3000924c:	e1520003 	cmp	r2, r3
30009250:	da000015 	ble	300092ac <S3C2440_LCDTest+0x5d4>
30009254:	e3a03000 	mov	r3, #0	; 0x0
30009258:	e50b301c 	str	r3, [fp, #-28]
3000925c:	e59f33c4 	ldr	r3, [pc, #964]	; 30009628 <.text+0x9628>
30009260:	e5932004 	ldr	r2, [r3, #4]
30009264:	e51b301c 	ldr	r3, [fp, #-28]
30009268:	e1520003 	cmp	r2, r3
3000926c:	da00000a 	ble	3000929c <S3C2440_LCDTest+0x5c4>
30009270:	e24b0018 	sub	r0, fp, #24	; 0x18
30009274:	e5903000 	ldr	r3, [r0]
30009278:	e1a01003 	mov	r1, r3
3000927c:	e3a02cff 	mov	r2, #65280	; 0xff00
30009280:	e5812000 	str	r2, [r1]
30009284:	e2833004 	add	r3, r3, #4	; 0x4
30009288:	e5803000 	str	r3, [r0]
3000928c:	e51b301c 	ldr	r3, [fp, #-28]
30009290:	e2833001 	add	r3, r3, #1	; 0x1
30009294:	e50b301c 	str	r3, [fp, #-28]
30009298:	eaffffef 	b	3000925c <S3C2440_LCDTest+0x584>
3000929c:	e51b3020 	ldr	r3, [fp, #-32]
300092a0:	e2833001 	add	r3, r3, #1	; 0x1
300092a4:	e50b3020 	str	r3, [fp, #-32]
300092a8:	eaffffe4 	b	30009240 <S3C2440_LCDTest+0x568>
300092ac:	e3e004ff 	mvn	r0, #-16777216	; 0xff000000
300092b0:	e240073f 	sub	r0, r0, #16515072	; 0xfc0000
300092b4:	ebfffb7b 	bl	300080a8 <delay_simulate>
300092b8:	e59f3368 	ldr	r3, [pc, #872]	; 30009628 <.text+0x9628>
300092bc:	e593300c 	ldr	r3, [r3, #12]
300092c0:	e50b3018 	str	r3, [fp, #-24]
300092c4:	e3a03000 	mov	r3, #0	; 0x0
300092c8:	e50b3020 	str	r3, [fp, #-32]
300092cc:	e59f3354 	ldr	r3, [pc, #852]	; 30009628 <.text+0x9628>
300092d0:	e5932000 	ldr	r2, [r3]
300092d4:	e51b3020 	ldr	r3, [fp, #-32]
300092d8:	e1520003 	cmp	r2, r3
300092dc:	da000015 	ble	30009338 <S3C2440_LCDTest+0x660>
300092e0:	e3a03000 	mov	r3, #0	; 0x0
300092e4:	e50b301c 	str	r3, [fp, #-28]
300092e8:	e59f3338 	ldr	r3, [pc, #824]	; 30009628 <.text+0x9628>
300092ec:	e5932004 	ldr	r2, [r3, #4]
300092f0:	e51b301c 	ldr	r3, [fp, #-28]
300092f4:	e1520003 	cmp	r2, r3
300092f8:	da00000a 	ble	30009328 <S3C2440_LCDTest+0x650>
300092fc:	e24b0018 	sub	r0, fp, #24	; 0x18
30009300:	e5903000 	ldr	r3, [r0]
30009304:	e1a01003 	mov	r1, r3
30009308:	e3a020ff 	mov	r2, #255	; 0xff
3000930c:	e5812000 	str	r2, [r1]
30009310:	e2833004 	add	r3, r3, #4	; 0x4
30009314:	e5803000 	str	r3, [r0]
30009318:	e51b301c 	ldr	r3, [fp, #-28]
3000931c:	e2833001 	add	r3, r3, #1	; 0x1
30009320:	e50b301c 	str	r3, [fp, #-28]
30009324:	eaffffef 	b	300092e8 <S3C2440_LCDTest+0x610>
30009328:	e51b3020 	ldr	r3, [fp, #-32]
3000932c:	e2833001 	add	r3, r3, #1	; 0x1
30009330:	e50b3020 	str	r3, [fp, #-32]
30009334:	eaffffe4 	b	300092cc <S3C2440_LCDTest+0x5f4>
30009338:	e3e004ff 	mvn	r0, #-16777216	; 0xff000000
3000933c:	e240073f 	sub	r0, r0, #16515072	; 0xfc0000
30009340:	ebfffb58 	bl	300080a8 <delay_simulate>
30009344:	e59f32dc 	ldr	r3, [pc, #732]	; 30009628 <.text+0x9628>
30009348:	e593300c 	ldr	r3, [r3, #12]
3000934c:	e50b3018 	str	r3, [fp, #-24]
30009350:	e3a03000 	mov	r3, #0	; 0x0
30009354:	e50b3020 	str	r3, [fp, #-32]
30009358:	e59f32c8 	ldr	r3, [pc, #712]	; 30009628 <.text+0x9628>
3000935c:	e5932000 	ldr	r2, [r3]
30009360:	e51b3020 	ldr	r3, [fp, #-32]
30009364:	e1520003 	cmp	r2, r3
30009368:	da000015 	ble	300093c4 <S3C2440_LCDTest+0x6ec>
3000936c:	e3a03000 	mov	r3, #0	; 0x0
30009370:	e50b301c 	str	r3, [fp, #-28]
30009374:	e59f32ac 	ldr	r3, [pc, #684]	; 30009628 <.text+0x9628>
30009378:	e5932004 	ldr	r2, [r3, #4]
3000937c:	e51b301c 	ldr	r3, [fp, #-28]
30009380:	e1520003 	cmp	r2, r3
30009384:	da00000a 	ble	300093b4 <S3C2440_LCDTest+0x6dc>
30009388:	e24b0018 	sub	r0, fp, #24	; 0x18
3000938c:	e5903000 	ldr	r3, [r0]
30009390:	e1a01003 	mov	r1, r3
30009394:	e3a02000 	mov	r2, #0	; 0x0
30009398:	e5812000 	str	r2, [r1]
3000939c:	e2833004 	add	r3, r3, #4	; 0x4
300093a0:	e5803000 	str	r3, [r0]
300093a4:	e51b301c 	ldr	r3, [fp, #-28]
300093a8:	e2833001 	add	r3, r3, #1	; 0x1
300093ac:	e50b301c 	str	r3, [fp, #-28]
300093b0:	eaffffef 	b	30009374 <S3C2440_LCDTest+0x69c>
300093b4:	e51b3020 	ldr	r3, [fp, #-32]
300093b8:	e2833001 	add	r3, r3, #1	; 0x1
300093bc:	e50b3020 	str	r3, [fp, #-32]
300093c0:	eaffffe4 	b	30009358 <S3C2440_LCDTest+0x680>
300093c4:	e3e004ff 	mvn	r0, #-16777216	; 0xff000000
300093c8:	e240073f 	sub	r0, r0, #16515072	; 0xfc0000
300093cc:	ebfffb35 	bl	300080a8 <delay_simulate>
300093d0:	e3a008ff 	mov	r0, #16711680	; 0xff0000
300093d4:	ebffe5d3 	bl	30002b28 <LCD_Geometry_ClearScr>
300093d8:	e3e004ff 	mvn	r0, #-16777216	; 0xff000000
300093dc:	e24008fe 	sub	r0, r0, #16646144	; 0xfe0000
300093e0:	ebfffb30 	bl	300080a8 <delay_simulate>
300093e4:	e3a00cff 	mov	r0, #65280	; 0xff00
300093e8:	ebffe5ce 	bl	30002b28 <LCD_Geometry_ClearScr>
300093ec:	e3e004ff 	mvn	r0, #-16777216	; 0xff000000
300093f0:	e24008fe 	sub	r0, r0, #16646144	; 0xfe0000
300093f4:	ebfffb2b 	bl	300080a8 <delay_simulate>
300093f8:	e3a000ff 	mov	r0, #255	; 0xff
300093fc:	ebffe5c9 	bl	30002b28 <LCD_Geometry_ClearScr>
30009400:	e3e004ff 	mvn	r0, #-16777216	; 0xff000000
30009404:	e24008fe 	sub	r0, r0, #16646144	; 0xfe0000
30009408:	ebfffb26 	bl	300080a8 <delay_simulate>
3000940c:	e3a00000 	mov	r0, #0	; 0x0
30009410:	ebffe5c4 	bl	30002b28 <LCD_Geometry_ClearScr>
30009414:	e3e004ff 	mvn	r0, #-16777216	; 0xff000000
30009418:	e240073f 	sub	r0, r0, #16515072	; 0xfc0000
3000941c:	ebfffb21 	bl	300080a8 <delay_simulate>
30009420:	e59f3200 	ldr	r3, [pc, #512]	; 30009628 <.text+0x9628>
30009424:	e5933000 	ldr	r3, [r3]
30009428:	e2432001 	sub	r2, r3, #1	; 0x1
3000942c:	e3e034ff 	mvn	r3, #-16777216	; 0xff000000
30009430:	e2433737 	sub	r3, r3, #14417920	; 0xdc0000
30009434:	e2433088 	sub	r3, r3, #136	; 0x88
30009438:	e58d3000 	str	r3, [sp]
3000943c:	e3a00000 	mov	r0, #0	; 0x0
30009440:	e3a01000 	mov	r1, #0	; 0x0
30009444:	e3a03000 	mov	r3, #0	; 0x0
30009448:	ebffe65d 	bl	30002dc4 <LCD_Geometry_Draw_Line>
3000944c:	e59f31d4 	ldr	r3, [pc, #468]	; 30009628 <.text+0x9628>
30009450:	e5933000 	ldr	r3, [r3]
30009454:	e2432001 	sub	r2, r3, #1	; 0x1
30009458:	e59f31c8 	ldr	r3, [pc, #456]	; 30009628 <.text+0x9628>
3000945c:	e5933000 	ldr	r3, [r3]
30009460:	e243c001 	sub	ip, r3, #1	; 0x1
30009464:	e59f31bc 	ldr	r3, [pc, #444]	; 30009628 <.text+0x9628>
30009468:	e5933004 	ldr	r3, [r3, #4]
3000946c:	e243e001 	sub	lr, r3, #1	; 0x1
30009470:	e3a03cff 	mov	r3, #65280	; 0xff00
30009474:	e28330ff 	add	r3, r3, #255	; 0xff
30009478:	e58d3000 	str	r3, [sp]
3000947c:	e1a00002 	mov	r0, r2
30009480:	e3a01000 	mov	r1, #0	; 0x0
30009484:	e1a0200c 	mov	r2, ip
30009488:	e1a0300e 	mov	r3, lr
3000948c:	ebffe64c 	bl	30002dc4 <LCD_Geometry_Draw_Line>
30009490:	e59f3190 	ldr	r3, [pc, #400]	; 30009628 <.text+0x9628>
30009494:	e5933004 	ldr	r3, [r3, #4]
30009498:	e2431001 	sub	r1, r3, #1	; 0x1
3000949c:	e59f3184 	ldr	r3, [pc, #388]	; 30009628 <.text+0x9628>
300094a0:	e5933000 	ldr	r3, [r3]
300094a4:	e2432001 	sub	r2, r3, #1	; 0x1
300094a8:	e59f3178 	ldr	r3, [pc, #376]	; 30009628 <.text+0x9628>
300094ac:	e5933004 	ldr	r3, [r3, #4]
300094b0:	e243c001 	sub	ip, r3, #1	; 0x1
300094b4:	e3a038ff 	mov	r3, #16711680	; 0xff0000
300094b8:	e28330aa 	add	r3, r3, #170	; 0xaa
300094bc:	e58d3000 	str	r3, [sp]
300094c0:	e3a00000 	mov	r0, #0	; 0x0
300094c4:	e1a0300c 	mov	r3, ip
300094c8:	ebffe63d 	bl	30002dc4 <LCD_Geometry_Draw_Line>
300094cc:	e59f3154 	ldr	r3, [pc, #340]	; 30009628 <.text+0x9628>
300094d0:	e5933004 	ldr	r3, [r3, #4]
300094d4:	e243c001 	sub	ip, r3, #1	; 0x1
300094d8:	e3a038ff 	mov	r3, #16711680	; 0xff0000
300094dc:	e28330ef 	add	r3, r3, #239	; 0xef
300094e0:	e58d3000 	str	r3, [sp]
300094e4:	e3a00000 	mov	r0, #0	; 0x0
300094e8:	e3a01000 	mov	r1, #0	; 0x0
300094ec:	e3a02000 	mov	r2, #0	; 0x0
300094f0:	e1a0300c 	mov	r3, ip
300094f4:	ebffe632 	bl	30002dc4 <LCD_Geometry_Draw_Line>
300094f8:	e59f3128 	ldr	r3, [pc, #296]	; 30009628 <.text+0x9628>
300094fc:	e5933000 	ldr	r3, [r3]
30009500:	e2432001 	sub	r2, r3, #1	; 0x1
30009504:	e59f311c 	ldr	r3, [pc, #284]	; 30009628 <.text+0x9628>
30009508:	e5933004 	ldr	r3, [r3, #4]
3000950c:	e243c001 	sub	ip, r3, #1	; 0x1
30009510:	e3a03cff 	mov	r3, #65280	; 0xff00
30009514:	e2833045 	add	r3, r3, #69	; 0x45
30009518:	e58d3000 	str	r3, [sp]
3000951c:	e3a00000 	mov	r0, #0	; 0x0
30009520:	e3a01000 	mov	r1, #0	; 0x0
30009524:	e1a0300c 	mov	r3, ip
30009528:	ebffe625 	bl	30002dc4 <LCD_Geometry_Draw_Line>
3000952c:	e59f30f4 	ldr	r3, [pc, #244]	; 30009628 <.text+0x9628>
30009530:	e5933000 	ldr	r3, [r3]
30009534:	e2432001 	sub	r2, r3, #1	; 0x1
30009538:	e59f30e8 	ldr	r3, [pc, #232]	; 30009628 <.text+0x9628>
3000953c:	e5933004 	ldr	r3, [r3, #4]
30009540:	e243c001 	sub	ip, r3, #1	; 0x1
30009544:	e3a038ff 	mov	r3, #16711680	; 0xff0000
30009548:	e2833d1e 	add	r3, r3, #1920	; 0x780
3000954c:	e58d3000 	str	r3, [sp]
30009550:	e1a00002 	mov	r0, r2
30009554:	e3a01000 	mov	r1, #0	; 0x0
30009558:	e3a02000 	mov	r2, #0	; 0x0
3000955c:	e1a0300c 	mov	r3, ip
30009560:	ebffe617 	bl	30002dc4 <LCD_Geometry_Draw_Line>
30009564:	e3e004ff 	mvn	r0, #-16777216	; 0xff000000
30009568:	e240073f 	sub	r0, r0, #16515072	; 0xfc0000
3000956c:	ebfffacd 	bl	300080a8 <delay_simulate>
30009570:	e59f30b0 	ldr	r3, [pc, #176]	; 30009628 <.text+0x9628>
30009574:	e5932000 	ldr	r2, [r3]
30009578:	e1a03fc2 	mov	r3, r2, asr #31
3000957c:	e1a03fa3 	mov	r3, r3, lsr #31
30009580:	e0823003 	add	r3, r2, r3
30009584:	e1a000c3 	mov	r0, r3, asr #1
30009588:	e59f3098 	ldr	r3, [pc, #152]	; 30009628 <.text+0x9628>
3000958c:	e5932004 	ldr	r2, [r3, #4]
30009590:	e1a03fc2 	mov	r3, r2, asr #31
30009594:	e1a03fa3 	mov	r3, r3, lsr #31
30009598:	e0823003 	add	r3, r2, r3
3000959c:	e1a010c3 	mov	r1, r3, asr #1
300095a0:	e59f3080 	ldr	r3, [pc, #128]	; 30009628 <.text+0x9628>
300095a4:	e5932004 	ldr	r2, [r3, #4]
300095a8:	e1a03fc2 	mov	r3, r2, asr #31
300095ac:	e1a03f23 	mov	r3, r3, lsr #30
300095b0:	e0823003 	add	r3, r2, r3
300095b4:	e1a03143 	mov	r3, r3, asr #2
300095b8:	e1a02003 	mov	r2, r3
300095bc:	e3a030ff 	mov	r3, #255	; 0xff
300095c0:	ebffe57a 	bl	30002bb0 <LCD_Geometry_Draw_Circle>
300095c4:	e3e004ff 	mvn	r0, #-16777216	; 0xff000000
300095c8:	e240073f 	sub	r0, r0, #16515072	; 0xfc0000
300095cc:	ebfffab5 	bl	300080a8 <delay_simulate>
300095d0:	e3a00000 	mov	r0, #0	; 0x0
300095d4:	ebffe553 	bl	30002b28 <LCD_Geometry_ClearScr>
300095d8:	e59f3048 	ldr	r3, [pc, #72]	; 30009628 <.text+0x9628>
300095dc:	e5932000 	ldr	r2, [r3]
300095e0:	e59f304c 	ldr	r3, [pc, #76]	; 30009634 <.text+0x9634>
300095e4:	e0c10293 	smull	r0, r1, r3, r2
300095e8:	e1a03fc2 	mov	r3, r2, asr #31
300095ec:	e0631001 	rsb	r1, r3, r1
300095f0:	e59f3030 	ldr	r3, [pc, #48]	; 30009628 <.text+0x9628>
300095f4:	e5932004 	ldr	r2, [r3, #4]
300095f8:	e1a03fc2 	mov	r3, r2, asr #31
300095fc:	e1a03fa3 	mov	r3, r3, lsr #31
30009600:	e0823003 	add	r3, r2, r3
30009604:	e1a030c3 	mov	r3, r3, asr #1
30009608:	e1a00001 	mov	r0, r1
3000960c:	e1a01003 	mov	r1, r3
30009610:	e59f2020 	ldr	r2, [pc, #32]	; 30009638 <.text+0x9638>
30009614:	e3a038ff 	mov	r3, #16711680	; 0xff0000
30009618:	ebffe495 	bl	30002874 <LCD_Font_Print_string>
3000961c:	e24bd00c 	sub	sp, fp, #12	; 0xc
30009620:	e89da800 	ldmia	sp, {fp, sp, pc}
30009624:	3000d018 	andcc	sp, r0, r8, lsl r0
30009628:	3000d00c 	andcc	sp, r0, ip
3000962c:	3000d010 	andcc	sp, r0, r0, lsl r0
30009630:	3000d014 	andcc	sp, r0, r4, lsl r0
30009634:	55555556 	ldrplb	r5, [r5, #-1366]
30009638:	3000c980 	andcc	ip, r0, r0, lsl #19

3000963c <__subdf3>:
3000963c:	e2222102 	eor	r2, r2, #-2147483648	; 0x80000000

30009640 <__adddf3>:
30009640:	e1310003 	teq	r1, r3
30009644:	0020c002 	eoreq	ip, r0, r2
30009648:	033c0102 	teqeq	ip, #-2147483648	; 0x80000000
3000964c:	0a00009e 	beq	300098cc <__adddf3+0x28c>
30009650:	e191c080 	orrs	ip, r1, r0, lsl #1
30009654:	01a01003 	moveq	r1, r3
30009658:	01a00002 	moveq	r0, r2
3000965c:	1193c082 	orrnes	ip, r3, r2, lsl #1
30009660:	01a0f00e 	moveq	pc, lr
30009664:	e92d4030 	stmdb	sp!, {r4, r5, lr}
30009668:	e3a0c47f 	mov	ip, #2130706432	; 0x7f000000
3000966c:	e38cc60f 	orr	ip, ip, #15728640	; 0xf00000
30009670:	e000400c 	and	r4, r0, ip
30009674:	e002500c 	and	r5, r2, ip
30009678:	e134000c 	teq	r4, ip
3000967c:	1135000c 	teqne	r5, ip
30009680:	0a00009c 	beq	300098f8 <__adddf3+0x2b8>
30009684:	e0555004 	subs	r5, r5, r4
30009688:	b2655000 	rsblt	r5, r5, #0	; 0x0
3000968c:	da000006 	ble	300096ac <__adddf3+0x6c>
30009690:	e0844005 	add	r4, r4, r5
30009694:	e0213003 	eor	r3, r1, r3
30009698:	e0202002 	eor	r2, r0, r2
3000969c:	e0231001 	eor	r1, r3, r1
300096a0:	e0220000 	eor	r0, r2, r0
300096a4:	e0213003 	eor	r3, r1, r3
300096a8:	e0202002 	eor	r2, r0, r2
300096ac:	e3550636 	cmp	r5, #56623104	; 0x3600000
300096b0:	88bd8030 	ldmhiia	sp!, {r4, r5, pc}
300096b4:	e3100102 	tst	r0, #-2147483648	; 0x80000000
300096b8:	e1c0008c 	bic	r0, r0, ip, lsl #1
300096bc:	e3800601 	orr	r0, r0, #1048576	; 0x100000
300096c0:	0a000001 	beq	300096cc <__adddf3+0x8c>
300096c4:	e2711000 	rsbs	r1, r1, #0	; 0x0
300096c8:	e2e00000 	rsc	r0, r0, #0	; 0x0
300096cc:	e3120102 	tst	r2, #-2147483648	; 0x80000000
300096d0:	e1c2208c 	bic	r2, r2, ip, lsl #1
300096d4:	e3822601 	orr	r2, r2, #1048576	; 0x100000
300096d8:	0a000001 	beq	300096e4 <__adddf3+0xa4>
300096dc:	e2733000 	rsbs	r3, r3, #0	; 0x0
300096e0:	e2e22000 	rsc	r2, r2, #0	; 0x0
300096e4:	e1340005 	teq	r4, r5
300096e8:	0a000071 	beq	300098b4 <__adddf3+0x274>
300096ec:	e3a0c000 	mov	ip, #0	; 0x0
300096f0:	e1b05a25 	movs	r5, r5, lsr #20
300096f4:	0a000013 	beq	30009748 <__adddf3+0x108>
300096f8:	e3340601 	teq	r4, #1048576	; 0x100000
300096fc:	0a000004 	beq	30009714 <__adddf3+0xd4>
30009700:	e1b01081 	movs	r1, r1, lsl #1
30009704:	e0ac0080 	adc	r0, ip, r0, lsl #1
30009708:	e2444601 	sub	r4, r4, #1048576	; 0x100000
3000970c:	e2555001 	subs	r5, r5, #1	; 0x1
30009710:	0a00000c 	beq	30009748 <__adddf3+0x108>
30009714:	e275e020 	rsbs	lr, r5, #32	; 0x20
30009718:	ba000004 	blt	30009730 <__adddf3+0xf0>
3000971c:	e1a0ce13 	mov	ip, r3, lsl lr
30009720:	e1a03533 	mov	r3, r3, lsr r5
30009724:	e1833e12 	orr	r3, r3, r2, lsl lr
30009728:	e1a02552 	mov	r2, r2, asr r5
3000972c:	ea000005 	b	30009748 <__adddf3+0x108>
30009730:	e2455020 	sub	r5, r5, #32	; 0x20
30009734:	e28ee020 	add	lr, lr, #32	; 0x20
30009738:	e3530001 	cmp	r3, #1	; 0x1
3000973c:	e0acce12 	adc	ip, ip, r2, lsl lr
30009740:	e1a03552 	mov	r3, r2, asr r5
30009744:	e1a02042 	mov	r2, r2, asr #32
30009748:	e0911003 	adds	r1, r1, r3
3000974c:	e0a00002 	adc	r0, r0, r2
30009750:	e2105102 	ands	r5, r0, #-2147483648	; 0x80000000
30009754:	5a000002 	bpl	30009764 <__adddf3+0x124>
30009758:	e27cc000 	rsbs	ip, ip, #0	; 0x0
3000975c:	e2f11000 	rscs	r1, r1, #0	; 0x0
30009760:	e2e00000 	rsc	r0, r0, #0	; 0x0
30009764:	e3500601 	cmp	r0, #1048576	; 0x100000
30009768:	3a000019 	bcc	300097d4 <__adddf3+0x194>
3000976c:	e3500602 	cmp	r0, #2097152	; 0x200000
30009770:	3a00000b 	bcc	300097a4 <__adddf3+0x164>
30009774:	e3500501 	cmp	r0, #4194304	; 0x400000
30009778:	3a000004 	bcc	30009790 <__adddf3+0x150>
3000977c:	e1b000a0 	movs	r0, r0, lsr #1
30009780:	e1b01061 	movs	r1, r1, rrx
30009784:	e1b0c06c 	movs	ip, ip, rrx
30009788:	238cc001 	orrcs	ip, ip, #1	; 0x1
3000978c:	e2844601 	add	r4, r4, #1048576	; 0x100000
30009790:	e1b000a0 	movs	r0, r0, lsr #1
30009794:	e1b01061 	movs	r1, r1, rrx
30009798:	e1b0c06c 	movs	ip, ip, rrx
3000979c:	238cc001 	orrcs	ip, ip, #1	; 0x1
300097a0:	e2844601 	add	r4, r4, #1048576	; 0x100000
300097a4:	e0911fac 	adds	r1, r1, ip, lsr #31
300097a8:	e2a00000 	adc	r0, r0, #0	; 0x0
300097ac:	e33c0102 	teq	ip, #-2147483648	; 0x80000000
300097b0:	03c11001 	biceq	r1, r1, #1	; 0x1
300097b4:	e3100602 	tst	r0, #2097152	; 0x200000
300097b8:	12844601 	addne	r4, r4, #1048576	; 0x100000
300097bc:	e294c601 	adds	ip, r4, #1048576	; 0x100000
300097c0:	4a000048 	bmi	300098e8 <__adddf3+0x2a8>
300097c4:	e3c00603 	bic	r0, r0, #3145728	; 0x300000
300097c8:	e1800004 	orr	r0, r0, r4
300097cc:	e1800005 	orr	r0, r0, r5
300097d0:	e8bd8030 	ldmia	sp!, {r4, r5, pc}
300097d4:	e3300000 	teq	r0, #0	; 0x0
300097d8:	13e0300a 	mvnne	r3, #10	; 0xa
300097dc:	03a03015 	moveq	r3, #21	; 0x15
300097e0:	01a00001 	moveq	r0, r1
300097e4:	03a01000 	moveq	r1, #0	; 0x0
300097e8:	e1a02000 	mov	r2, r0
300097ec:	e1b0c820 	movs	ip, r0, lsr #16
300097f0:	01a02802 	moveq	r2, r2, lsl #16
300097f4:	02833010 	addeq	r3, r3, #16	; 0x10
300097f8:	e31204ff 	tst	r2, #-16777216	; 0xff000000
300097fc:	01a02402 	moveq	r2, r2, lsl #8
30009800:	02833008 	addeq	r3, r3, #8	; 0x8
30009804:	e312020f 	tst	r2, #-268435456	; 0xf0000000
30009808:	01a02202 	moveq	r2, r2, lsl #4
3000980c:	02833004 	addeq	r3, r3, #4	; 0x4
30009810:	e3120103 	tst	r2, #-1073741824	; 0xc0000000
30009814:	01a02102 	moveq	r2, r2, lsl #2
30009818:	02833002 	addeq	r3, r3, #2	; 0x2
3000981c:	e3120102 	tst	r2, #-2147483648	; 0x80000000
30009820:	02833001 	addeq	r3, r3, #1	; 0x1
30009824:	e2532020 	subs	r2, r3, #32	; 0x20
30009828:	aa000007 	bge	3000984c <__adddf3+0x20c>
3000982c:	e292200c 	adds	r2, r2, #12	; 0xc
30009830:	da000004 	ble	30009848 <__adddf3+0x208>
30009834:	e282c014 	add	ip, r2, #20	; 0x14
30009838:	e262200c 	rsb	r2, r2, #12	; 0xc
3000983c:	e1a01c10 	mov	r1, r0, lsl ip
30009840:	e1a00230 	mov	r0, r0, lsr r2
30009844:	ea000004 	b	3000985c <__adddf3+0x21c>
30009848:	e2822014 	add	r2, r2, #20	; 0x14
3000984c:	d262c020 	rsble	ip, r2, #32	; 0x20
30009850:	e1a00210 	mov	r0, r0, lsl r2
30009854:	d1800c31 	orrle	r0, r0, r1, lsr ip
30009858:	d1a01211 	movle	r1, r1, lsl r2
3000985c:	e0544a03 	subs	r4, r4, r3, lsl #20
30009860:	caffffd7 	bgt	300097c4 <__adddf3+0x184>
30009864:	e1e04a44 	mvn	r4, r4, asr #20
30009868:	e254401e 	subs	r4, r4, #30	; 0x1e
3000986c:	aa00000d 	bge	300098a8 <__adddf3+0x268>
30009870:	e294400c 	adds	r4, r4, #12	; 0xc
30009874:	ca000005 	bgt	30009890 <__adddf3+0x250>
30009878:	e2844014 	add	r4, r4, #20	; 0x14
3000987c:	e2642020 	rsb	r2, r4, #32	; 0x20
30009880:	e1a01431 	mov	r1, r1, lsr r4
30009884:	e1811210 	orr	r1, r1, r0, lsl r2
30009888:	e1850430 	orr	r0, r5, r0, lsr r4
3000988c:	e8bd8030 	ldmia	sp!, {r4, r5, pc}
30009890:	e264400c 	rsb	r4, r4, #12	; 0xc
30009894:	e2642020 	rsb	r2, r4, #32	; 0x20
30009898:	e1a01231 	mov	r1, r1, lsr r2
3000989c:	e1811410 	orr	r1, r1, r0, lsl r4
300098a0:	e1a00005 	mov	r0, r5
300098a4:	e8bd8030 	ldmia	sp!, {r4, r5, pc}
300098a8:	e1a01430 	mov	r1, r0, lsr r4
300098ac:	e1a00005 	mov	r0, r5
300098b0:	e8bd8030 	ldmia	sp!, {r4, r5, pc}
300098b4:	e3340000 	teq	r4, #0	; 0x0
300098b8:	02200601 	eoreq	r0, r0, #1048576	; 0x100000
300098bc:	02844601 	addeq	r4, r4, #1048576	; 0x100000
300098c0:	e2222601 	eor	r2, r2, #1048576	; 0x100000
300098c4:	12455601 	subne	r5, r5, #1048576	; 0x100000
300098c8:	eaffff87 	b	300096ec <__adddf3+0xac>
300098cc:	e24cc601 	sub	ip, ip, #1048576	; 0x100000
300098d0:	e000200c 	and	r2, r0, ip
300098d4:	e132000c 	teq	r2, ip
300098d8:	038c0702 	orreq	r0, ip, #524288	; 0x80000
300098dc:	13a00000 	movne	r0, #0	; 0x0
300098e0:	e3a01000 	mov	r1, #0	; 0x0
300098e4:	e1a0f00e 	mov	pc, lr
300098e8:	e385047f 	orr	r0, r5, #2130706432	; 0x7f000000
300098ec:	e380060f 	orr	r0, r0, #15728640	; 0xf00000
300098f0:	e3a01000 	mov	r1, #0	; 0x0
300098f4:	e8bd8030 	ldmia	sp!, {r4, r5, pc}
300098f8:	e134000c 	teq	r4, ip
300098fc:	11a00002 	movne	r0, r2
30009900:	11a01003 	movne	r1, r3
30009904:	0135000c 	teqeq	r5, ip
30009908:	18bd8030 	ldmneia	sp!, {r4, r5, pc}
3000990c:	e1914600 	orrs	r4, r1, r0, lsl #12
30009910:	01934602 	orreqs	r4, r3, r2, lsl #12
30009914:	01300002 	teqeq	r0, r2
30009918:	13850702 	orrne	r0, r5, #524288	; 0x80000
3000991c:	13a01000 	movne	r1, #0	; 0x0
30009920:	e8bd8030 	ldmia	sp!, {r4, r5, pc}

30009924 <__floatunsidf>:
30009924:	e3300000 	teq	r0, #0	; 0x0
30009928:	03a01000 	moveq	r1, #0	; 0x0
3000992c:	01a0f00e 	moveq	pc, lr
30009930:	e92d4030 	stmdb	sp!, {r4, r5, lr}
30009934:	e3a04101 	mov	r4, #1073741824	; 0x40000000
30009938:	e2844633 	add	r4, r4, #53477376	; 0x3300000
3000993c:	e3a05000 	mov	r5, #0	; 0x0
30009940:	e1a01000 	mov	r1, r0
30009944:	e3a00000 	mov	r0, #0	; 0x0
30009948:	eaffffa1 	b	300097d4 <__adddf3+0x194>

3000994c <__floatsidf>:
3000994c:	e3300000 	teq	r0, #0	; 0x0
30009950:	03a01000 	moveq	r1, #0	; 0x0
30009954:	01a0f00e 	moveq	pc, lr
30009958:	e92d4030 	stmdb	sp!, {r4, r5, lr}
3000995c:	e3a04101 	mov	r4, #1073741824	; 0x40000000
30009960:	e2844633 	add	r4, r4, #53477376	; 0x3300000
30009964:	e2105102 	ands	r5, r0, #-2147483648	; 0x80000000
30009968:	42600000 	rsbmi	r0, r0, #0	; 0x0
3000996c:	e1a01000 	mov	r1, r0
30009970:	e3a00000 	mov	r0, #0	; 0x0
30009974:	eaffff96 	b	300097d4 <__adddf3+0x194>

30009978 <__extendsfdf2>:
30009978:	e1b02080 	movs	r2, r0, lsl #1
3000997c:	0a000007 	beq	300099a0 <__extendsfdf2+0x28>
30009980:	e1a001c2 	mov	r0, r2, asr #3
30009984:	e1a00060 	mov	r0, r0, rrx
30009988:	e1a01e02 	mov	r1, r2, lsl #28
3000998c:	e21224ff 	ands	r2, r2, #-16777216	; 0xff000000
30009990:	0a000005 	beq	300099ac <__extendsfdf2+0x34>
30009994:	e33204ff 	teq	r2, #-16777216	; 0xff000000
30009998:	1220030e 	eorne	r0, r0, #939524096	; 0x38000000
3000999c:	e1a0f00e 	mov	pc, lr
300099a0:	e1a00000 	nop			(mov r0,r0)
300099a4:	e3a01000 	mov	r1, #0	; 0x0
300099a8:	e1a0f00e 	mov	pc, lr
300099ac:	e92d4030 	stmdb	sp!, {r4, r5, lr}
300099b0:	e3a0430e 	mov	r4, #939524096	; 0x38000000
300099b4:	e2844601 	add	r4, r4, #1048576	; 0x100000
300099b8:	e2005102 	and	r5, r0, #-2147483648	; 0x80000000
300099bc:	e3c00102 	bic	r0, r0, #-2147483648	; 0x80000000
300099c0:	eaffff83 	b	300097d4 <__adddf3+0x194>

300099c4 <__muldf3>:
300099c4:	e92d4070 	stmdb	sp!, {r4, r5, r6, lr}
300099c8:	e3a0c47f 	mov	ip, #2130706432	; 0x7f000000
300099cc:	e38cc60f 	orr	ip, ip, #15728640	; 0xf00000
300099d0:	e000400c 	and	r4, r0, ip
300099d4:	e002500c 	and	r5, r2, ip
300099d8:	e134000c 	teq	r4, ip
300099dc:	1135000c 	teqne	r5, ip
300099e0:	0a0000a8 	beq	30009c88 <__muldf3+0x2c4>
300099e4:	e1916080 	orrs	r6, r1, r0, lsl #1
300099e8:	11936082 	orrnes	r6, r3, r2, lsl #1
300099ec:	0a00005e 	beq	30009b6c <__muldf3+0x1a8>
300099f0:	e1b040a4 	movs	r4, r4, lsr #1
300099f4:	13350000 	teqne	r5, #0	; 0x0
300099f8:	0a00008e 	beq	30009c38 <__muldf3+0x274>
300099fc:	e08440c5 	add	r4, r4, r5, asr #1
30009a00:	e1300002 	teq	r0, r2
30009a04:	43844902 	orrmi	r4, r4, #32768	; 0x8000
30009a08:	e1c0008c 	bic	r0, r0, ip, lsl #1
30009a0c:	e1c2208c 	bic	r2, r2, ip, lsl #1
30009a10:	e3800601 	orr	r0, r0, #1048576	; 0x100000
30009a14:	e3822601 	orr	r2, r2, #1048576	; 0x100000
30009a18:	e92d0f80 	stmdb	sp!, {r7, r8, r9, sl, fp}
30009a1c:	e1a07821 	mov	r7, r1, lsr #16
30009a20:	e1a08823 	mov	r8, r3, lsr #16
30009a24:	e1a09820 	mov	r9, r0, lsr #16
30009a28:	e1a0a822 	mov	sl, r2, lsr #16
30009a2c:	e1c11807 	bic	r1, r1, r7, lsl #16
30009a30:	e1c33808 	bic	r3, r3, r8, lsl #16
30009a34:	e1c00809 	bic	r0, r0, r9, lsl #16
30009a38:	e1c2280a 	bic	r2, r2, sl, lsl #16
30009a3c:	e00c0391 	mul	ip, r1, r3
30009a40:	e00b0891 	mul	fp, r1, r8
30009a44:	e3a0e000 	mov	lr, #0	; 0x0
30009a48:	e09cc80b 	adds	ip, ip, fp, lsl #16
30009a4c:	e0aee82b 	adc	lr, lr, fp, lsr #16
30009a50:	e00b0397 	mul	fp, r7, r3
30009a54:	e09cc80b 	adds	ip, ip, fp, lsl #16
30009a58:	e0aee82b 	adc	lr, lr, fp, lsr #16
30009a5c:	e00b0a91 	mul	fp, r1, sl
30009a60:	e3a05000 	mov	r5, #0	; 0x0
30009a64:	e09ee80b 	adds	lr, lr, fp, lsl #16
30009a68:	e0a5582b 	adc	r5, r5, fp, lsr #16
30009a6c:	e00b0297 	mul	fp, r7, r2
30009a70:	e09ee80b 	adds	lr, lr, fp, lsl #16
30009a74:	e0a5582b 	adc	r5, r5, fp, lsr #16
30009a78:	e00b0890 	mul	fp, r0, r8
30009a7c:	e09ee80b 	adds	lr, lr, fp, lsl #16
30009a80:	e0a5582b 	adc	r5, r5, fp, lsr #16
30009a84:	e00b0399 	mul	fp, r9, r3
30009a88:	e09ee80b 	adds	lr, lr, fp, lsl #16
30009a8c:	e0a5582b 	adc	r5, r5, fp, lsr #16
30009a90:	e00b0a90 	mul	fp, r0, sl
30009a94:	e0060a99 	mul	r6, r9, sl
30009a98:	e095580b 	adds	r5, r5, fp, lsl #16
30009a9c:	e0a6682b 	adc	r6, r6, fp, lsr #16
30009aa0:	e00b0299 	mul	fp, r9, r2
30009aa4:	e095580b 	adds	r5, r5, fp, lsl #16
30009aa8:	e0a6682b 	adc	r6, r6, fp, lsr #16
30009aac:	e00b0291 	mul	fp, r1, r2
30009ab0:	e09ee00b 	adds	lr, lr, fp
30009ab4:	e00b0a97 	mul	fp, r7, sl
30009ab8:	e0b5500b 	adcs	r5, r5, fp
30009abc:	e00b0390 	mul	fp, r0, r3
30009ac0:	e2a66000 	adc	r6, r6, #0	; 0x0
30009ac4:	e09ee00b 	adds	lr, lr, fp
30009ac8:	e00b0899 	mul	fp, r9, r8
30009acc:	e0b5500b 	adcs	r5, r5, fp
30009ad0:	e00b0897 	mul	fp, r7, r8
30009ad4:	e2a66000 	adc	r6, r6, #0	; 0x0
30009ad8:	e09ee00b 	adds	lr, lr, fp
30009adc:	e00b0290 	mul	fp, r0, r2
30009ae0:	e0b5500b 	adcs	r5, r5, fp
30009ae4:	e2a66000 	adc	r6, r6, #0	; 0x0
30009ae8:	e8bd0f80 	ldmia	sp!, {r7, r8, r9, sl, fp}
30009aec:	e33c0000 	teq	ip, #0	; 0x0
30009af0:	138ee001 	orrne	lr, lr, #1	; 0x1
30009af4:	e1a00804 	mov	r0, r4, lsl #16
30009af8:	e3c44902 	bic	r4, r4, #32768	; 0x8000
30009afc:	e3160c02 	tst	r6, #512	; 0x200
30009b00:	0a000004 	beq	30009b18 <__muldf3+0x154>
30009b04:	e2844702 	add	r4, r4, #524288	; 0x80000
30009b08:	e1b060a6 	movs	r6, r6, lsr #1
30009b0c:	e1b05065 	movs	r5, r5, rrx
30009b10:	e1b0e06e 	movs	lr, lr, rrx
30009b14:	238ee001 	orrcs	lr, lr, #1	; 0x1
30009b18:	e1800606 	orr	r0, r0, r6, lsl #12
30009b1c:	e1800a25 	orr	r0, r0, r5, lsr #20
30009b20:	e1a01605 	mov	r1, r5, lsl #12
30009b24:	e1811a2e 	orr	r1, r1, lr, lsr #20
30009b28:	e244473e 	sub	r4, r4, #16252928	; 0xf80000
30009b2c:	e254441f 	subs	r4, r4, #520093696	; 0x1f000000
30009b30:	da000011 	ble	30009b7c <__muldf3+0x1b8>
30009b34:	e1b0e60e 	movs	lr, lr, lsl #12
30009b38:	5a000005 	bpl	30009b54 <__muldf3+0x190>
30009b3c:	e2911001 	adds	r1, r1, #1	; 0x1
30009b40:	e2a00000 	adc	r0, r0, #0	; 0x0
30009b44:	e33e0102 	teq	lr, #-2147483648	; 0x80000000
30009b48:	03c11001 	biceq	r1, r1, #1	; 0x1
30009b4c:	e3100602 	tst	r0, #2097152	; 0x200000
30009b50:	12844702 	addne	r4, r4, #524288	; 0x80000
30009b54:	e294c702 	adds	ip, r4, #524288	; 0x80000
30009b58:	e31c0101 	tst	ip, #1073741824	; 0x40000000
30009b5c:	1a000055 	bne	30009cb8 <__muldf3+0x2f4>
30009b60:	e3c00603 	bic	r0, r0, #3145728	; 0x300000
30009b64:	e1800084 	orr	r0, r0, r4, lsl #1
30009b68:	e8bd8070 	ldmia	sp!, {r4, r5, r6, pc}
30009b6c:	e0200002 	eor	r0, r0, r2
30009b70:	e2000102 	and	r0, r0, #-2147483648	; 0x80000000
30009b74:	e3a01000 	mov	r1, #0	; 0x0
30009b78:	e8bd8070 	ldmia	sp!, {r4, r5, r6, pc}
30009b7c:	e374076a 	cmn	r4, #27787264	; 0x1a80000
30009b80:	d3a01000 	movle	r1, #0	; 0x0
30009b84:	d2000102 	andle	r0, r0, #-2147483648	; 0x80000000
30009b88:	d8bd8070 	ldmleia	sp!, {r4, r5, r6, pc}
30009b8c:	e1e049c4 	mvn	r4, r4, asr #19
30009b90:	e254401e 	subs	r4, r4, #30	; 0x1e
30009b94:	aa00001b 	bge	30009c08 <__muldf3+0x244>
30009b98:	e294400c 	adds	r4, r4, #12	; 0xc
30009b9c:	ca00000d 	bgt	30009bd8 <__muldf3+0x214>
30009ba0:	e2844014 	add	r4, r4, #20	; 0x14
30009ba4:	e2645020 	rsb	r5, r4, #32	; 0x20
30009ba8:	e1a03511 	mov	r3, r1, lsl r5
30009bac:	e1a01431 	mov	r1, r1, lsr r4
30009bb0:	e1811510 	orr	r1, r1, r0, lsl r5
30009bb4:	e1b00080 	movs	r0, r0, lsl #1
30009bb8:	e1a00430 	mov	r0, r0, lsr r4
30009bbc:	e1a00060 	mov	r0, r0, rrx
30009bc0:	e0911fa3 	adds	r1, r1, r3, lsr #31
30009bc4:	e2a00000 	adc	r0, r0, #0	; 0x0
30009bc8:	e33e0000 	teq	lr, #0	; 0x0
30009bcc:	03330102 	teqeq	r3, #-2147483648	; 0x80000000
30009bd0:	03c11001 	biceq	r1, r1, #1	; 0x1
30009bd4:	e8bd8070 	ldmia	sp!, {r4, r5, r6, pc}
30009bd8:	e264400c 	rsb	r4, r4, #12	; 0xc
30009bdc:	e2645020 	rsb	r5, r4, #32	; 0x20
30009be0:	e1a03411 	mov	r3, r1, lsl r4
30009be4:	e1a01531 	mov	r1, r1, lsr r5
30009be8:	e1811410 	orr	r1, r1, r0, lsl r4
30009bec:	e2000102 	and	r0, r0, #-2147483648	; 0x80000000
30009bf0:	e0911fa3 	adds	r1, r1, r3, lsr #31
30009bf4:	e2a00000 	adc	r0, r0, #0	; 0x0
30009bf8:	e33e0000 	teq	lr, #0	; 0x0
30009bfc:	03330102 	teqeq	r3, #-2147483648	; 0x80000000
30009c00:	03c11001 	biceq	r1, r1, #1	; 0x1
30009c04:	e8bd8070 	ldmia	sp!, {r4, r5, r6, pc}
30009c08:	e2645020 	rsb	r5, r4, #32	; 0x20
30009c0c:	e1a06511 	mov	r6, r1, lsl r5
30009c10:	e1a03431 	mov	r3, r1, lsr r4
30009c14:	e1833510 	orr	r3, r3, r0, lsl r5
30009c18:	e1a01430 	mov	r1, r0, lsr r4
30009c1c:	e2000102 	and	r0, r0, #-2147483648	; 0x80000000
30009c20:	e1c11430 	bic	r1, r1, r0, lsr r4
30009c24:	e0811fa3 	add	r1, r1, r3, lsr #31
30009c28:	e196600e 	orrs	r6, r6, lr
30009c2c:	03330102 	teqeq	r3, #-2147483648	; 0x80000000
30009c30:	03c11001 	biceq	r1, r1, #1	; 0x1
30009c34:	e8bd8070 	ldmia	sp!, {r4, r5, r6, pc}
30009c38:	e3a0e000 	mov	lr, #0	; 0x0
30009c3c:	e3340000 	teq	r4, #0	; 0x0
30009c40:	1a000008 	bne	30009c68 <__muldf3+0x2a4>
30009c44:	e2006102 	and	r6, r0, #-2147483648	; 0x80000000
30009c48:	e1b01081 	movs	r1, r1, lsl #1
30009c4c:	e0ae0080 	adc	r0, lr, r0, lsl #1
30009c50:	e3100601 	tst	r0, #1048576	; 0x100000
30009c54:	02444702 	subeq	r4, r4, #524288	; 0x80000
30009c58:	0afffffa 	beq	30009c48 <__muldf3+0x284>
30009c5c:	e1800006 	orr	r0, r0, r6
30009c60:	e3350000 	teq	r5, #0	; 0x0
30009c64:	1affff64 	bne	300099fc <__muldf3+0x38>
30009c68:	e2026102 	and	r6, r2, #-2147483648	; 0x80000000
30009c6c:	e1b03083 	movs	r3, r3, lsl #1
30009c70:	e0ae2082 	adc	r2, lr, r2, lsl #1
30009c74:	e3120601 	tst	r2, #1048576	; 0x100000
30009c78:	02455601 	subeq	r5, r5, #1048576	; 0x100000
30009c7c:	0afffffa 	beq	30009c6c <__muldf3+0x2a8>
30009c80:	e1822006 	orr	r2, r2, r6
30009c84:	eaffff5c 	b	300099fc <__muldf3+0x38>
30009c88:	e1916080 	orrs	r6, r1, r0, lsl #1
30009c8c:	11936082 	orrnes	r6, r3, r2, lsl #1
30009c90:	0a00000d 	beq	30009ccc <__muldf3+0x308>
30009c94:	e134000c 	teq	r4, ip
30009c98:	1a000001 	bne	30009ca4 <__muldf3+0x2e0>
30009c9c:	e1916600 	orrs	r6, r1, r0, lsl #12
30009ca0:	1a000009 	bne	30009ccc <__muldf3+0x308>
30009ca4:	e135000c 	teq	r5, ip
30009ca8:	1a000001 	bne	30009cb4 <__muldf3+0x2f0>
30009cac:	e1936602 	orrs	r6, r3, r2, lsl #12
30009cb0:	1a000005 	bne	30009ccc <__muldf3+0x308>
30009cb4:	e0200002 	eor	r0, r0, r2
30009cb8:	e2000102 	and	r0, r0, #-2147483648	; 0x80000000
30009cbc:	e380047f 	orr	r0, r0, #2130706432	; 0x7f000000
30009cc0:	e380060f 	orr	r0, r0, #15728640	; 0xf00000
30009cc4:	e3a01000 	mov	r1, #0	; 0x0
30009cc8:	e8bd8070 	ldmia	sp!, {r4, r5, r6, pc}
30009ccc:	e3a0047f 	mov	r0, #2130706432	; 0x7f000000
30009cd0:	e380073e 	orr	r0, r0, #16252928	; 0xf80000
30009cd4:	e8bd8070 	ldmia	sp!, {r4, r5, r6, pc}

30009cd8 <__divdf3>:
30009cd8:	e92d4070 	stmdb	sp!, {r4, r5, r6, lr}
30009cdc:	e3a0c47f 	mov	ip, #2130706432	; 0x7f000000
30009ce0:	e38cc60f 	orr	ip, ip, #15728640	; 0xf00000
30009ce4:	e000400c 	and	r4, r0, ip
30009ce8:	e002500c 	and	r5, r2, ip
30009cec:	e134000c 	teq	r4, ip
30009cf0:	1135000c 	teqne	r5, ip
30009cf4:	11916080 	orrnes	r6, r1, r0, lsl #1
30009cf8:	11936082 	orrnes	r6, r3, r2, lsl #1
30009cfc:	0a00007e 	beq	30009efc <__divdf3+0x224>
30009d00:	e1b040a4 	movs	r4, r4, lsr #1
30009d04:	13350000 	teqne	r5, #0	; 0x0
30009d08:	0a000067 	beq	30009eac <__divdf3+0x1d4>
30009d0c:	e04440c5 	sub	r4, r4, r5, asr #1
30009d10:	e020e002 	eor	lr, r0, r2
30009d14:	e3a05201 	mov	r5, #268435456	; 0x10000000
30009d18:	e1a02602 	mov	r2, r2, lsl #12
30009d1c:	e1852222 	orr	r2, r5, r2, lsr #4
30009d20:	e1822c23 	orr	r2, r2, r3, lsr #24
30009d24:	e1b03403 	movs	r3, r3, lsl #8
30009d28:	e1a00600 	mov	r0, r0, lsl #12
30009d2c:	01320005 	teqeq	r2, r5
30009d30:	0a00004d 	beq	30009e6c <__divdf3+0x194>
30009d34:	e1855220 	orr	r5, r5, r0, lsr #4
30009d38:	e1855c21 	orr	r5, r5, r1, lsr #24
30009d3c:	e1a06401 	mov	r6, r1, lsl #8
30009d40:	e20e0102 	and	r0, lr, #-2147483648	; 0x80000000
30009d44:	e1550002 	cmp	r5, r2
30009d48:	01560003 	cmpeq	r6, r3
30009d4c:	2a000002 	bcs	30009d5c <__divdf3+0x84>
30009d50:	e2444702 	sub	r4, r4, #524288	; 0x80000
30009d54:	e1b020a2 	movs	r2, r2, lsr #1
30009d58:	e1a03063 	mov	r3, r3, rrx
30009d5c:	e284441f 	add	r4, r4, #520093696	; 0x1f000000
30009d60:	e284473e 	add	r4, r4, #16252928	; 0xf80000
30009d64:	e374076a 	cmn	r4, #27787264	; 0x1a80000
30009d68:	daffff80 	ble	30009b70 <__muldf3+0x1ac>
30009d6c:	e15400ac 	cmp	r4, ip, lsr #1
30009d70:	aaffffd0 	bge	30009cb8 <__muldf3+0x2f4>
30009d74:	e0566003 	subs	r6, r6, r3
30009d78:	e0c55002 	sbc	r5, r5, r2
30009d7c:	e1b020a2 	movs	r2, r2, lsr #1
30009d80:	e1a03063 	mov	r3, r3, rrx
30009d84:	e3a01601 	mov	r1, #1048576	; 0x100000
30009d88:	e3a0c702 	mov	ip, #524288	; 0x80000
30009d8c:	e056e003 	subs	lr, r6, r3
30009d90:	e0d5e002 	sbcs	lr, r5, r2
30009d94:	20466003 	subcs	r6, r6, r3
30009d98:	21a0500e 	movcs	r5, lr
30009d9c:	2181100c 	orrcs	r1, r1, ip
30009da0:	e1b020a2 	movs	r2, r2, lsr #1
30009da4:	e1a03063 	mov	r3, r3, rrx
30009da8:	e056e003 	subs	lr, r6, r3
30009dac:	e0d5e002 	sbcs	lr, r5, r2
30009db0:	20466003 	subcs	r6, r6, r3
30009db4:	21a0500e 	movcs	r5, lr
30009db8:	218110ac 	orrcs	r1, r1, ip, lsr #1
30009dbc:	e1b020a2 	movs	r2, r2, lsr #1
30009dc0:	e1a03063 	mov	r3, r3, rrx
30009dc4:	e056e003 	subs	lr, r6, r3
30009dc8:	e0d5e002 	sbcs	lr, r5, r2
30009dcc:	20466003 	subcs	r6, r6, r3
30009dd0:	21a0500e 	movcs	r5, lr
30009dd4:	2181112c 	orrcs	r1, r1, ip, lsr #2
30009dd8:	e1b020a2 	movs	r2, r2, lsr #1
30009ddc:	e1a03063 	mov	r3, r3, rrx
30009de0:	e056e003 	subs	lr, r6, r3
30009de4:	e0d5e002 	sbcs	lr, r5, r2
30009de8:	20466003 	subcs	r6, r6, r3
30009dec:	21a0500e 	movcs	r5, lr
30009df0:	218111ac 	orrcs	r1, r1, ip, lsr #3
30009df4:	e195e006 	orrs	lr, r5, r6
30009df8:	0a00000d 	beq	30009e34 <__divdf3+0x15c>
30009dfc:	e1a05205 	mov	r5, r5, lsl #4
30009e00:	e1855e26 	orr	r5, r5, r6, lsr #28
30009e04:	e1a06206 	mov	r6, r6, lsl #4
30009e08:	e1a02182 	mov	r2, r2, lsl #3
30009e0c:	e1822ea3 	orr	r2, r2, r3, lsr #29
30009e10:	e1a03183 	mov	r3, r3, lsl #3
30009e14:	e1b0c22c 	movs	ip, ip, lsr #4
30009e18:	1affffdb 	bne	30009d8c <__divdf3+0xb4>
30009e1c:	e3100601 	tst	r0, #1048576	; 0x100000
30009e20:	1a000006 	bne	30009e40 <__divdf3+0x168>
30009e24:	e1800001 	orr	r0, r0, r1
30009e28:	e3a01000 	mov	r1, #0	; 0x0
30009e2c:	e3a0c102 	mov	ip, #-2147483648	; 0x80000000
30009e30:	eaffffd5 	b	30009d8c <__divdf3+0xb4>
30009e34:	e3100601 	tst	r0, #1048576	; 0x100000
30009e38:	01800001 	orreq	r0, r0, r1
30009e3c:	03a01000 	moveq	r1, #0	; 0x0
30009e40:	e3540000 	cmp	r4, #0	; 0x0
30009e44:	da000016 	ble	30009ea4 <__divdf3+0x1cc>
30009e48:	e055c002 	subs	ip, r5, r2
30009e4c:	0056c003 	subeqs	ip, r6, r3
30009e50:	e2b11000 	adcs	r1, r1, #0	; 0x0
30009e54:	e2a00000 	adc	r0, r0, #0	; 0x0
30009e58:	e33c0000 	teq	ip, #0	; 0x0
30009e5c:	03c11001 	biceq	r1, r1, #1	; 0x1
30009e60:	e3c00601 	bic	r0, r0, #1048576	; 0x100000
30009e64:	e1800084 	orr	r0, r0, r4, lsl #1
30009e68:	e8bd8070 	ldmia	sp!, {r4, r5, r6, pc}
30009e6c:	e20ee102 	and	lr, lr, #-2147483648	; 0x80000000
30009e70:	e18e0620 	orr	r0, lr, r0, lsr #12
30009e74:	e284441f 	add	r4, r4, #520093696	; 0x1f000000
30009e78:	e284473e 	add	r4, r4, #16252928	; 0xf80000
30009e7c:	e15400ac 	cmp	r4, ip, lsr #1
30009e80:	aaffff8c 	bge	30009cb8 <__muldf3+0x2f4>
30009e84:	e3540000 	cmp	r4, #0	; 0x0
30009e88:	c1800084 	orrgt	r0, r0, r4, lsl #1
30009e8c:	c8bd8070 	ldmgtia	sp!, {r4, r5, r6, pc}
30009e90:	e374076a 	cmn	r4, #27787264	; 0x1a80000
30009e94:	daffff35 	ble	30009b70 <__muldf3+0x1ac>
30009e98:	e3800601 	orr	r0, r0, #1048576	; 0x100000
30009e9c:	e3a0e000 	mov	lr, #0	; 0x0
30009ea0:	eaffff39 	b	30009b8c <__muldf3+0x1c8>
30009ea4:	e185e006 	orr	lr, r5, r6
30009ea8:	eaffff37 	b	30009b8c <__muldf3+0x1c8>
30009eac:	e3a0e000 	mov	lr, #0	; 0x0
30009eb0:	e3340000 	teq	r4, #0	; 0x0
30009eb4:	1a000008 	bne	30009edc <__divdf3+0x204>
30009eb8:	e2006102 	and	r6, r0, #-2147483648	; 0x80000000
30009ebc:	e1b01081 	movs	r1, r1, lsl #1
30009ec0:	e0ae0080 	adc	r0, lr, r0, lsl #1
30009ec4:	e3100601 	tst	r0, #1048576	; 0x100000
30009ec8:	02444702 	subeq	r4, r4, #524288	; 0x80000
30009ecc:	0afffffa 	beq	30009ebc <__divdf3+0x1e4>
30009ed0:	e1800006 	orr	r0, r0, r6
30009ed4:	e3350000 	teq	r5, #0	; 0x0
30009ed8:	1affff8b 	bne	30009d0c <__divdf3+0x34>
30009edc:	e2026102 	and	r6, r2, #-2147483648	; 0x80000000
30009ee0:	e1b03083 	movs	r3, r3, lsl #1
30009ee4:	e0ae2082 	adc	r2, lr, r2, lsl #1
30009ee8:	e3120601 	tst	r2, #1048576	; 0x100000
30009eec:	02455601 	subeq	r5, r5, #1048576	; 0x100000
30009ef0:	0afffffa 	beq	30009ee0 <__divdf3+0x208>
30009ef4:	e1822006 	orr	r2, r2, r6
30009ef8:	eaffff83 	b	30009d0c <__divdf3+0x34>
30009efc:	e134000c 	teq	r4, ip
30009f00:	0135000c 	teqeq	r5, ip
30009f04:	0affff70 	beq	30009ccc <__muldf3+0x308>
30009f08:	e134000c 	teq	r4, ip
30009f0c:	1a000002 	bne	30009f1c <__divdf3+0x244>
30009f10:	e1914600 	orrs	r4, r1, r0, lsl #12
30009f14:	1affff6c 	bne	30009ccc <__muldf3+0x308>
30009f18:	eaffff65 	b	30009cb4 <__muldf3+0x2f0>
30009f1c:	e135000c 	teq	r5, ip
30009f20:	1a000002 	bne	30009f30 <__divdf3+0x258>
30009f24:	e1935602 	orrs	r5, r3, r2, lsl #12
30009f28:	1affff67 	bne	30009ccc <__muldf3+0x308>
30009f2c:	eaffff0e 	b	30009b6c <__muldf3+0x1a8>
30009f30:	e1914080 	orrs	r4, r1, r0, lsl #1
30009f34:	1affff5e 	bne	30009cb4 <__muldf3+0x2f0>
30009f38:	e1935082 	orrs	r5, r3, r2, lsl #1
30009f3c:	1affff0a 	bne	30009b6c <__muldf3+0x1a8>
30009f40:	eaffff61 	b	30009ccc <__muldf3+0x308>

30009f44 <__gedf2>:
30009f44:	e3e0c000 	mvn	ip, #0	; 0x0
30009f48:	ea000002 	b	30009f58 <__cmpdf2+0x4>

30009f4c <__ledf2>:
30009f4c:	e3a0c001 	mov	ip, #1	; 0x1
30009f50:	ea000000 	b	30009f58 <__cmpdf2+0x4>

30009f54 <__cmpdf2>:
30009f54:	e3a0c001 	mov	ip, #1	; 0x1
30009f58:	e92d4030 	stmdb	sp!, {r4, r5, lr}
30009f5c:	e3a0e47f 	mov	lr, #2130706432	; 0x7f000000
30009f60:	e38ee60f 	orr	lr, lr, #15728640	; 0xf00000
30009f64:	e000400e 	and	r4, r0, lr
30009f68:	e002500e 	and	r5, r2, lr
30009f6c:	e134000e 	teq	r4, lr
30009f70:	1135000e 	teqne	r5, lr
30009f74:	0a000011 	beq	30009fc0 <__cmpdf2+0x6c>
30009f78:	e191c080 	orrs	ip, r1, r0, lsl #1
30009f7c:	0193c082 	orreqs	ip, r3, r2, lsl #1
30009f80:	11300002 	teqne	r0, r2
30009f84:	01310003 	teqeq	r1, r3
30009f88:	03a00000 	moveq	r0, #0	; 0x0
30009f8c:	08bd8030 	ldmeqia	sp!, {r4, r5, pc}
30009f90:	e1300002 	teq	r0, r2
30009f94:	41a00fc0 	movmi	r0, r0, asr #31
30009f98:	43800001 	orrmi	r0, r0, #1	; 0x1
30009f9c:	48bd8030 	ldmmiia	sp!, {r4, r5, pc}
30009fa0:	e1540005 	cmp	r4, r5
30009fa4:	01a00600 	moveq	r0, r0, lsl #12
30009fa8:	01500602 	cmpeq	r0, r2, lsl #12
30009fac:	01510003 	cmpeq	r1, r3
30009fb0:	21a00fc2 	movcs	r0, r2, asr #31
30009fb4:	31e00fc2 	mvncc	r0, r2, asr #31
30009fb8:	e3800001 	orr	r0, r0, #1	; 0x1
30009fbc:	e8bd8030 	ldmia	sp!, {r4, r5, pc}
30009fc0:	e134000e 	teq	r4, lr
30009fc4:	1a000001 	bne	30009fd0 <__cmpdf2+0x7c>
30009fc8:	e1911600 	orrs	r1, r1, r0, lsl #12
30009fcc:	1a000003 	bne	30009fe0 <__cmpdf2+0x8c>
30009fd0:	e135000e 	teq	r5, lr
30009fd4:	1affffe7 	bne	30009f78 <__cmpdf2+0x24>
30009fd8:	e1933602 	orrs	r3, r3, r2, lsl #12
30009fdc:	0affffe5 	beq	30009f78 <__cmpdf2+0x24>
30009fe0:	e1a0000c 	mov	r0, ip
30009fe4:	e8bd8030 	ldmia	sp!, {r4, r5, pc}

30009fe8 <__fixdfsi>:
30009fe8:	e191c080 	orrs	ip, r1, r0, lsl #1
30009fec:	0a000014 	beq	3000a044 <__fixdfsi+0x5c>
30009ff0:	e1a03063 	mov	r3, r3, rrx
30009ff4:	e3a0c47f 	mov	ip, #2130706432	; 0x7f000000
30009ff8:	e38cc60f 	orr	ip, ip, #15728640	; 0xf00000
30009ffc:	e000200c 	and	r2, r0, ip
3000a000:	e132000c 	teq	r2, ip
3000a004:	0a000010 	beq	3000a04c <__fixdfsi+0x64>
3000a008:	e3ccc101 	bic	ip, ip, #1073741824	; 0x40000000
3000a00c:	e152000c 	cmp	r2, ip
3000a010:	3a00000b 	bcc	3000a044 <__fixdfsi+0x5c>
3000a014:	e28cc61f 	add	ip, ip, #32505856	; 0x1f00000
3000a018:	e152000c 	cmp	r2, ip
3000a01c:	2a00000c 	bcs	3000a054 <__fixdfsi+0x6c>
3000a020:	e062200c 	rsb	r2, r2, ip
3000a024:	e1a0c580 	mov	ip, r0, lsl #11
3000a028:	e38cc102 	orr	ip, ip, #-2147483648	; 0x80000000
3000a02c:	e18ccaa1 	orr	ip, ip, r1, lsr #21
3000a030:	e1a02a22 	mov	r2, r2, lsr #20
3000a034:	e3130102 	tst	r3, #-2147483648	; 0x80000000
3000a038:	e1a0023c 	mov	r0, ip, lsr r2
3000a03c:	12600000 	rsbne	r0, r0, #0	; 0x0
3000a040:	e1a0f00e 	mov	pc, lr
3000a044:	e3a00000 	mov	r0, #0	; 0x0
3000a048:	e1a0f00e 	mov	pc, lr
3000a04c:	e1911600 	orrs	r1, r1, r0, lsl #12
3000a050:	1a000002 	bne	3000a060 <__fixdfsi+0x78>
3000a054:	e2130102 	ands	r0, r3, #-2147483648	; 0x80000000
3000a058:	03e00102 	mvneq	r0, #-2147483648	; 0x80000000
3000a05c:	e1a0f00e 	mov	pc, lr
3000a060:	e3a00000 	mov	r0, #0	; 0x0
3000a064:	e1a0f00e 	mov	pc, lr

3000a068 <__fixunsdfsi>:
3000a068:	e191c080 	orrs	ip, r1, r0, lsl #1
3000a06c:	23b00000 	movcss	r0, #0	; 0x0
3000a070:	01a0f00e 	moveq	pc, lr
3000a074:	e3a0c47f 	mov	ip, #2130706432	; 0x7f000000
3000a078:	e38cc60f 	orr	ip, ip, #15728640	; 0xf00000
3000a07c:	e000200c 	and	r2, r0, ip
3000a080:	e132000c 	teq	r2, ip
3000a084:	0a00000e 	beq	3000a0c4 <__fixunsdfsi+0x5c>
3000a088:	e3ccc101 	bic	ip, ip, #1073741824	; 0x40000000
3000a08c:	e152000c 	cmp	r2, ip
3000a090:	3a000009 	bcc	3000a0bc <__fixunsdfsi+0x54>
3000a094:	e28cc61f 	add	ip, ip, #32505856	; 0x1f00000
3000a098:	e152000c 	cmp	r2, ip
3000a09c:	8a00000a 	bhi	3000a0cc <__fixunsdfsi+0x64>
3000a0a0:	e062200c 	rsb	r2, r2, ip
3000a0a4:	e1a0c580 	mov	ip, r0, lsl #11
3000a0a8:	e38cc102 	orr	ip, ip, #-2147483648	; 0x80000000
3000a0ac:	e18ccaa1 	orr	ip, ip, r1, lsr #21
3000a0b0:	e1a02a22 	mov	r2, r2, lsr #20
3000a0b4:	e1a0023c 	mov	r0, ip, lsr r2
3000a0b8:	e1a0f00e 	mov	pc, lr
3000a0bc:	e3a00000 	mov	r0, #0	; 0x0
3000a0c0:	e1a0f00e 	mov	pc, lr
3000a0c4:	e1911600 	orrs	r1, r1, r0, lsl #12
3000a0c8:	1a000001 	bne	3000a0d4 <__fixunsdfsi+0x6c>
3000a0cc:	e3e00000 	mvn	r0, #0	; 0x0
3000a0d0:	e1a0f00e 	mov	pc, lr
3000a0d4:	e3a00000 	mov	r0, #0	; 0x0
3000a0d8:	e1a0f00e 	mov	pc, lr

3000a0dc <__subsf3>:
3000a0dc:	e2211102 	eor	r1, r1, #-2147483648	; 0x80000000

3000a0e0 <__addsf3>:
3000a0e0:	e0202001 	eor	r2, r0, r1
3000a0e4:	e3320102 	teq	r2, #-2147483648	; 0x80000000
3000a0e8:	0a00005a 	beq	3000a258 <__addsf3+0x178>
3000a0ec:	e3d02102 	bics	r2, r0, #-2147483648	; 0x80000000
3000a0f0:	01a00001 	moveq	r0, r1
3000a0f4:	13d12102 	bicnes	r2, r1, #-2147483648	; 0x80000000
3000a0f8:	01a0f00e 	moveq	pc, lr
3000a0fc:	e3a0c4ff 	mov	ip, #-16777216	; 0xff000000
3000a100:	e00020ac 	and	r2, r0, ip, lsr #1
3000a104:	e00130ac 	and	r3, r1, ip, lsr #1
3000a108:	e13200ac 	teq	r2, ip, lsr #1
3000a10c:	113300ac 	teqne	r3, ip, lsr #1
3000a110:	0a000059 	beq	3000a27c <__addsf3+0x19c>
3000a114:	e0533002 	subs	r3, r3, r2
3000a118:	c0822003 	addgt	r2, r2, r3
3000a11c:	c0201001 	eorgt	r1, r0, r1
3000a120:	c0210000 	eorgt	r0, r1, r0
3000a124:	c0201001 	eorgt	r1, r0, r1
3000a128:	b2633000 	rsblt	r3, r3, #0	; 0x0
3000a12c:	e3530532 	cmp	r3, #209715200	; 0xc800000
3000a130:	81a0f00e 	movhi	pc, lr
3000a134:	e3100102 	tst	r0, #-2147483648	; 0x80000000
3000a138:	e3800502 	orr	r0, r0, #8388608	; 0x800000
3000a13c:	e3c004ff 	bic	r0, r0, #-16777216	; 0xff000000
3000a140:	12600000 	rsbne	r0, r0, #0	; 0x0
3000a144:	e3110102 	tst	r1, #-2147483648	; 0x80000000
3000a148:	e3811502 	orr	r1, r1, #8388608	; 0x800000
3000a14c:	e3c114ff 	bic	r1, r1, #-16777216	; 0xff000000
3000a150:	12611000 	rsbne	r1, r1, #0	; 0x0
3000a154:	e1320003 	teq	r2, r3
3000a158:	0a000038 	beq	3000a240 <__addsf3+0x160>
3000a15c:	e1b03ba3 	movs	r3, r3, lsr #23
3000a160:	13320502 	teqne	r2, #8388608	; 0x800000
3000a164:	11a00080 	movne	r0, r0, lsl #1
3000a168:	12422502 	subne	r2, r2, #8388608	; 0x800000
3000a16c:	12433001 	subne	r3, r3, #1	; 0x1
3000a170:	e1a0c351 	mov	ip, r1, asr r3
3000a174:	e2633020 	rsb	r3, r3, #32	; 0x20
3000a178:	e1a01311 	mov	r1, r1, lsl r3
3000a17c:	e080000c 	add	r0, r0, ip
3000a180:	e2103102 	ands	r3, r0, #-2147483648	; 0x80000000
3000a184:	5a000001 	bpl	3000a190 <__addsf3+0xb0>
3000a188:	e2711000 	rsbs	r1, r1, #0	; 0x0
3000a18c:	e2e00000 	rsc	r0, r0, #0	; 0x0
3000a190:	e3500502 	cmp	r0, #8388608	; 0x800000
3000a194:	3a000014 	bcc	3000a1ec <__addsf3+0x10c>
3000a198:	e3500401 	cmp	r0, #16777216	; 0x1000000
3000a19c:	3a000007 	bcc	3000a1c0 <__addsf3+0xe0>
3000a1a0:	e3500402 	cmp	r0, #33554432	; 0x2000000
3000a1a4:	3a000002 	bcc	3000a1b4 <__addsf3+0xd4>
3000a1a8:	e1b000a0 	movs	r0, r0, lsr #1
3000a1ac:	e1a01061 	mov	r1, r1, rrx
3000a1b0:	e2822502 	add	r2, r2, #8388608	; 0x800000
3000a1b4:	e1b000a0 	movs	r0, r0, lsr #1
3000a1b8:	e1a01061 	mov	r1, r1, rrx
3000a1bc:	e2822502 	add	r2, r2, #8388608	; 0x800000
3000a1c0:	e0800fa1 	add	r0, r0, r1, lsr #31
3000a1c4:	e3310102 	teq	r1, #-2147483648	; 0x80000000
3000a1c8:	03c00001 	biceq	r0, r0, #1	; 0x1
3000a1cc:	e3100401 	tst	r0, #16777216	; 0x1000000
3000a1d0:	12822502 	addne	r2, r2, #8388608	; 0x800000
3000a1d4:	e352047f 	cmp	r2, #2130706432	; 0x7f000000
3000a1d8:	8a000024 	bhi	3000a270 <__addsf3+0x190>
3000a1dc:	e3c00506 	bic	r0, r0, #25165824	; 0x1800000
3000a1e0:	e1800002 	orr	r0, r0, r2
3000a1e4:	e1800003 	orr	r0, r0, r3
3000a1e8:	e1a0f00e 	mov	pc, lr
3000a1ec:	e1b0c620 	movs	ip, r0, lsr #12
3000a1f0:	01a00600 	moveq	r0, r0, lsl #12
3000a1f4:	02422406 	subeq	r2, r2, #100663296	; 0x6000000
3000a1f8:	e31008ff 	tst	r0, #16711680	; 0xff0000
3000a1fc:	01a00400 	moveq	r0, r0, lsl #8
3000a200:	02422301 	subeq	r2, r2, #67108864	; 0x4000000
3000a204:	e310060f 	tst	r0, #15728640	; 0xf00000
3000a208:	01a00200 	moveq	r0, r0, lsl #4
3000a20c:	02422402 	subeq	r2, r2, #33554432	; 0x2000000
3000a210:	e3100503 	tst	r0, #12582912	; 0xc00000
3000a214:	01a00100 	moveq	r0, r0, lsl #2
3000a218:	02422401 	subeq	r2, r2, #16777216	; 0x1000000
3000a21c:	e3100502 	tst	r0, #8388608	; 0x800000
3000a220:	01a00080 	moveq	r0, r0, lsl #1
3000a224:	02422502 	subeq	r2, r2, #8388608	; 0x800000
3000a228:	e3520000 	cmp	r2, #0	; 0x0
3000a22c:	caffffea 	bgt	3000a1dc <__addsf3+0xfc>
3000a230:	e1e02bc2 	mvn	r2, r2, asr #23
3000a234:	e2822002 	add	r2, r2, #2	; 0x2
3000a238:	e1830230 	orr	r0, r3, r0, lsr r2
3000a23c:	e1a0f00e 	mov	pc, lr
3000a240:	e3320000 	teq	r2, #0	; 0x0
3000a244:	02200502 	eoreq	r0, r0, #8388608	; 0x800000
3000a248:	02822502 	addeq	r2, r2, #8388608	; 0x800000
3000a24c:	e2211502 	eor	r1, r1, #8388608	; 0x800000
3000a250:	12433502 	subne	r3, r3, #8388608	; 0x800000
3000a254:	eaffffc0 	b	3000a15c <__addsf3+0x7c>
3000a258:	e3a0c4ff 	mov	ip, #-16777216	; 0xff000000
3000a25c:	e00020ac 	and	r2, r0, ip, lsr #1
3000a260:	e13200ac 	teq	r2, ip, lsr #1
3000a264:	01a0014c 	moveq	r0, ip, asr #2
3000a268:	13a00000 	movne	r0, #0	; 0x0
3000a26c:	e1a0f00e 	mov	pc, lr
3000a270:	e383047f 	orr	r0, r3, #2130706432	; 0x7f000000
3000a274:	e3800502 	orr	r0, r0, #8388608	; 0x800000
3000a278:	e1a0f00e 	mov	pc, lr
3000a27c:	e13200ac 	teq	r2, ip, lsr #1
3000a280:	11a00001 	movne	r0, r1
3000a284:	013300ac 	teqeq	r3, ip, lsr #1
3000a288:	11a0f00e 	movne	pc, lr
3000a28c:	e1b02480 	movs	r2, r0, lsl #9
3000a290:	01b02481 	moveqs	r2, r1, lsl #9
3000a294:	01300001 	teqeq	r0, r1
3000a298:	13830501 	orrne	r0, r3, #4194304	; 0x400000
3000a29c:	e1a0f00e 	mov	pc, lr

3000a2a0 <__floatunsisf>:
3000a2a0:	e3a03000 	mov	r3, #0	; 0x0
3000a2a4:	ea000001 	b	3000a2b0 <__floatsisf+0x8>

3000a2a8 <__floatsisf>:
3000a2a8:	e2103102 	ands	r3, r0, #-2147483648	; 0x80000000
3000a2ac:	42600000 	rsbmi	r0, r0, #0	; 0x0
3000a2b0:	e3300000 	teq	r0, #0	; 0x0
3000a2b4:	01a0f00e 	moveq	pc, lr
3000a2b8:	e3a01000 	mov	r1, #0	; 0x0
3000a2bc:	e3a0244b 	mov	r2, #1258291200	; 0x4b000000
3000a2c0:	e310033f 	tst	r0, #-67108864	; 0xfc000000
3000a2c4:	0affffb1 	beq	3000a190 <__addsf3+0xb0>
3000a2c8:	e310020f 	tst	r0, #-268435456	; 0xf0000000
3000a2cc:	11a01e00 	movne	r1, r0, lsl #28
3000a2d0:	11a00220 	movne	r0, r0, lsr #4
3000a2d4:	12822402 	addne	r2, r2, #33554432	; 0x2000000
3000a2d8:	e3100303 	tst	r0, #201326592	; 0xc000000
3000a2dc:	0affffab 	beq	3000a190 <__addsf3+0xb0>
3000a2e0:	e1a01121 	mov	r1, r1, lsr #2
3000a2e4:	e1811f00 	orr	r1, r1, r0, lsl #30
3000a2e8:	e1a00120 	mov	r0, r0, lsr #2
3000a2ec:	e2822401 	add	r2, r2, #16777216	; 0x1000000
3000a2f0:	eaffffa6 	b	3000a190 <__addsf3+0xb0>

3000a2f4 <__mulsf3>:
3000a2f4:	e3a0c4ff 	mov	ip, #-16777216	; 0xff000000
3000a2f8:	e00020ac 	and	r2, r0, ip, lsr #1
3000a2fc:	e00130ac 	and	r3, r1, ip, lsr #1
3000a300:	e13200ac 	teq	r2, ip, lsr #1
3000a304:	113300ac 	teqne	r3, ip, lsr #1
3000a308:	0a000053 	beq	3000a45c <__mulsf3+0x168>
3000a30c:	e3d0c102 	bics	ip, r0, #-2147483648	; 0x80000000
3000a310:	13d1c102 	bicnes	ip, r1, #-2147483648	; 0x80000000
3000a314:	0a000029 	beq	3000a3c0 <__mulsf3+0xcc>
3000a318:	e1b020a2 	movs	r2, r2, lsr #1
3000a31c:	13330000 	teqne	r3, #0	; 0x0
3000a320:	0a00003e 	beq	3000a420 <__mulsf3+0x12c>
3000a324:	e08220c3 	add	r2, r2, r3, asr #1
3000a328:	e1300001 	teq	r0, r1
3000a32c:	43822902 	orrmi	r2, r2, #32768	; 0x8000
3000a330:	e3c004ff 	bic	r0, r0, #-16777216	; 0xff000000
3000a334:	e3c114ff 	bic	r1, r1, #-16777216	; 0xff000000
3000a338:	e3800502 	orr	r0, r0, #8388608	; 0x800000
3000a33c:	e3811502 	orr	r1, r1, #8388608	; 0x800000
3000a340:	e92d0030 	stmdb	sp!, {r4, r5}
3000a344:	e1a04820 	mov	r4, r0, lsr #16
3000a348:	e1a05821 	mov	r5, r1, lsr #16
3000a34c:	e3c008ff 	bic	r0, r0, #16711680	; 0xff0000
3000a350:	e3c118ff 	bic	r1, r1, #16711680	; 0xff0000
3000a354:	e00c0594 	mul	ip, r4, r5
3000a358:	e0030190 	mul	r3, r0, r1
3000a35c:	e0000095 	mul	r0, r5, r0
3000a360:	e0200194 	mla	r0, r4, r1, r0
3000a364:	e0933800 	adds	r3, r3, r0, lsl #16
3000a368:	e0acc820 	adc	ip, ip, r0, lsr #16
3000a36c:	e8bd0030 	ldmia	sp!, {r4, r5}
3000a370:	e1a00802 	mov	r0, r2, lsl #16
3000a374:	e3c22902 	bic	r2, r2, #32768	; 0x8000
3000a378:	e31c0902 	tst	ip, #32768	; 0x8000
3000a37c:	12822501 	addne	r2, r2, #4194304	; 0x400000
3000a380:	11b0c0ac 	movnes	ip, ip, lsr #1
3000a384:	11a03063 	movne	r3, r3, rrx
3000a388:	e252257f 	subs	r2, r2, #532676608	; 0x1fc00000
3000a38c:	da00000e 	ble	3000a3cc <__mulsf3+0xd8>
3000a390:	e1900ba3 	orrs	r0, r0, r3, lsr #23
3000a394:	e0a0048c 	adc	r0, r0, ip, lsl #9
3000a398:	e1a03483 	mov	r3, r3, lsl #9
3000a39c:	e3330102 	teq	r3, #-2147483648	; 0x80000000
3000a3a0:	03c00001 	biceq	r0, r0, #1	; 0x1
3000a3a4:	e3100401 	tst	r0, #16777216	; 0x1000000
3000a3a8:	12822501 	addne	r2, r2, #4194304	; 0x400000
3000a3ac:	e35205ff 	cmp	r2, #1069547520	; 0x3fc00000
3000a3b0:	aa000037 	bge	3000a494 <__mulsf3+0x1a0>
3000a3b4:	e3c00506 	bic	r0, r0, #25165824	; 0x1800000
3000a3b8:	e1800082 	orr	r0, r0, r2, lsl #1
3000a3bc:	e1a0f00e 	mov	pc, lr
3000a3c0:	e0200001 	eor	r0, r0, r1
3000a3c4:	e2000102 	and	r0, r0, #-2147483648	; 0x80000000
3000a3c8:	e1a0f00e 	mov	pc, lr
3000a3cc:	e3720406 	cmn	r2, #100663296	; 0x6000000
3000a3d0:	d1a0f00e 	movle	pc, lr
3000a3d4:	e1e01b42 	mvn	r1, r2, asr #22
3000a3d8:	e2511007 	subs	r1, r1, #7	; 0x7
3000a3dc:	ca000007 	bgt	3000a400 <__mulsf3+0x10c>
3000a3e0:	e2811020 	add	r1, r1, #32	; 0x20
3000a3e4:	e1900133 	orrs	r0, r0, r3, lsr r1
3000a3e8:	e2611020 	rsb	r1, r1, #32	; 0x20
3000a3ec:	e0a0011c 	adc	r0, r0, ip, lsl r1
3000a3f0:	e1a0c113 	mov	ip, r3, lsl r1
3000a3f4:	e33c0102 	teq	ip, #-2147483648	; 0x80000000
3000a3f8:	03c00001 	biceq	r0, r0, #1	; 0x1
3000a3fc:	e1a0f00e 	mov	pc, lr
3000a400:	e190013c 	orrs	r0, r0, ip, lsr r1
3000a404:	e2a00000 	adc	r0, r0, #0	; 0x0
3000a408:	e2611020 	rsb	r1, r1, #32	; 0x20
3000a40c:	e1a0c11c 	mov	ip, ip, lsl r1
3000a410:	e3330000 	teq	r3, #0	; 0x0
3000a414:	033c0102 	teqeq	ip, #-2147483648	; 0x80000000
3000a418:	03c00001 	biceq	r0, r0, #1	; 0x1
3000a41c:	e1a0f00e 	mov	pc, lr
3000a420:	e3320000 	teq	r2, #0	; 0x0
3000a424:	e200c102 	and	ip, r0, #-2147483648	; 0x80000000
3000a428:	01a00080 	moveq	r0, r0, lsl #1
3000a42c:	03100502 	tsteq	r0, #8388608	; 0x800000
3000a430:	02422501 	subeq	r2, r2, #4194304	; 0x400000
3000a434:	0afffffb 	beq	3000a428 <__mulsf3+0x134>
3000a438:	e180000c 	orr	r0, r0, ip
3000a43c:	e3330000 	teq	r3, #0	; 0x0
3000a440:	e201c102 	and	ip, r1, #-2147483648	; 0x80000000
3000a444:	01a01081 	moveq	r1, r1, lsl #1
3000a448:	03110502 	tsteq	r1, #8388608	; 0x800000
3000a44c:	02433502 	subeq	r3, r3, #8388608	; 0x800000
3000a450:	0afffffb 	beq	3000a444 <__mulsf3+0x150>
3000a454:	e181100c 	orr	r1, r1, ip
3000a458:	eaffffb1 	b	3000a324 <__mulsf3+0x30>
3000a45c:	e3300000 	teq	r0, #0	; 0x0
3000a460:	13310000 	teqne	r1, #0	; 0x0
3000a464:	13300102 	teqne	r0, #-2147483648	; 0x80000000
3000a468:	13310102 	teqne	r1, #-2147483648	; 0x80000000
3000a46c:	0a00000c 	beq	3000a4a4 <__mulsf3+0x1b0>
3000a470:	e13200ac 	teq	r2, ip, lsr #1
3000a474:	1a000001 	bne	3000a480 <__mulsf3+0x18c>
3000a478:	e1b02480 	movs	r2, r0, lsl #9
3000a47c:	1a000008 	bne	3000a4a4 <__mulsf3+0x1b0>
3000a480:	e13300ac 	teq	r3, ip, lsr #1
3000a484:	1a000001 	bne	3000a490 <__mulsf3+0x19c>
3000a488:	e1b03481 	movs	r3, r1, lsl #9
3000a48c:	1a000004 	bne	3000a4a4 <__mulsf3+0x1b0>
3000a490:	e0200001 	eor	r0, r0, r1
3000a494:	e2000102 	and	r0, r0, #-2147483648	; 0x80000000
3000a498:	e380047f 	orr	r0, r0, #2130706432	; 0x7f000000
3000a49c:	e3800502 	orr	r0, r0, #8388608	; 0x800000
3000a4a0:	e1a0f00e 	mov	pc, lr
3000a4a4:	e3a0047f 	mov	r0, #2130706432	; 0x7f000000
3000a4a8:	e3800503 	orr	r0, r0, #12582912	; 0xc00000
3000a4ac:	e1a0f00e 	mov	pc, lr

3000a4b0 <__divsf3>:
3000a4b0:	e3a0c4ff 	mov	ip, #-16777216	; 0xff000000
3000a4b4:	e00020ac 	and	r2, r0, ip, lsr #1
3000a4b8:	e00130ac 	and	r3, r1, ip, lsr #1
3000a4bc:	e13200ac 	teq	r2, ip, lsr #1
3000a4c0:	113300ac 	teqne	r3, ip, lsr #1
3000a4c4:	13d0c102 	bicnes	ip, r0, #-2147483648	; 0x80000000
3000a4c8:	13d1c102 	bicnes	ip, r1, #-2147483648	; 0x80000000
3000a4cc:	0a00004c 	beq	3000a604 <__divsf3+0x154>
3000a4d0:	e1b020a2 	movs	r2, r2, lsr #1
3000a4d4:	13330000 	teqne	r3, #0	; 0x0
3000a4d8:	0a00003a 	beq	3000a5c8 <__divsf3+0x118>
3000a4dc:	e04220c3 	sub	r2, r2, r3, asr #1
3000a4e0:	e020c001 	eor	ip, r0, r1
3000a4e4:	e3a03201 	mov	r3, #268435456	; 0x10000000
3000a4e8:	e1b01481 	movs	r1, r1, lsl #9
3000a4ec:	e1a00480 	mov	r0, r0, lsl #9
3000a4f0:	0a000022 	beq	3000a580 <__divsf3+0xd0>
3000a4f4:	e1831221 	orr	r1, r3, r1, lsr #4
3000a4f8:	e1833220 	orr	r3, r3, r0, lsr #4
3000a4fc:	e20c0102 	and	r0, ip, #-2147483648	; 0x80000000
3000a500:	e1530001 	cmp	r3, r1
3000a504:	32422501 	subcc	r2, r2, #4194304	; 0x400000
3000a508:	31a03083 	movcc	r3, r3, lsl #1
3000a50c:	e282257f 	add	r2, r2, #532676608	; 0x1fc00000
3000a510:	e3720406 	cmn	r2, #100663296	; 0x6000000
3000a514:	d1a0f00e 	movle	pc, lr
3000a518:	e35205ff 	cmp	r2, #1069547520	; 0x3fc00000
3000a51c:	aaffffdc 	bge	3000a494 <__mulsf3+0x1a0>
3000a520:	e3a0c502 	mov	ip, #8388608	; 0x800000
3000a524:	e1530001 	cmp	r3, r1
3000a528:	20433001 	subcs	r3, r3, r1
3000a52c:	2180000c 	orrcs	r0, r0, ip
3000a530:	e15300a1 	cmp	r3, r1, lsr #1
3000a534:	204330a1 	subcs	r3, r3, r1, lsr #1
3000a538:	218000ac 	orrcs	r0, r0, ip, lsr #1
3000a53c:	e1530121 	cmp	r3, r1, lsr #2
3000a540:	20433121 	subcs	r3, r3, r1, lsr #2
3000a544:	2180012c 	orrcs	r0, r0, ip, lsr #2
3000a548:	e15301a1 	cmp	r3, r1, lsr #3
3000a54c:	204331a1 	subcs	r3, r3, r1, lsr #3
3000a550:	218001ac 	orrcs	r0, r0, ip, lsr #3
3000a554:	e1b03203 	movs	r3, r3, lsl #4
3000a558:	11b0c22c 	movnes	ip, ip, lsr #4
3000a55c:	1afffff0 	bne	3000a524 <__divsf3+0x74>
3000a560:	e3520000 	cmp	r2, #0	; 0x0
3000a564:	da000012 	ble	3000a5b4 <__divsf3+0x104>
3000a568:	e1530001 	cmp	r3, r1
3000a56c:	22800001 	addcs	r0, r0, #1	; 0x1
3000a570:	03c00001 	biceq	r0, r0, #1	; 0x1
3000a574:	e3c00502 	bic	r0, r0, #8388608	; 0x800000
3000a578:	e1800082 	orr	r0, r0, r2, lsl #1
3000a57c:	e1a0f00e 	mov	pc, lr
3000a580:	e20cc102 	and	ip, ip, #-2147483648	; 0x80000000
3000a584:	e18c04a0 	orr	r0, ip, r0, lsr #9
3000a588:	e282257f 	add	r2, r2, #532676608	; 0x1fc00000
3000a58c:	e35205ff 	cmp	r2, #1069547520	; 0x3fc00000
3000a590:	aaffffbf 	bge	3000a494 <__mulsf3+0x1a0>
3000a594:	e3520000 	cmp	r2, #0	; 0x0
3000a598:	c1800082 	orrgt	r0, r0, r2, lsl #1
3000a59c:	c1a0f00e 	movgt	pc, lr
3000a5a0:	e3720406 	cmn	r2, #100663296	; 0x6000000
3000a5a4:	d1a0000c 	movle	r0, ip
3000a5a8:	d1a0f00e 	movle	pc, lr
3000a5ac:	e3800502 	orr	r0, r0, #8388608	; 0x800000
3000a5b0:	e3a03000 	mov	r3, #0	; 0x0
3000a5b4:	e3c0c102 	bic	ip, r0, #-2147483648	; 0x80000000
3000a5b8:	e2000102 	and	r0, r0, #-2147483648	; 0x80000000
3000a5bc:	e1e01b42 	mvn	r1, r2, asr #22
3000a5c0:	e2811002 	add	r1, r1, #2	; 0x2
3000a5c4:	eaffff8d 	b	3000a400 <__mulsf3+0x10c>
3000a5c8:	e3320000 	teq	r2, #0	; 0x0
3000a5cc:	e200c102 	and	ip, r0, #-2147483648	; 0x80000000
3000a5d0:	01a00080 	moveq	r0, r0, lsl #1
3000a5d4:	03100502 	tsteq	r0, #8388608	; 0x800000
3000a5d8:	02422501 	subeq	r2, r2, #4194304	; 0x400000
3000a5dc:	0afffffb 	beq	3000a5d0 <__divsf3+0x120>
3000a5e0:	e180000c 	orr	r0, r0, ip
3000a5e4:	e3330000 	teq	r3, #0	; 0x0
3000a5e8:	e201c102 	and	ip, r1, #-2147483648	; 0x80000000
3000a5ec:	01a01081 	moveq	r1, r1, lsl #1
3000a5f0:	03110502 	tsteq	r1, #8388608	; 0x800000
3000a5f4:	02433502 	subeq	r3, r3, #8388608	; 0x800000
3000a5f8:	0afffffb 	beq	3000a5ec <__divsf3+0x13c>
3000a5fc:	e181100c 	orr	r1, r1, ip
3000a600:	eaffffb5 	b	3000a4dc <__divsf3+0x2c>
3000a604:	e3a0c4ff 	mov	ip, #-16777216	; 0xff000000
3000a608:	e13200ac 	teq	r2, ip, lsr #1
3000a60c:	013300ac 	teqeq	r3, ip, lsr #1
3000a610:	0affffa3 	beq	3000a4a4 <__mulsf3+0x1b0>
3000a614:	e13200ac 	teq	r2, ip, lsr #1
3000a618:	1a000002 	bne	3000a628 <__divsf3+0x178>
3000a61c:	e1b02480 	movs	r2, r0, lsl #9
3000a620:	1affff9f 	bne	3000a4a4 <__mulsf3+0x1b0>
3000a624:	eaffff99 	b	3000a490 <__mulsf3+0x19c>
3000a628:	e13300ac 	teq	r3, ip, lsr #1
3000a62c:	1a000002 	bne	3000a63c <__divsf3+0x18c>
3000a630:	e1b03481 	movs	r3, r1, lsl #9
3000a634:	1affff9a 	bne	3000a4a4 <__mulsf3+0x1b0>
3000a638:	eaffff60 	b	3000a3c0 <__mulsf3+0xcc>
3000a63c:	e3d02102 	bics	r2, r0, #-2147483648	; 0x80000000
3000a640:	1affff92 	bne	3000a490 <__mulsf3+0x19c>
3000a644:	e3d13102 	bics	r3, r1, #-2147483648	; 0x80000000
3000a648:	1affff5c 	bne	3000a3c0 <__mulsf3+0xcc>
3000a64c:	eaffff94 	b	3000a4a4 <__mulsf3+0x1b0>

3000a650 <__udivdi3>:
3000a650:	e92d4ff0 	stmdb	sp!, {r4, r5, r6, r7, r8, r9, sl, fp, lr}
3000a654:	e59fa530 	ldr	sl, [pc, #1328]	; 3000ab8c <.text+0xab8c>
3000a658:	e2534000 	subs	r4, r3, #0	; 0x0
3000a65c:	e08fa00a 	add	sl, pc, sl
3000a660:	e1a08001 	mov	r8, r1
3000a664:	e1a06002 	mov	r6, r2
3000a668:	e24dd008 	sub	sp, sp, #8	; 0x8
3000a66c:	e58d0004 	str	r0, [sp, #4]
3000a670:	1a000046 	bne	3000a790 <__udivdi3+0x140>
3000a674:	e1520001 	cmp	r2, r1
3000a678:	9a00005b 	bls	3000a7ec <__udivdi3+0x19c>
3000a67c:	e3520801 	cmp	r2, #65536	; 0x10000
3000a680:	e1a00002 	mov	r0, r2
3000a684:	3a00012f 	bcc	3000ab48 <__udivdi3+0x4f8>
3000a688:	e3520401 	cmp	r2, #16777216	; 0x1000000
3000a68c:	23a0c018 	movcs	ip, #24	; 0x18
3000a690:	33a0c010 	movcc	ip, #16	; 0x10
3000a694:	e59f24f4 	ldr	r2, [pc, #1268]	; 3000ab90 <.text+0xab90>
3000a698:	e79a1002 	ldr	r1, [sl, r2]
3000a69c:	e1a00c30 	mov	r0, r0, lsr ip
3000a6a0:	e7d13000 	ldrb	r3, [r1, r0]
3000a6a4:	e083300c 	add	r3, r3, ip
3000a6a8:	e2732020 	rsbs	r2, r3, #32	; 0x20
3000a6ac:	0a000006 	beq	3000a6cc <__udivdi3+0x7c>
3000a6b0:	e59d0004 	ldr	r0, [sp, #4]
3000a6b4:	e2623020 	rsb	r3, r2, #32	; 0x20
3000a6b8:	e1a03330 	mov	r3, r0, lsr r3
3000a6bc:	e1a00210 	mov	r0, r0, lsl r2
3000a6c0:	e58d0004 	str	r0, [sp, #4]
3000a6c4:	e1838218 	orr	r8, r3, r8, lsl r2
3000a6c8:	e1a06216 	mov	r6, r6, lsl r2
3000a6cc:	e1a09826 	mov	r9, r6, lsr #16
3000a6d0:	e1a01009 	mov	r1, r9
3000a6d4:	e1a00008 	mov	r0, r8
3000a6d8:	ebffdb1c 	bl	30001350 <__umodsi3>
3000a6dc:	e1a01009 	mov	r1, r9
3000a6e0:	e1a04000 	mov	r4, r0
3000a6e4:	e1a00008 	mov	r0, r8
3000a6e8:	ebffdadc 	bl	30001260 <__udivsi3>
3000a6ec:	e1a07806 	mov	r7, r6, lsl #16
3000a6f0:	e1a07827 	mov	r7, r7, lsr #16
3000a6f4:	e0020097 	mul	r2, r7, r0
3000a6f8:	e59d1004 	ldr	r1, [sp, #4]
3000a6fc:	e1a03821 	mov	r3, r1, lsr #16
3000a700:	e1834804 	orr	r4, r3, r4, lsl #16
3000a704:	e1540002 	cmp	r4, r2
3000a708:	e1a08000 	mov	r8, r0
3000a70c:	2a000005 	bcs	3000a728 <__udivdi3+0xd8>
3000a710:	e0944006 	adds	r4, r4, r6
3000a714:	e2408001 	sub	r8, r0, #1	; 0x1
3000a718:	2a000002 	bcs	3000a728 <__udivdi3+0xd8>
3000a71c:	e1540002 	cmp	r4, r2
3000a720:	32488001 	subcc	r8, r8, #1	; 0x1
3000a724:	30844006 	addcc	r4, r4, r6
3000a728:	e0624004 	rsb	r4, r2, r4
3000a72c:	e1a01009 	mov	r1, r9
3000a730:	e1a00004 	mov	r0, r4
3000a734:	ebffdb05 	bl	30001350 <__umodsi3>
3000a738:	e1a01009 	mov	r1, r9
3000a73c:	e1a05000 	mov	r5, r0
3000a740:	e1a00004 	mov	r0, r4
3000a744:	ebffdac5 	bl	30001260 <__udivsi3>
3000a748:	e0020097 	mul	r2, r7, r0
3000a74c:	e59d1004 	ldr	r1, [sp, #4]
3000a750:	e1a03801 	mov	r3, r1, lsl #16
3000a754:	e1a03823 	mov	r3, r3, lsr #16
3000a758:	e1835805 	orr	r5, r3, r5, lsl #16
3000a75c:	e1550002 	cmp	r5, r2
3000a760:	2a000004 	bcs	3000a778 <__udivdi3+0x128>
3000a764:	e0955006 	adds	r5, r5, r6
3000a768:	e2400001 	sub	r0, r0, #1	; 0x1
3000a76c:	2a000001 	bcs	3000a778 <__udivdi3+0x128>
3000a770:	e1550002 	cmp	r5, r2
3000a774:	32400001 	subcc	r0, r0, #1	; 0x1
3000a778:	e180c808 	orr	ip, r0, r8, lsl #16
3000a77c:	e3a0b000 	mov	fp, #0	; 0x0
3000a780:	e1a0000c 	mov	r0, ip
3000a784:	e1a0100b 	mov	r1, fp
3000a788:	e28dd008 	add	sp, sp, #8	; 0x8
3000a78c:	e8bd8ff0 	ldmia	sp!, {r4, r5, r6, r7, r8, r9, sl, fp, pc}
3000a790:	e1540001 	cmp	r4, r1
3000a794:	83a0b000 	movhi	fp, #0	; 0x0
3000a798:	81a0c00b 	movhi	ip, fp
3000a79c:	8afffff7 	bhi	3000a780 <__udivdi3+0x130>
3000a7a0:	e3540801 	cmp	r4, #65536	; 0x10000
3000a7a4:	3a000090 	bcc	3000a9ec <__udivdi3+0x39c>
3000a7a8:	e3540401 	cmp	r4, #16777216	; 0x1000000
3000a7ac:	23a0c018 	movcs	ip, #24	; 0x18
3000a7b0:	33a0c010 	movcc	ip, #16	; 0x10
3000a7b4:	e1a00c34 	mov	r0, r4, lsr ip
3000a7b8:	e59f23d0 	ldr	r2, [pc, #976]	; 3000ab90 <.text+0xab90>
3000a7bc:	e79a1002 	ldr	r1, [sl, r2]
3000a7c0:	e7d13000 	ldrb	r3, [r1, r0]
3000a7c4:	e083300c 	add	r3, r3, ip
3000a7c8:	e2732020 	rsbs	r2, r3, #32	; 0x20
3000a7cc:	1a000090 	bne	3000aa14 <__udivdi3+0x3c4>
3000a7d0:	e59d3004 	ldr	r3, [sp, #4]
3000a7d4:	e1580004 	cmp	r8, r4
3000a7d8:	91530006 	cmpls	r3, r6
3000a7dc:	23a0c001 	movcs	ip, #1	; 0x1
3000a7e0:	31a0c002 	movcc	ip, r2
3000a7e4:	e3a0b000 	mov	fp, #0	; 0x0
3000a7e8:	eaffffe4 	b	3000a780 <__udivdi3+0x130>
3000a7ec:	e3520000 	cmp	r2, #0	; 0x0
3000a7f0:	0a00003a 	beq	3000a8e0 <__udivdi3+0x290>
3000a7f4:	e3560801 	cmp	r6, #65536	; 0x10000
3000a7f8:	2a00003e 	bcs	3000a8f8 <__udivdi3+0x2a8>
3000a7fc:	e35600ff 	cmp	r6, #255	; 0xff
3000a800:	83a0c008 	movhi	ip, #8	; 0x8
3000a804:	93a0c000 	movls	ip, #0	; 0x0
3000a808:	e1a00c36 	mov	r0, r6, lsr ip
3000a80c:	e59f237c 	ldr	r2, [pc, #892]	; 3000ab90 <.text+0xab90>
3000a810:	e79a1002 	ldr	r1, [sl, r2]
3000a814:	e7d13000 	ldrb	r3, [r1, r0]
3000a818:	e083300c 	add	r3, r3, ip
3000a81c:	e2732020 	rsbs	r2, r3, #32	; 0x20
3000a820:	1a00003e 	bne	3000a920 <__udivdi3+0x2d0>
3000a824:	e1a09806 	mov	r9, r6, lsl #16
3000a828:	e0668008 	rsb	r8, r6, r8
3000a82c:	e1a09829 	mov	r9, r9, lsr #16
3000a830:	e3a0b001 	mov	fp, #1	; 0x1
3000a834:	e1a07826 	mov	r7, r6, lsr #16
3000a838:	e1a01007 	mov	r1, r7
3000a83c:	e1a00008 	mov	r0, r8
3000a840:	ebffdac2 	bl	30001350 <__umodsi3>
3000a844:	e1a01007 	mov	r1, r7
3000a848:	e1a04000 	mov	r4, r0
3000a84c:	e1a00008 	mov	r0, r8
3000a850:	ebffda82 	bl	30001260 <__udivsi3>
3000a854:	e0020099 	mul	r2, r9, r0
3000a858:	e1a08000 	mov	r8, r0
3000a85c:	e59d0004 	ldr	r0, [sp, #4]
3000a860:	e1a03820 	mov	r3, r0, lsr #16
3000a864:	e1834804 	orr	r4, r3, r4, lsl #16
3000a868:	e1540002 	cmp	r4, r2
3000a86c:	2a000005 	bcs	3000a888 <__udivdi3+0x238>
3000a870:	e0944006 	adds	r4, r4, r6
3000a874:	e2488001 	sub	r8, r8, #1	; 0x1
3000a878:	2a000002 	bcs	3000a888 <__udivdi3+0x238>
3000a87c:	e1540002 	cmp	r4, r2
3000a880:	32488001 	subcc	r8, r8, #1	; 0x1
3000a884:	30844006 	addcc	r4, r4, r6
3000a888:	e0624004 	rsb	r4, r2, r4
3000a88c:	e1a01007 	mov	r1, r7
3000a890:	e1a00004 	mov	r0, r4
3000a894:	ebffdaad 	bl	30001350 <__umodsi3>
3000a898:	e1a01007 	mov	r1, r7
3000a89c:	e1a05000 	mov	r5, r0
3000a8a0:	e1a00004 	mov	r0, r4
3000a8a4:	ebffda6d 	bl	30001260 <__udivsi3>
3000a8a8:	e0020099 	mul	r2, r9, r0
3000a8ac:	e59d1004 	ldr	r1, [sp, #4]
3000a8b0:	e1a03801 	mov	r3, r1, lsl #16
3000a8b4:	e1a03823 	mov	r3, r3, lsr #16
3000a8b8:	e1835805 	orr	r5, r3, r5, lsl #16
3000a8bc:	e1550002 	cmp	r5, r2
3000a8c0:	2a000004 	bcs	3000a8d8 <__udivdi3+0x288>
3000a8c4:	e0955006 	adds	r5, r5, r6
3000a8c8:	e2400001 	sub	r0, r0, #1	; 0x1
3000a8cc:	2a000001 	bcs	3000a8d8 <__udivdi3+0x288>
3000a8d0:	e1550002 	cmp	r5, r2
3000a8d4:	32400001 	subcc	r0, r0, #1	; 0x1
3000a8d8:	e180c808 	orr	ip, r0, r8, lsl #16
3000a8dc:	eaffffa7 	b	3000a780 <__udivdi3+0x130>
3000a8e0:	e1a01002 	mov	r1, r2
3000a8e4:	e3a00001 	mov	r0, #1	; 0x1
3000a8e8:	ebffda5c 	bl	30001260 <__udivsi3>
3000a8ec:	e1a06000 	mov	r6, r0
3000a8f0:	e3560801 	cmp	r6, #65536	; 0x10000
3000a8f4:	3affffc0 	bcc	3000a7fc <__udivdi3+0x1ac>
3000a8f8:	e59f2290 	ldr	r2, [pc, #656]	; 3000ab90 <.text+0xab90>
3000a8fc:	e3560401 	cmp	r6, #16777216	; 0x1000000
3000a900:	23a0c018 	movcs	ip, #24	; 0x18
3000a904:	33a0c010 	movcc	ip, #16	; 0x10
3000a908:	e79a1002 	ldr	r1, [sl, r2]
3000a90c:	e1a00c36 	mov	r0, r6, lsr ip
3000a910:	e7d13000 	ldrb	r3, [r1, r0]
3000a914:	e083300c 	add	r3, r3, ip
3000a918:	e2732020 	rsbs	r2, r3, #32	; 0x20
3000a91c:	0affffc0 	beq	3000a824 <__udivdi3+0x1d4>
3000a920:	e59d0004 	ldr	r0, [sp, #4]
3000a924:	e2621020 	rsb	r1, r2, #32	; 0x20
3000a928:	e1a03130 	mov	r3, r0, lsr r1
3000a92c:	e1a06216 	mov	r6, r6, lsl r2
3000a930:	e1a05138 	mov	r5, r8, lsr r1
3000a934:	e1838218 	orr	r8, r3, r8, lsl r2
3000a938:	e59d3004 	ldr	r3, [sp, #4]
3000a93c:	e1a07826 	mov	r7, r6, lsr #16
3000a940:	e1a03213 	mov	r3, r3, lsl r2
3000a944:	e1a01007 	mov	r1, r7
3000a948:	e1a00005 	mov	r0, r5
3000a94c:	e58d3004 	str	r3, [sp, #4]
3000a950:	ebffda7e 	bl	30001350 <__umodsi3>
3000a954:	e1a01007 	mov	r1, r7
3000a958:	e1a04000 	mov	r4, r0
3000a95c:	e1a00005 	mov	r0, r5
3000a960:	ebffda3e 	bl	30001260 <__udivsi3>
3000a964:	e1a09806 	mov	r9, r6, lsl #16
3000a968:	e1a09829 	mov	r9, r9, lsr #16
3000a96c:	e0020099 	mul	r2, r9, r0
3000a970:	e1a03828 	mov	r3, r8, lsr #16
3000a974:	e1834804 	orr	r4, r3, r4, lsl #16
3000a978:	e1540002 	cmp	r4, r2
3000a97c:	e1a0b000 	mov	fp, r0
3000a980:	2a000002 	bcs	3000a990 <__udivdi3+0x340>
3000a984:	e0944006 	adds	r4, r4, r6
3000a988:	e240b001 	sub	fp, r0, #1	; 0x1
3000a98c:	3a000071 	bcc	3000ab58 <__udivdi3+0x508>
3000a990:	e0624004 	rsb	r4, r2, r4
3000a994:	e1a01007 	mov	r1, r7
3000a998:	e1a00004 	mov	r0, r4
3000a99c:	ebffda6b 	bl	30001350 <__umodsi3>
3000a9a0:	e1a01007 	mov	r1, r7
3000a9a4:	e1a05000 	mov	r5, r0
3000a9a8:	e1a00004 	mov	r0, r4
3000a9ac:	ebffda2b 	bl	30001260 <__udivsi3>
3000a9b0:	e0020099 	mul	r2, r9, r0
3000a9b4:	e1a03808 	mov	r3, r8, lsl #16
3000a9b8:	e1a03823 	mov	r3, r3, lsr #16
3000a9bc:	e1835805 	orr	r5, r3, r5, lsl #16
3000a9c0:	e1550002 	cmp	r5, r2
3000a9c4:	2a000005 	bcs	3000a9e0 <__udivdi3+0x390>
3000a9c8:	e0955006 	adds	r5, r5, r6
3000a9cc:	e2400001 	sub	r0, r0, #1	; 0x1
3000a9d0:	2a000002 	bcs	3000a9e0 <__udivdi3+0x390>
3000a9d4:	e1550002 	cmp	r5, r2
3000a9d8:	32400001 	subcc	r0, r0, #1	; 0x1
3000a9dc:	30855006 	addcc	r5, r5, r6
3000a9e0:	e180b80b 	orr	fp, r0, fp, lsl #16
3000a9e4:	e0628005 	rsb	r8, r2, r5
3000a9e8:	eaffff92 	b	3000a838 <__udivdi3+0x1e8>
3000a9ec:	e59f219c 	ldr	r2, [pc, #412]	; 3000ab90 <.text+0xab90>
3000a9f0:	e35400ff 	cmp	r4, #255	; 0xff
3000a9f4:	83a0c008 	movhi	ip, #8	; 0x8
3000a9f8:	93a0c000 	movls	ip, #0	; 0x0
3000a9fc:	e79a1002 	ldr	r1, [sl, r2]
3000aa00:	e1a00c34 	mov	r0, r4, lsr ip
3000aa04:	e7d13000 	ldrb	r3, [r1, r0]
3000aa08:	e083300c 	add	r3, r3, ip
3000aa0c:	e2732020 	rsbs	r2, r3, #32	; 0x20
3000aa10:	0affff6e 	beq	3000a7d0 <__udivdi3+0x180>
3000aa14:	e2621020 	rsb	r1, r2, #32	; 0x20
3000aa18:	e59d0004 	ldr	r0, [sp, #4]
3000aa1c:	e1a03136 	mov	r3, r6, lsr r1
3000aa20:	e1834214 	orr	r4, r3, r4, lsl r2
3000aa24:	e1a03130 	mov	r3, r0, lsr r1
3000aa28:	e1a05138 	mov	r5, r8, lsr r1
3000aa2c:	e1838218 	orr	r8, r3, r8, lsl r2
3000aa30:	e59d3004 	ldr	r3, [sp, #4]
3000aa34:	e1a0b824 	mov	fp, r4, lsr #16
3000aa38:	e1a03213 	mov	r3, r3, lsl r2
3000aa3c:	e1a0100b 	mov	r1, fp
3000aa40:	e1a00005 	mov	r0, r5
3000aa44:	e58d3004 	str	r3, [sp, #4]
3000aa48:	e1a06216 	mov	r6, r6, lsl r2
3000aa4c:	ebffda3f 	bl	30001350 <__umodsi3>
3000aa50:	e1a0100b 	mov	r1, fp
3000aa54:	e1a07000 	mov	r7, r0
3000aa58:	e1a00005 	mov	r0, r5
3000aa5c:	ebffd9ff 	bl	30001260 <__udivsi3>
3000aa60:	e1a09804 	mov	r9, r4, lsl #16
3000aa64:	e1a09829 	mov	r9, r9, lsr #16
3000aa68:	e1a02000 	mov	r2, r0
3000aa6c:	e0020299 	mul	r2, r9, r2
3000aa70:	e1a03828 	mov	r3, r8, lsr #16
3000aa74:	e1837807 	orr	r7, r3, r7, lsl #16
3000aa78:	e1570002 	cmp	r7, r2
3000aa7c:	e58d0000 	str	r0, [sp]
3000aa80:	2a000003 	bcs	3000aa94 <__udivdi3+0x444>
3000aa84:	e2400001 	sub	r0, r0, #1	; 0x1
3000aa88:	e0977004 	adds	r7, r7, r4
3000aa8c:	e58d0000 	str	r0, [sp]
3000aa90:	3a000038 	bcc	3000ab78 <__udivdi3+0x528>
3000aa94:	e0627007 	rsb	r7, r2, r7
3000aa98:	e1a0100b 	mov	r1, fp
3000aa9c:	e1a00007 	mov	r0, r7
3000aaa0:	ebffda2a 	bl	30001350 <__umodsi3>
3000aaa4:	e1a0100b 	mov	r1, fp
3000aaa8:	e1a05000 	mov	r5, r0
3000aaac:	e1a00007 	mov	r0, r7
3000aab0:	ebffd9ea 	bl	30001260 <__udivsi3>
3000aab4:	e0020099 	mul	r2, r9, r0
3000aab8:	e1a03808 	mov	r3, r8, lsl #16
3000aabc:	e1a03823 	mov	r3, r3, lsr #16
3000aac0:	e1835805 	orr	r5, r3, r5, lsl #16
3000aac4:	e1550002 	cmp	r5, r2
3000aac8:	2a000002 	bcs	3000aad8 <__udivdi3+0x488>
3000aacc:	e0955004 	adds	r5, r5, r4
3000aad0:	e2400001 	sub	r0, r0, #1	; 0x1
3000aad4:	3a000023 	bcc	3000ab68 <__udivdi3+0x518>
3000aad8:	e59d1000 	ldr	r1, [sp]
3000aadc:	e0625005 	rsb	r5, r2, r5
3000aae0:	e180c801 	orr	ip, r0, r1, lsl #16
3000aae4:	e1a0082c 	mov	r0, ip, lsr #16
3000aae8:	e1a03826 	mov	r3, r6, lsr #16
3000aaec:	e1cc1800 	bic	r1, ip, r0, lsl #16
3000aaf0:	e1c62803 	bic	r2, r6, r3, lsl #16
3000aaf4:	e00e0291 	mul	lr, r1, r2
3000aaf8:	e0020290 	mul	r2, r0, r2
3000aafc:	e0010193 	mul	r1, r3, r1
3000ab00:	e0030390 	mul	r3, r0, r3
3000ab04:	e0921001 	adds	r1, r2, r1
3000ab08:	22833801 	addcs	r3, r3, #65536	; 0x10000
3000ab0c:	e09ee801 	adds	lr, lr, r1, lsl #16
3000ab10:	e0a33821 	adc	r3, r3, r1, lsr #16
3000ab14:	e1530005 	cmp	r3, r5
3000ab18:	8a000007 	bhi	3000ab3c <__udivdi3+0x4ec>
3000ab1c:	e59d2004 	ldr	r2, [sp, #4]
3000ab20:	13a03000 	movne	r3, #0	; 0x0
3000ab24:	03a03001 	moveq	r3, #1	; 0x1
3000ab28:	e15e0002 	cmp	lr, r2
3000ab2c:	93a03000 	movls	r3, #0	; 0x0
3000ab30:	82033001 	andhi	r3, r3, #1	; 0x1
3000ab34:	e3530000 	cmp	r3, #0	; 0x0
3000ab38:	0affff0f 	beq	3000a77c <__udivdi3+0x12c>
3000ab3c:	e24cc001 	sub	ip, ip, #1	; 0x1
3000ab40:	e3a0b000 	mov	fp, #0	; 0x0
3000ab44:	eaffff0d 	b	3000a780 <__udivdi3+0x130>
3000ab48:	e35200ff 	cmp	r2, #255	; 0xff
3000ab4c:	83a0c008 	movhi	ip, #8	; 0x8
3000ab50:	93a0c000 	movls	ip, #0	; 0x0
3000ab54:	eafffece 	b	3000a694 <__udivdi3+0x44>
3000ab58:	e1540002 	cmp	r4, r2
3000ab5c:	324bb001 	subcc	fp, fp, #1	; 0x1
3000ab60:	30844006 	addcc	r4, r4, r6
3000ab64:	eaffff89 	b	3000a990 <__udivdi3+0x340>
3000ab68:	e1550002 	cmp	r5, r2
3000ab6c:	30855004 	addcc	r5, r5, r4
3000ab70:	32400001 	subcc	r0, r0, #1	; 0x1
3000ab74:	eaffffd7 	b	3000aad8 <__udivdi3+0x488>
3000ab78:	e1570002 	cmp	r7, r2
3000ab7c:	32400001 	subcc	r0, r0, #1	; 0x1
3000ab80:	30877004 	addcc	r7, r7, r4
3000ab84:	358d0000 	strcc	r0, [sp]
3000ab88:	eaffffc1 	b	3000aa94 <__udivdi3+0x444>
3000ab8c:	000025a0 	andeq	r2, r0, r0, lsr #11
3000ab90:	00000000 	andeq	r0, r0, r0

3000ab94 <__umoddi3>:
3000ab94:	e92d4ff0 	stmdb	sp!, {r4, r5, r6, r7, r8, r9, sl, fp, lr}
3000ab98:	e3a06000 	mov	r6, #0	; 0x0
3000ab9c:	e3a05000 	mov	r5, #0	; 0x0
3000aba0:	e59fa58c 	ldr	sl, [pc, #1420]	; 3000b134 <.text+0xb134>
3000aba4:	e2534000 	subs	r4, r3, #0	; 0x0
3000aba8:	e08fa00a 	add	sl, pc, sl
3000abac:	e1a09000 	mov	r9, r0
3000abb0:	e24dd024 	sub	sp, sp, #36	; 0x24
3000abb4:	e28dc010 	add	ip, sp, #16	; 0x10
3000abb8:	e88c0060 	stmia	ip, {r5, r6}
3000abbc:	e28d501c 	add	r5, sp, #28	; 0x1c
3000abc0:	e1a06002 	mov	r6, r2
3000abc4:	e58d5018 	str	r5, [sp, #24]
3000abc8:	e1a05001 	mov	r5, r1
3000abcc:	1a000047 	bne	3000acf0 <__umoddi3+0x15c>
3000abd0:	e1520001 	cmp	r2, r1
3000abd4:	9a00006e 	bls	3000ad94 <__umoddi3+0x200>
3000abd8:	e3520801 	cmp	r2, #65536	; 0x10000
3000abdc:	e1a00002 	mov	r0, r2
3000abe0:	3a00013a 	bcc	3000b0d0 <__umoddi3+0x53c>
3000abe4:	e3520401 	cmp	r2, #16777216	; 0x1000000
3000abe8:	23a0c018 	movcs	ip, #24	; 0x18
3000abec:	33a0c010 	movcc	ip, #16	; 0x10
3000abf0:	e59f2540 	ldr	r2, [pc, #1344]	; 3000b138 <.text+0xb138>
3000abf4:	e79a1002 	ldr	r1, [sl, r2]
3000abf8:	e1a00c30 	mov	r0, r0, lsr ip
3000abfc:	e7d13000 	ldrb	r3, [r1, r0]
3000ac00:	e083300c 	add	r3, r3, ip
3000ac04:	e2733020 	rsbs	r3, r3, #32	; 0x20
3000ac08:	e58d3008 	str	r3, [sp, #8]
3000ac0c:	0a000005 	beq	3000ac28 <__umoddi3+0x94>
3000ac10:	e59dc008 	ldr	ip, [sp, #8]
3000ac14:	e2633020 	rsb	r3, r3, #32	; 0x20
3000ac18:	e1a03339 	mov	r3, r9, lsr r3
3000ac1c:	e1835c15 	orr	r5, r3, r5, lsl ip
3000ac20:	e1a06c16 	mov	r6, r6, lsl ip
3000ac24:	e1a09c19 	mov	r9, r9, lsl ip
3000ac28:	e1a08826 	mov	r8, r6, lsr #16
3000ac2c:	e1a01008 	mov	r1, r8
3000ac30:	e1a00005 	mov	r0, r5
3000ac34:	ebffd9c5 	bl	30001350 <__umodsi3>
3000ac38:	e1a01008 	mov	r1, r8
3000ac3c:	e1a04000 	mov	r4, r0
3000ac40:	e1a00005 	mov	r0, r5
3000ac44:	ebffd985 	bl	30001260 <__udivsi3>
3000ac48:	e1a07806 	mov	r7, r6, lsl #16
3000ac4c:	e1a07827 	mov	r7, r7, lsr #16
3000ac50:	e0020097 	mul	r2, r7, r0
3000ac54:	e1a03829 	mov	r3, r9, lsr #16
3000ac58:	e1834804 	orr	r4, r3, r4, lsl #16
3000ac5c:	e1540002 	cmp	r4, r2
3000ac60:	2a000003 	bcs	3000ac74 <__umoddi3+0xe0>
3000ac64:	e0944006 	adds	r4, r4, r6
3000ac68:	2a000001 	bcs	3000ac74 <__umoddi3+0xe0>
3000ac6c:	e1540002 	cmp	r4, r2
3000ac70:	30844006 	addcc	r4, r4, r6
3000ac74:	e0624004 	rsb	r4, r2, r4
3000ac78:	e1a01008 	mov	r1, r8
3000ac7c:	e1a00004 	mov	r0, r4
3000ac80:	ebffd9b2 	bl	30001350 <__umodsi3>
3000ac84:	e1a01008 	mov	r1, r8
3000ac88:	e1a05000 	mov	r5, r0
3000ac8c:	e1a00004 	mov	r0, r4
3000ac90:	ebffd972 	bl	30001260 <__udivsi3>
3000ac94:	e0020097 	mul	r2, r7, r0
3000ac98:	e1a03809 	mov	r3, r9, lsl #16
3000ac9c:	e1a03823 	mov	r3, r3, lsr #16
3000aca0:	e1835805 	orr	r5, r3, r5, lsl #16
3000aca4:	e1550002 	cmp	r5, r2
3000aca8:	2a000003 	bcs	3000acbc <__umoddi3+0x128>
3000acac:	e0955006 	adds	r5, r5, r6
3000acb0:	2a000001 	bcs	3000acbc <__umoddi3+0x128>
3000acb4:	e1550002 	cmp	r5, r2
3000acb8:	30855006 	addcc	r5, r5, r6
3000acbc:	e0629005 	rsb	r9, r2, r5
3000acc0:	e59d2018 	ldr	r2, [sp, #24]
3000acc4:	e3520000 	cmp	r2, #0	; 0x0
3000acc8:	0a000104 	beq	3000b0e0 <__umoddi3+0x54c>
3000accc:	e59d3008 	ldr	r3, [sp, #8]
3000acd0:	e3a04000 	mov	r4, #0	; 0x0
3000acd4:	e1a09339 	mov	r9, r9, lsr r3
3000acd8:	e58d9010 	str	r9, [sp, #16]
3000acdc:	e28d5010 	add	r5, sp, #16	; 0x10
3000ace0:	e1a0c002 	mov	ip, r2
3000ace4:	e58d4014 	str	r4, [sp, #20]
3000ace8:	e8950060 	ldmia	r5, {r5, r6}
3000acec:	ea000024 	b	3000ad84 <__umoddi3+0x1f0>
3000acf0:	e1540001 	cmp	r4, r1
3000acf4:	9a000007 	bls	3000ad18 <__umoddi3+0x184>
3000acf8:	e58d0010 	str	r0, [sp, #16]
3000acfc:	e28dc010 	add	ip, sp, #16	; 0x10
3000ad00:	e28d2020 	add	r2, sp, #32	; 0x20
3000ad04:	e58d1014 	str	r1, [sp, #20]
3000ad08:	e89c0003 	ldmia	ip, {r0, r1}
3000ad0c:	e8020003 	stmda	r2, {r0, r1}
3000ad10:	e28dd024 	add	sp, sp, #36	; 0x24
3000ad14:	e8bd8ff0 	ldmia	sp!, {r4, r5, r6, r7, r8, r9, sl, fp, pc}
3000ad18:	e3540801 	cmp	r4, #65536	; 0x10000
3000ad1c:	3a00007e 	bcc	3000af1c <__umoddi3+0x388>
3000ad20:	e3540401 	cmp	r4, #16777216	; 0x1000000
3000ad24:	23a0c018 	movcs	ip, #24	; 0x18
3000ad28:	33a0c010 	movcc	ip, #16	; 0x10
3000ad2c:	e1a00c34 	mov	r0, r4, lsr ip
3000ad30:	e59f2400 	ldr	r2, [pc, #1024]	; 3000b138 <.text+0xb138>
3000ad34:	e79a1002 	ldr	r1, [sl, r2]
3000ad38:	e7d13000 	ldrb	r3, [r1, r0]
3000ad3c:	e083300c 	add	r3, r3, ip
3000ad40:	e2733020 	rsbs	r3, r3, #32	; 0x20
3000ad44:	e58d3008 	str	r3, [sp, #8]
3000ad48:	1a00007e 	bne	3000af48 <__umoddi3+0x3b4>
3000ad4c:	e1550004 	cmp	r5, r4
3000ad50:	91590006 	cmpls	r9, r6
3000ad54:	3a000002 	bcc	3000ad64 <__umoddi3+0x1d0>
3000ad58:	e0593006 	subs	r3, r9, r6
3000ad5c:	e0c55004 	sbc	r5, r5, r4
3000ad60:	e1a09003 	mov	r9, r3
3000ad64:	e59d4018 	ldr	r4, [sp, #24]
3000ad68:	e3540000 	cmp	r4, #0	; 0x0
3000ad6c:	0a0000ed 	beq	3000b128 <__umoddi3+0x594>
3000ad70:	e58d5014 	str	r5, [sp, #20]
3000ad74:	e28d5010 	add	r5, sp, #16	; 0x10
3000ad78:	e1a0c004 	mov	ip, r4
3000ad7c:	e58d9010 	str	r9, [sp, #16]
3000ad80:	e8950060 	ldmia	r5, {r5, r6}
3000ad84:	e88c0060 	stmia	ip, {r5, r6}
3000ad88:	e28d6020 	add	r6, sp, #32	; 0x20
3000ad8c:	e8160003 	ldmda	r6, {r0, r1}
3000ad90:	eaffffde 	b	3000ad10 <__umoddi3+0x17c>
3000ad94:	e3520000 	cmp	r2, #0	; 0x0
3000ad98:	0a000055 	beq	3000aef4 <__umoddi3+0x360>
3000ad9c:	e3560801 	cmp	r6, #65536	; 0x10000
3000ada0:	2a000059 	bcs	3000af0c <__umoddi3+0x378>
3000ada4:	e35600ff 	cmp	r6, #255	; 0xff
3000ada8:	83a0c008 	movhi	ip, #8	; 0x8
3000adac:	93a0c000 	movls	ip, #0	; 0x0
3000adb0:	e59f2380 	ldr	r2, [pc, #896]	; 3000b138 <.text+0xb138>
3000adb4:	e79a1002 	ldr	r1, [sl, r2]
3000adb8:	e1a00c36 	mov	r0, r6, lsr ip
3000adbc:	e7d13000 	ldrb	r3, [r1, r0]
3000adc0:	e083300c 	add	r3, r3, ip
3000adc4:	e2733020 	rsbs	r3, r3, #32	; 0x20
3000adc8:	01a0b806 	moveq	fp, r6, lsl #16
3000adcc:	e58d3008 	str	r3, [sp, #8]
3000add0:	00665005 	rsbeq	r5, r6, r5
3000add4:	01a0b82b 	moveq	fp, fp, lsr #16
3000add8:	01a08826 	moveq	r8, r6, lsr #16
3000addc:	0a00002a 	beq	3000ae8c <__umoddi3+0x2f8>
3000ade0:	e59d2008 	ldr	r2, [sp, #8]
3000ade4:	e2623020 	rsb	r3, r2, #32	; 0x20
3000ade8:	e1a06216 	mov	r6, r6, lsl r2
3000adec:	e1a07335 	mov	r7, r5, lsr r3
3000adf0:	e1a08826 	mov	r8, r6, lsr #16
3000adf4:	e58d300c 	str	r3, [sp, #12]
3000adf8:	e1a01008 	mov	r1, r8
3000adfc:	e1a03339 	mov	r3, r9, lsr r3
3000ae00:	e1a00007 	mov	r0, r7
3000ae04:	e1835215 	orr	r5, r3, r5, lsl r2
3000ae08:	ebffd950 	bl	30001350 <__umodsi3>
3000ae0c:	e1a01008 	mov	r1, r8
3000ae10:	e1a04000 	mov	r4, r0
3000ae14:	e1a00007 	mov	r0, r7
3000ae18:	ebffd910 	bl	30001260 <__udivsi3>
3000ae1c:	e1a0b806 	mov	fp, r6, lsl #16
3000ae20:	e1a0b82b 	mov	fp, fp, lsr #16
3000ae24:	e002009b 	mul	r2, fp, r0
3000ae28:	e1a03825 	mov	r3, r5, lsr #16
3000ae2c:	e1834804 	orr	r4, r3, r4, lsl #16
3000ae30:	e59dc008 	ldr	ip, [sp, #8]
3000ae34:	e1540002 	cmp	r4, r2
3000ae38:	e1a09c19 	mov	r9, r9, lsl ip
3000ae3c:	2a000001 	bcs	3000ae48 <__umoddi3+0x2b4>
3000ae40:	e0944006 	adds	r4, r4, r6
3000ae44:	3a0000b4 	bcc	3000b11c <__umoddi3+0x588>
3000ae48:	e0624004 	rsb	r4, r2, r4
3000ae4c:	e1a01008 	mov	r1, r8
3000ae50:	e1a00004 	mov	r0, r4
3000ae54:	ebffd93d 	bl	30001350 <__umodsi3>
3000ae58:	e1a01008 	mov	r1, r8
3000ae5c:	e1a07000 	mov	r7, r0
3000ae60:	e1a00004 	mov	r0, r4
3000ae64:	ebffd8fd 	bl	30001260 <__udivsi3>
3000ae68:	e002009b 	mul	r2, fp, r0
3000ae6c:	e1a03805 	mov	r3, r5, lsl #16
3000ae70:	e1a03823 	mov	r3, r3, lsr #16
3000ae74:	e1837807 	orr	r7, r3, r7, lsl #16
3000ae78:	e1570002 	cmp	r7, r2
3000ae7c:	2a000001 	bcs	3000ae88 <__umoddi3+0x2f4>
3000ae80:	e0977006 	adds	r7, r7, r6
3000ae84:	3a0000a1 	bcc	3000b110 <__umoddi3+0x57c>
3000ae88:	e0625007 	rsb	r5, r2, r7
3000ae8c:	e1a01008 	mov	r1, r8
3000ae90:	e1a00005 	mov	r0, r5
3000ae94:	ebffd92d 	bl	30001350 <__umodsi3>
3000ae98:	e1a01008 	mov	r1, r8
3000ae9c:	e1a04000 	mov	r4, r0
3000aea0:	e1a00005 	mov	r0, r5
3000aea4:	ebffd8ed 	bl	30001260 <__udivsi3>
3000aea8:	e002009b 	mul	r2, fp, r0
3000aeac:	e1a03829 	mov	r3, r9, lsr #16
3000aeb0:	e1834804 	orr	r4, r3, r4, lsl #16
3000aeb4:	e1540002 	cmp	r4, r2
3000aeb8:	2a000003 	bcs	3000aecc <__umoddi3+0x338>
3000aebc:	e0944006 	adds	r4, r4, r6
3000aec0:	2a000001 	bcs	3000aecc <__umoddi3+0x338>
3000aec4:	e1540002 	cmp	r4, r2
3000aec8:	30844006 	addcc	r4, r4, r6
3000aecc:	e0624004 	rsb	r4, r2, r4
3000aed0:	e1a01008 	mov	r1, r8
3000aed4:	e1a00004 	mov	r0, r4
3000aed8:	ebffd91c 	bl	30001350 <__umodsi3>
3000aedc:	e1a01008 	mov	r1, r8
3000aee0:	e1a05000 	mov	r5, r0
3000aee4:	e1a00004 	mov	r0, r4
3000aee8:	ebffd8dc 	bl	30001260 <__udivsi3>
3000aeec:	e002009b 	mul	r2, fp, r0
3000aef0:	eaffff68 	b	3000ac98 <__umoddi3+0x104>
3000aef4:	e1a01002 	mov	r1, r2
3000aef8:	e3a00001 	mov	r0, #1	; 0x1
3000aefc:	ebffd8d7 	bl	30001260 <__udivsi3>
3000af00:	e1a06000 	mov	r6, r0
3000af04:	e3560801 	cmp	r6, #65536	; 0x10000
3000af08:	3affffa5 	bcc	3000ada4 <__umoddi3+0x210>
3000af0c:	e3560401 	cmp	r6, #16777216	; 0x1000000
3000af10:	23a0c018 	movcs	ip, #24	; 0x18
3000af14:	33a0c010 	movcc	ip, #16	; 0x10
3000af18:	eaffffa4 	b	3000adb0 <__umoddi3+0x21c>
3000af1c:	e59f2214 	ldr	r2, [pc, #532]	; 3000b138 <.text+0xb138>
3000af20:	e35400ff 	cmp	r4, #255	; 0xff
3000af24:	83a0c008 	movhi	ip, #8	; 0x8
3000af28:	93a0c000 	movls	ip, #0	; 0x0
3000af2c:	e79a1002 	ldr	r1, [sl, r2]
3000af30:	e1a00c34 	mov	r0, r4, lsr ip
3000af34:	e7d13000 	ldrb	r3, [r1, r0]
3000af38:	e083300c 	add	r3, r3, ip
3000af3c:	e2733020 	rsbs	r3, r3, #32	; 0x20
3000af40:	e58d3008 	str	r3, [sp, #8]
3000af44:	0affff80 	beq	3000ad4c <__umoddi3+0x1b8>
3000af48:	e59dc008 	ldr	ip, [sp, #8]
3000af4c:	e59d2008 	ldr	r2, [sp, #8]
3000af50:	e26cc020 	rsb	ip, ip, #32	; 0x20
3000af54:	e1a03c36 	mov	r3, r6, lsr ip
3000af58:	e1834214 	orr	r4, r3, r4, lsl r2
3000af5c:	e1a03824 	mov	r3, r4, lsr #16
3000af60:	e1a07c35 	mov	r7, r5, lsr ip
3000af64:	e58d3004 	str	r3, [sp, #4]
3000af68:	e59d1004 	ldr	r1, [sp, #4]
3000af6c:	e1a03c39 	mov	r3, r9, lsr ip
3000af70:	e1a00007 	mov	r0, r7
3000af74:	e1835215 	orr	r5, r3, r5, lsl r2
3000af78:	e58dc00c 	str	ip, [sp, #12]
3000af7c:	ebffd8f3 	bl	30001350 <__umodsi3>
3000af80:	e59d1004 	ldr	r1, [sp, #4]
3000af84:	e1a08000 	mov	r8, r0
3000af88:	e1a00007 	mov	r0, r7
3000af8c:	ebffd8b3 	bl	30001260 <__udivsi3>
3000af90:	e1a0b804 	mov	fp, r4, lsl #16
3000af94:	e1a0b82b 	mov	fp, fp, lsr #16
3000af98:	e1a02000 	mov	r2, r0
3000af9c:	e002029b 	mul	r2, fp, r2
3000afa0:	e1a03825 	mov	r3, r5, lsr #16
3000afa4:	e59dc008 	ldr	ip, [sp, #8]
3000afa8:	e1838808 	orr	r8, r3, r8, lsl #16
3000afac:	e1580002 	cmp	r8, r2
3000afb0:	e58d0000 	str	r0, [sp]
3000afb4:	e1a06c16 	mov	r6, r6, lsl ip
3000afb8:	e1a09c19 	mov	r9, r9, lsl ip
3000afbc:	2a000003 	bcs	3000afd0 <__umoddi3+0x43c>
3000afc0:	e2403001 	sub	r3, r0, #1	; 0x1
3000afc4:	e0988004 	adds	r8, r8, r4
3000afc8:	e58d3000 	str	r3, [sp]
3000afcc:	3a00004a 	bcc	3000b0fc <__umoddi3+0x568>
3000afd0:	e0628008 	rsb	r8, r2, r8
3000afd4:	e59d1004 	ldr	r1, [sp, #4]
3000afd8:	e1a00008 	mov	r0, r8
3000afdc:	ebffd8db 	bl	30001350 <__umodsi3>
3000afe0:	e59d1004 	ldr	r1, [sp, #4]
3000afe4:	e1a07000 	mov	r7, r0
3000afe8:	e1a00008 	mov	r0, r8
3000afec:	ebffd89b 	bl	30001260 <__udivsi3>
3000aff0:	e002009b 	mul	r2, fp, r0
3000aff4:	e1a03805 	mov	r3, r5, lsl #16
3000aff8:	e1a03823 	mov	r3, r3, lsr #16
3000affc:	e1837807 	orr	r7, r3, r7, lsl #16
3000b000:	e1570002 	cmp	r7, r2
3000b004:	2a000002 	bcs	3000b014 <__umoddi3+0x480>
3000b008:	e0977004 	adds	r7, r7, r4
3000b00c:	e2400001 	sub	r0, r0, #1	; 0x1
3000b010:	3a000035 	bcc	3000b0ec <__umoddi3+0x558>
3000b014:	e59d5000 	ldr	r5, [sp]
3000b018:	e0627007 	rsb	r7, r2, r7
3000b01c:	e1803805 	orr	r3, r0, r5, lsl #16
3000b020:	e1a00823 	mov	r0, r3, lsr #16
3000b024:	e1a0c826 	mov	ip, r6, lsr #16
3000b028:	e1c31800 	bic	r1, r3, r0, lsl #16
3000b02c:	e1c6280c 	bic	r2, r6, ip, lsl #16
3000b030:	e00e0291 	mul	lr, r1, r2
3000b034:	e0020290 	mul	r2, r0, r2
3000b038:	e001019c 	mul	r1, ip, r1
3000b03c:	e00c0c90 	mul	ip, r0, ip
3000b040:	e0921001 	adds	r1, r2, r1
3000b044:	228cc801 	addcs	ip, ip, #65536	; 0x10000
3000b048:	e09ee801 	adds	lr, lr, r1, lsl #16
3000b04c:	e0acc821 	adc	ip, ip, r1, lsr #16
3000b050:	e15c0007 	cmp	ip, r7
3000b054:	8a000006 	bhi	3000b074 <__umoddi3+0x4e0>
3000b058:	13a03000 	movne	r3, #0	; 0x0
3000b05c:	03a03001 	moveq	r3, #1	; 0x1
3000b060:	e15e0009 	cmp	lr, r9
3000b064:	93a03000 	movls	r3, #0	; 0x0
3000b068:	82033001 	andhi	r3, r3, #1	; 0x1
3000b06c:	e3530000 	cmp	r3, #0	; 0x0
3000b070:	0a000002 	beq	3000b080 <__umoddi3+0x4ec>
3000b074:	e05e2006 	subs	r2, lr, r6
3000b078:	e0ccc004 	sbc	ip, ip, r4
3000b07c:	e1a0e002 	mov	lr, r2
3000b080:	e59d3018 	ldr	r3, [sp, #24]
3000b084:	e3530000 	cmp	r3, #0	; 0x0
3000b088:	0affff3e 	beq	3000ad88 <__umoddi3+0x1f4>
3000b08c:	e59d6008 	ldr	r6, [sp, #8]
3000b090:	e059400e 	subs	r4, r9, lr
3000b094:	e0c7500c 	sbc	r5, r7, ip
3000b098:	e59dc00c 	ldr	ip, [sp, #12]
3000b09c:	e1a03634 	mov	r3, r4, lsr r6
3000b0a0:	e1833c15 	orr	r3, r3, r5, lsl ip
3000b0a4:	e1a05635 	mov	r5, r5, lsr r6
3000b0a8:	e58d3010 	str	r3, [sp, #16]
3000b0ac:	e28d2010 	add	r2, sp, #16	; 0x10
3000b0b0:	e1a09004 	mov	r9, r4
3000b0b4:	e59d4018 	ldr	r4, [sp, #24]
3000b0b8:	e58d5014 	str	r5, [sp, #20]
3000b0bc:	e892000c 	ldmia	r2, {r2, r3}
3000b0c0:	e884000c 	stmia	r4, {r2, r3}
3000b0c4:	e28d3020 	add	r3, sp, #32	; 0x20
3000b0c8:	e8130003 	ldmda	r3, {r0, r1}
3000b0cc:	eaffff0f 	b	3000ad10 <__umoddi3+0x17c>
3000b0d0:	e35200ff 	cmp	r2, #255	; 0xff
3000b0d4:	83a0c008 	movhi	ip, #8	; 0x8
3000b0d8:	93a0c000 	movls	ip, #0	; 0x0
3000b0dc:	eafffec3 	b	3000abf0 <__umoddi3+0x5c>
3000b0e0:	e28d4020 	add	r4, sp, #32	; 0x20
3000b0e4:	e8140003 	ldmda	r4, {r0, r1}
3000b0e8:	eaffff08 	b	3000ad10 <__umoddi3+0x17c>
3000b0ec:	e1570002 	cmp	r7, r2
3000b0f0:	32400001 	subcc	r0, r0, #1	; 0x1
3000b0f4:	30877004 	addcc	r7, r7, r4
3000b0f8:	eaffffc5 	b	3000b014 <__umoddi3+0x480>
3000b0fc:	e1580002 	cmp	r8, r2
3000b100:	32433001 	subcc	r3, r3, #1	; 0x1
3000b104:	30888004 	addcc	r8, r8, r4
3000b108:	358d3000 	strcc	r3, [sp]
3000b10c:	eaffffaf 	b	3000afd0 <__umoddi3+0x43c>
3000b110:	e1570002 	cmp	r7, r2
3000b114:	30877006 	addcc	r7, r7, r6
3000b118:	eaffff5a 	b	3000ae88 <__umoddi3+0x2f4>
3000b11c:	e1540002 	cmp	r4, r2
3000b120:	30844006 	addcc	r4, r4, r6
3000b124:	eaffff47 	b	3000ae48 <__umoddi3+0x2b4>
3000b128:	e28d5020 	add	r5, sp, #32	; 0x20
3000b12c:	e8150003 	ldmda	r5, {r0, r1}
3000b130:	eafffef6 	b	3000ad10 <__umoddi3+0x17c>
3000b134:	00002054 	andeq	r2, r0, r4, asr r0
3000b138:	00000000 	andeq	r0, r0, r0
Disassembly of section .rodata:

3000b13c <DEMO256pal-0x13c>:
3000b13c:	65637845 	strvsb	r7, [r3, #-2117]!
3000b140:	6f697470 	swivs	0x00697470
3000b144:	203a206e 	eorcss	r2, sl, lr, rrx
3000b148:	0a0d7325 	beq	30367de4 <__bss_end+0x35adc8>
3000b14c:	00000000 	andeq	r0, r0, r0
3000b150:	52535043 	subpls	r5, r3, #67	; 0x43
3000b154:	20202020 	eorcs	r2, r0, r0, lsr #32
3000b158:	203a2020 	eorcss	r2, sl, r0, lsr #32
3000b15c:	0a0d5825 	beq	303611f8 <__bss_end+0x3541dc>
3000b160:	00000000 	andeq	r0, r0, r0
3000b164:	69727453 	ldmvsdb	r2!, {r0, r1, r4, r6, sl, ip, sp, lr}^
3000b168:	2020676e 	eorcs	r6, r0, lr, ror #14
3000b16c:	203a2020 	eorcss	r2, sl, r0, lsr #32
3000b170:	0a0d7325 	beq	30367e0c <__bss_end+0x35adf0>
3000b174:	00000000 	andeq	r0, r0, r0
3000b178:	20495753 	subcs	r5, r9, r3, asr r7
3000b17c:	206c6156 	rsbcs	r6, ip, r6, asr r1
3000b180:	5825203d 	stmplda	r5!, {r0, r2, r3, r4, r5, sp}
3000b184:	00000a0d 	andeq	r0, r0, sp, lsl #20
3000b188:	75626544 	strvcb	r6, [r2, #-1348]!
3000b18c:	203a2067 	eorcss	r2, sl, r7, rrx
3000b190:	000a0d31 	andeq	r0, sl, r1, lsr sp
3000b194:	75626544 	strvcb	r6, [r2, #-1348]!
3000b198:	203a2067 	eorcss	r2, sl, r7, rrx
3000b19c:	000a0d32 	andeq	r0, sl, r2, lsr sp
3000b1a0:	34325a4a 	ldrcct	r5, [r2], #-2634
3000b1a4:	54203034 	strplt	r3, [r0], #-52
3000b1a8:	6863756f 	stmvsda	r3!, {r0, r1, r2, r3, r5, r6, r8, sl, ip, sp, lr}^
3000b1ac:	72635320 	rsbvc	r5, r3, #-2147483648	; 0x80000000
3000b1b0:	206e6565 	rsbcs	r6, lr, r5, ror #10
3000b1b4:	74736554 	ldrvcbt	r6, [r3], #-1364
3000b1b8:	49203a20 	stmmidb	r0!, {r5, r9, fp, ip, sp}
3000b1bc:	6f72706d 	swivs	0x0072706d
3000b1c0:	54206576 	strplt	r6, [r0], #-1398
3000b1c4:	6863756f 	stmvsda	r3!, {r0, r1, r2, r3, r5, r6, r8, sl, ip, sp, lr}^
3000b1c8:	72635320 	rsbvc	r5, r3, #-2147483648	; 0x80000000
3000b1cc:	206e6565 	rsbcs	r6, lr, r5, ror #10
3000b1d0:	21214b4f 	teqcs	r1, pc, asr #22
3000b1d4:	00000000 	andeq	r0, r0, r0
3000b1d8:	3144454c 	cmpcc	r4, ip, asr #10
3000b1dc:	5458455f 	ldrplb	r4, [r8], #-1375
3000b1e0:	00000049 	andeq	r0, r0, r9, asr #32
3000b1e4:	3244454c 	subcc	r4, r4, #318767104	; 0x13000000
3000b1e8:	5458455f 	ldrplb	r4, [r8], #-1375
3000b1ec:	00000049 	andeq	r0, r0, r9, asr #32
3000b1f0:	3344454c 	cmpcc	r4, #318767104	; 0x13000000
3000b1f4:	5458455f 	ldrplb	r4, [r8], #-1375
3000b1f8:	00000049 	andeq	r0, r0, r9, asr #32
3000b1fc:	3044454c 	subcc	r4, r4, ip, asr #10
3000b200:	4d49545f 	cfstrdmi	mvd5, [r9, #-380]
3000b204:	00005245 	andeq	r5, r0, r5, asr #4
3000b208:	3144454c 	cmpcc	r4, ip, asr #10
3000b20c:	4d49545f 	cfstrdmi	mvd5, [r9, #-380]
3000b210:	00005245 	andeq	r5, r0, r5, asr #4
3000b214:	34325a4a 	ldrcct	r5, [r2], #-2634
3000b218:	41203034 	teqmi	r0, r4, lsr r0
3000b21c:	32394d52 	eorccs	r4, r9, #5248	; 0x1480
3000b220:	53205430 	teqpl	r0, #805306368	; 0x30000000
3000b224:	34324333 	ldrcct	r4, [r2], #-819
3000b228:	20413034 	subcs	r3, r1, r4, lsr r0
3000b22c:	2e642556 	mcrcs	5, 3, r2, cr4, cr6, {2}
3000b230:	00006425 	andeq	r6, r0, r5, lsr #8
3000b234:	79706f43 	ldmvcdb	r0!, {r0, r1, r6, r8, r9, sl, fp, sp, lr}^
3000b238:	68676972 	stmvsda	r7!, {r1, r4, r5, r6, r8, fp, sp, lr}^
3000b23c:	43282074 	teqmi	r8, #116	; 0x74
3000b240:	30322029 	eorccs	r2, r2, r9, lsr #32
3000b244:	44203931 	strmit	r3, [r0], #-2353
3000b248:	67697365 	strvsb	r7, [r9, -r5, ror #6]!
3000b24c:	7962206e 	stmvcdb	r2!, {r1, r2, r3, r5, r6, sp}^
3000b250:	6e614b20 	cdpvs	11, 6, cr4, cr1, cr0, {1}
3000b254:	6e616b67 	cdpvs	11, 6, cr6, cr1, cr7, {3}
3000b258:	00000067 	andeq	r0, r0, r7, rrx
3000b25c:	00007325 	andeq	r7, r0, r5, lsr #6
3000b260:	5f64636c 	swipl	0x0064636c
3000b264:	00332e34 	eoreqs	r2, r3, r4, lsr lr
3000b268:	5f64636c 	swipl	0x0064636c
3000b26c:	00332e34 	eoreqs	r2, r3, r4, lsr lr
3000b270:	32633373 	rsbcc	r3, r3, #-872415231	; 0xcc000001
3000b274:	00303434 	eoreqs	r3, r0, r4, lsr r4

3000b278 <DEMO256pal>:
3000b278:	ce9a0b5e 	mrcgt	11, 4, r0, cr10, cr14, {2}
3000b27c:	9d99ffd9 	ldcls	15, cr15, [r9, #868]
3000b280:	ae7cb63a 	mrcge	6, 3, fp, cr12, cr10, {1}
3000b284:	6c57dd71 	mrrcvs	13, 7, sp, r7, cr1
3000b288:	00aefd4d 	adceq	pc, lr, sp, asr #26
3000b28c:	b5f89c4d 	ldrltb	r9, [r8, #3149]!
3000b290:	0131ad96 	ldreqb	sl, [r1, -r6]!
3000b294:	efff0176 	swi	0x00ff0176
3000b298:	9556cedd 	ldrlsb	ip, [r6, #-3805]
3000b29c:	00b6e4bf 	ldreqh	lr, [r6], pc
3000b2a0:	002b22b7 	streqh	r2, [fp], -r7
3000b2a4:	002c89de 	ldreqd	r8, [ip], -lr
3000b2a8:	ab5f57df 	blge	317e122c <__bss_end+0x17d4210>
3000b2ac:	14bf3031 	ldrnet	r3, [pc], #49	; 3000b2b4 <DEMO256pal+0x3c>
3000b2b0:	5391797e 	orrpls	r7, r1, #2064384	; 0x1f8000
3000b2b4:	723993ab 	eorvcs	r9, r9, #-1409286142	; 0xac000002
3000b2b8:	afdf7453 	swige	0x00df7453
3000b2bc:	8c9271b9 	ldfhis	f7, [r2], {185}
3000b2c0:	302e014d 	eorcc	r0, lr, sp, asr #2
3000b2c4:	00295175 	eoreq	r5, r9, r5, ror r1
3000b2c8:	004e0969 	subeq	r0, lr, r9, ror #18
3000b2cc:	00212a6d 	eoreq	r2, r1, sp, ror #20
3000b2d0:	4b6e3155 	blmi	31b9782c <__bss_end+0x1b8a810>
3000b2d4:	f6b6d677 	undefined
3000b2d8:	4bb59b5f 	blmi	2ed7205c <__code_start-0x128dfa4>
3000b2dc:	0027ffd5 	ldreqd	pc, [r7], -r5
3000b2e0:	74d8dfdf 	ldrvcb	sp, [r8], #4063
3000b2e4:	6bcd1256 	blvs	2f34fc44 <__code_start-0xcb03bc>
3000b2e8:	2ab29b08 	bcs	2ecb1f10 <__code_start-0x134e0f0>
3000b2ec:	84b5bd72 	ldrhit	fp, [r5], #3442
3000b2f0:	d4adfe52 	strlet	pc, [sp], #3666
3000b2f4:	fffc00ad 	swinv	0x00fc00ad
3000b2f8:	73b0422b 	movvcs	r4, #-1342177278	; 0xb0000002
3000b2fc:	52460024 	subpl	r0, r6, #36	; 0x24
3000b300:	28b38e5e 	ldmcsia	r3!, {r1, r2, r3, r4, r6, r9, sl, fp, pc}
3000b304:	3b520050 	blcc	3148b44c <__bss_end+0x147e430>
3000b308:	3a742a4a 	bcc	31d15c38 <__bss_end+0x1d08c1c>
3000b30c:	33568559 	cmpcc	r6, #373293056	; 0x16400000
3000b310:	9abf1251 	bls	2efcfc5c <__code_start-0x10303a4>
3000b314:	40b14034 	adcmis	r4, r1, r4, lsr r0
3000b318:	00b38cb9 	ldreqh	r8, [r3], r9
3000b31c:	df3d5c55 	swile	0x003d5c55
3000b320:	1f5f61b7 	swine	0x005f61b7
3000b324:	4c5900d9 	mrrcmi	0, 13, r0, r9, cr9
3000b328:	ac3f0926 	ldcge	9, cr0, [pc], #-152
3000b32c:	85bc925f 	ldrhi	r9, [ip, #607]!
3000b330:	c73f29d2 	undefined
3000b334:	cb9fef5c 	blgt	2e8070ac <__code_start-0x17f8f54>
3000b338:	5279827b 	rsbpls	r8, r9, #-1342177273	; 0xb0000007
3000b33c:	01b94af5 	ldreqsh	r4, [r9, r5]!
3000b340:	f7184290 	undefined
3000b344:	21a6126d 	movcs	r1, sp, ror #4
3000b348:	efbd515e 	swi	0x00bd515e
3000b34c:	42abd75e 	adcmi	sp, fp, #24641536	; 0x1780000
3000b350:	10b300aa 	adcnes	r0, r3, sl, lsr #1
3000b354:	63b57349 	movvss	r7, #603979777	; 0x24000001
3000b358:	aadf61a3 	bge	2f7e39ec <__code_start-0x81c614>
3000b35c:	87dfcb27 	ldrhib	ip, [pc, r7, lsr #22]
3000b360:	c7df6359 	undefined
3000b364:	b5bc4876 	ldrlt	r4, [ip, #2166]!
3000b368:	fe2e4114 	mcr2	1, 1, r4, cr14, cr4, {0}
3000b36c:	65beef5e 	ldrvs	lr, [lr, #3934]!
3000b370:	e5df43b9 	ldrb	r4, [pc, #953]	; 3000b731 <fontdata_8x16+0x2b1>
3000b374:	7d1621c9 	ldfvcs	f2, [r6, #-804]
3000b378:	5c116abb 	ldcpl	10, cr6, [r1], {187}
3000b37c:	bc0b49f7 	stclt	9, cr4, [fp], {247}
3000b380:	3b0f9e1a 	blcc	303f2bf0 <__bss_end+0x3e5bd4>
3000b384:	ff12202b 	swinv	0x0012202b
3000b388:	842f821b 	strhit	r8, [pc], #539	; 3000b390 <DEMO256pal+0x118>
3000b38c:	defbbccf 	cdple	12, 15, cr11, cr11, cr15, {6}
3000b390:	68fa8a3e 	ldmvsia	sl!, {r1, r2, r3, r4, r5, r9, fp, pc}^
3000b394:	38aea4f1 	stmccia	lr!, {r0, r4, r5, r6, r7, sl, sp, pc}
3000b398:	21ad28b7 	strcsh	r2, [sp, r7]!
3000b39c:	007331d7 	ldreqsb	r3, [r3], #-23
3000b3a0:	1831182b 	ldmneda	r1!, {r0, r1, r3, r5, fp, ip}
3000b3a4:	bdf63415 	cfldrdlt	mvd3, [r6, #84]!
3000b3a8:	0a5d2dbf 	beq	31756aac <__bss_end+0x1749a90>
3000b3ac:	182cc73d 	stmneda	ip!, {r0, r2, r3, r4, r5, r8, r9, sl, lr, pc}
3000b3b0:	7b3d293e 	blvc	30f558b0 <__bss_end+0xf48894>
3000b3b4:	3cbd643d 	cfldrscc	mvf6, [sp], #244
3000b3b8:	09d492dd 	ldmeqib	r4, {r0, r2, r3, r4, r6, r7, r9, ip, pc}^
3000b3bc:	7cdd1029 	ldcvcl	0, cr1, [sp], {41}
3000b3c0:	182e6239 	stmneda	lr!, {r0, r3, r4, r5, r9, sp, lr}
3000b3c4:	11eb5aea 	mvnne	r5, sl, ror #21
3000b3c8:	7bfa8abc 	blvc	2feadec0 <__code_start-0x152140>
3000b3cc:	215300a7 	cmpcs	r3, r7, lsr #1
3000b3d0:	13181853 	tstne	r8, #5439488	; 0x530000
3000b3d4:	54fa0109 	ldrplbt	r0, [sl], #265
3000b3d8:	89e372a7 	stmhiib	r3!, {r0, r1, r2, r5, r7, r9, ip, sp, lr}^
3000b3dc:	3a0701cf 	bcc	301cbb20 <__bss_end+0x1beb04>
3000b3e0:	1a147b17 	bne	3052a044 <__bss_end+0x51d028>
3000b3e4:	23dc2150 	biccss	r2, ip, #20	; 0x14
3000b3e8:	1b334142 	blne	30cdb8f8 <__bss_end+0xcce8dc>
3000b3ec:	f6df00a4 	ldrnvb	r0, [pc], r4, lsr #1
3000b3f0:	18ae08fc 	stmneia	lr!, {r2, r3, r4, r5, r6, r7, fp}
3000b3f4:	18d13a7e 	ldmneia	r1, {r1, r2, r3, r4, r5, r6, r9, fp, ip, sp}^
3000b3f8:	ff5aa51c 	swinv	0x005aa51c
3000b3fc:	28fa1a0f 	ldmcsia	sl!, {r0, r1, r2, r3, r9, fp, ip}^
3000b400:	82dedfbe 	sbchis	sp, lr, #760	; 0x2f8
3000b404:	102760d7 	ldrned	r6, [r7], -r7
3000b408:	515048fa 	ldrplsh	r4, [r0, #-138]
3000b40c:	89d66213 	ldmhiib	r6, {r0, r1, r4, r9, sp, lr}^
3000b410:	9bbb110d 	blls	2eecf84c <__code_start-0x11307b4>
3000b414:	28e1bedd 	stmcsia	r1!, {r0, r2, r3, r4, r6, r7, r9, sl, fp, ip, sp, pc}^
3000b418:	f4491925 	strnvb	r1, [r9], #-2341
3000b41c:	d5f4aa79 	ldrleb	sl, [r4, #2681]!
3000b420:	110a693c 	tstne	sl, ip, lsr r9
3000b424:	08a22889 	stmeqia	r2!, {r0, r3, r7, fp, sp}
3000b428:	10a6923d 	adcne	r9, r6, sp, lsr r2
3000b42c:	5b2ed9bc 	blpl	30bc1b24 <__bss_end+0xbb4b08>
3000b430:	cf7f32ec 	swigt	0x007f32ec
3000b434:	21481025 	cmpcs	r8, r5, lsr #32
3000b438:	6d5974b4 	cfldrdvs	mvd7, [r9, #-720]
3000b43c:	01329d14 	teqeq	r2, r4, lsl sp
3000b440:	56bf00f0 	undefined
3000b444:	ffff00f1 	swinv	0x00ff00f1
3000b448:	01330173 	teqeq	r3, r3, ror r1
3000b44c:	00b100b0 	ldreqh	r0, [r1], r0
3000b450:	08b1f7ff 	ldmeqia	r1!, {r0, r1, r2, r3, r4, r5, r6, r7, r8, r9, sl, ip, sp, lr, pc}
3000b454:	08b0fffe 	ldmeqia	r0!, {r1, r2, r3, r4, r5, r6, r7, r8, r9, sl, fp, ip, sp, lr, pc}
3000b458:	f7bf0171 	undefined
3000b45c:	f7fe10f3 	undefined
3000b460:	119208ef 	orrnes	r0, r2, pc, ror #17
3000b464:	1131efbe 	ldrneh	lr, [r1, -lr]!
3000b468:	ff9f2177 	swinv	0x009f2177
3000b46c:	ffbc1116 	swinv	0x00bc1116
3000b470:	22ef5914 	rsccs	r5, pc, #327680	; 0x50000
3000b474:	a6dfb285 	ldrgeb	fp, [pc], r5, lsl #5
3000b478:	32633373 	rsbcc	r3, r3, #-872415231	; 0xcc000001
3000b47c:	00303434 	eoreqs	r3, r0, r4, lsr r4

3000b480 <fontdata_8x16>:
	...
3000b490:	817e0000 	cmnhi	lr, r0
3000b494:	bd8181a5 	stfltd	f0, [r1, #660]
3000b498:	7e818199 	mcrvc	1, 4, r8, cr1, cr9, {4}
3000b49c:	00000000 	andeq	r0, r0, r0
3000b4a0:	ff7e0000 	swinv	0x007e0000
3000b4a4:	c3ffffdb 	mvngts	pc, #876	; 0x36c
3000b4a8:	7effffe7 	cdpvc	15, 15, cr15, cr15, cr7, {7}
	...
3000b4b4:	fefefe6c 	cdp2	14, 15, cr15, cr14, cr12, {3}
3000b4b8:	10387cfe 	ldrnesh	r7, [r8], -lr
	...
3000b4c4:	fe7c3810 	mrc2	8, 3, r3, cr12, cr0, {0}
3000b4c8:	0010387c 	andeqs	r3, r0, ip, ror r8
3000b4cc:	00000000 	andeq	r0, r0, r0
3000b4d0:	18000000 	stmneda	r0, {}
3000b4d4:	e7e73c3c 	undefined
3000b4d8:	3c1818e7 	ldccc	8, cr1, [r8], {231}
3000b4dc:	00000000 	andeq	r0, r0, r0
3000b4e0:	18000000 	stmneda	r0, {}
3000b4e4:	ffff7e3c 	swinv	0x00ff7e3c
3000b4e8:	3c18187e 	ldccc	8, cr1, [r8], {126}
	...
3000b4f4:	3c180000 	ldccc	0, cr0, [r8], {0}
3000b4f8:	0000183c 	andeq	r1, r0, ip, lsr r8
3000b4fc:	00000000 	andeq	r0, r0, r0
3000b500:	ffffffff 	swinv	0x00ffffff
3000b504:	c3e7ffff 	mvngt	pc, #1020	; 0x3fc
3000b508:	ffffe7c3 	swinv	0x00ffe7c3
3000b50c:	ffffffff 	swinv	0x00ffffff
3000b510:	00000000 	andeq	r0, r0, r0
3000b514:	42663c00 	rsbmi	r3, r6, #0	; 0x0
3000b518:	003c6642 	eoreqs	r6, ip, r2, asr #12
3000b51c:	00000000 	andeq	r0, r0, r0
3000b520:	ffffffff 	swinv	0x00ffffff
3000b524:	bd99c3ff 	ldclt	3, cr12, [r9, #1020]
3000b528:	ffc399bd 	swinv	0x00c399bd
3000b52c:	ffffffff 	swinv	0x00ffffff
3000b530:	0e1e0000 	wxoreq	wr0, wr14, wr0
3000b534:	cc78321a 	lfmgt	f3, 2, [r8], #-104
3000b538:	78cccccc 	stmvcia	ip, {r2, r3, r6, r7, sl, fp, lr, pc}^
3000b53c:	00000000 	andeq	r0, r0, r0
3000b540:	663c0000 	ldrvst	r0, [ip], -r0
3000b544:	3c666666 	stcccl	6, cr6, [r6], #-408
3000b548:	18187e18 	ldmneda	r8, {r3, r4, r9, sl, fp, ip, sp, lr}
3000b54c:	00000000 	andeq	r0, r0, r0
3000b550:	333f0000 	teqcc	pc, #0	; 0x0
3000b554:	3030303f 	eorccs	r3, r0, pc, lsr r0
3000b558:	e0f07030 	rscs	r7, r0, r0, lsr r0
3000b55c:	00000000 	andeq	r0, r0, r0
3000b560:	637f0000 	cmnvs	pc, #0	; 0x0
3000b564:	6363637f 	cmnvs	r3, #-67108863	; 0xfc000001
3000b568:	e6e76763 	strbt	r6, [r7], r3, ror #14
3000b56c:	000000c0 	andeq	r0, r0, r0, asr #1
3000b570:	18000000 	stmneda	r0, {}
3000b574:	e73cdb18 	undefined
3000b578:	1818db3c 	ldmneda	r8, {r2, r3, r4, r5, r8, r9, fp, ip, lr, pc}
3000b57c:	00000000 	andeq	r0, r0, r0
3000b580:	e0c08000 	sbc	r8, r0, r0
3000b584:	f8fef8f0 	ldmnvia	lr!, {r4, r5, r6, r7, fp, ip, sp, lr, pc}^
3000b588:	80c0e0f0 	strhid	lr, [r0]
3000b58c:	00000000 	andeq	r0, r0, r0
3000b590:	0e060200 	cdpeq	2, 0, cr0, cr6, cr0, {0}
3000b594:	3efe3e1e 	mrccc	14, 7, r3, cr14, cr14, {0}
3000b598:	02060e1e 	andeq	r0, r6, #480	; 0x1e0
3000b59c:	00000000 	andeq	r0, r0, r0
3000b5a0:	3c180000 	ldccc	0, cr0, [r8], {0}
3000b5a4:	1818187e 	ldmneda	r8, {r1, r2, r3, r4, r5, r6, fp, ip}
3000b5a8:	00183c7e 	andeqs	r3, r8, lr, ror ip
3000b5ac:	00000000 	andeq	r0, r0, r0
3000b5b0:	66660000 	strvsbt	r0, [r6], -r0
3000b5b4:	66666666 	strvsbt	r6, [r6], -r6, ror #12
3000b5b8:	66660066 	strvsbt	r0, [r6], -r6, rrx
3000b5bc:	00000000 	andeq	r0, r0, r0
3000b5c0:	db7f0000 	blle	31fcb5c8 <__bss_end+0x1fbe5ac>
3000b5c4:	1b7bdbdb 	blne	31f02538 <__bss_end+0x1ef551c>
3000b5c8:	1b1b1b1b 	blne	306d223c <__bss_end+0x6c5220>
3000b5cc:	00000000 	andeq	r0, r0, r0
3000b5d0:	60c67c00 	sbcvs	r7, r6, r0, lsl #24
3000b5d4:	c6c66c38 	undefined
3000b5d8:	c60c386c 	strgt	r3, [ip], -ip, ror #16
3000b5dc:	0000007c 	andeq	r0, r0, ip, ror r0
	...
3000b5e8:	fefefefe 	mrc2	14, 7, pc, cr14, cr14, {7}
3000b5ec:	00000000 	andeq	r0, r0, r0
3000b5f0:	3c180000 	ldccc	0, cr0, [r8], {0}
3000b5f4:	1818187e 	ldmneda	r8, {r1, r2, r3, r4, r5, r6, fp, ip}
3000b5f8:	7e183c7e 	mrcvc	12, 0, r3, cr8, cr14, {3}
3000b5fc:	00000000 	andeq	r0, r0, r0
3000b600:	3c180000 	ldccc	0, cr0, [r8], {0}
3000b604:	1818187e 	ldmneda	r8, {r1, r2, r3, r4, r5, r6, fp, ip}
3000b608:	18181818 	ldmneda	r8, {r3, r4, fp, ip}
3000b60c:	00000000 	andeq	r0, r0, r0
3000b610:	18180000 	ldmneda	r8, {}
3000b614:	18181818 	ldmneda	r8, {r3, r4, fp, ip}
3000b618:	183c7e18 	ldmneda	ip!, {r3, r4, r9, sl, fp, ip, sp, lr}
	...
3000b624:	fe0c1800 	cdp2	8, 0, cr1, cr12, cr0, {0}
3000b628:	0000180c 	andeq	r1, r0, ip, lsl #16
	...
3000b634:	fe603000 	cdp2	0, 6, cr3, cr0, cr0, {0}
3000b638:	00003060 	andeq	r3, r0, r0, rrx
	...
3000b644:	c0c00000 	sbcgt	r0, r0, r0
3000b648:	0000fec0 	andeq	pc, r0, r0, asr #29
	...
3000b654:	fe6c2800 	cdp2	8, 6, cr2, cr12, cr0, {0}
3000b658:	0000286c 	andeq	r2, r0, ip, ror #16
	...
3000b664:	7c383810 	ldcvc	8, cr3, [r8], #-64
3000b668:	00fefe7c 	rsceqs	pc, lr, ip, ror lr
	...
3000b674:	7c7cfefe 	ldcvcl	14, cr15, [ip], #-1016
3000b678:	00103838 	andeqs	r3, r0, r8, lsr r8
	...
3000b690:	3c180000 	ldccc	0, cr0, [r8], {0}
3000b694:	18183c3c 	ldmneda	r8, {r2, r3, r4, r5, sl, fp, ip, sp}
3000b698:	18180018 	ldmneda	r8, {r3, r4}
3000b69c:	00000000 	andeq	r0, r0, r0
3000b6a0:	66666600 	strvsbt	r6, [r6], -r0, lsl #12
3000b6a4:	00000024 	andeq	r0, r0, r4, lsr #32
	...
3000b6b0:	6c000000 	stcvs	0, cr0, [r0], {0}
3000b6b4:	6c6cfe6c 	stcvsl	14, cr15, [ip], #-432
3000b6b8:	6c6cfe6c 	stcvsl	14, cr15, [ip], #-432
3000b6bc:	00000000 	andeq	r0, r0, r0
3000b6c0:	c67c1818 	undefined
3000b6c4:	067cc0c2 	ldreqbt	ip, [ip], -r2, asr #1
3000b6c8:	7cc68606 	stcvcl	6, cr8, [r6], {6}
3000b6cc:	00001818 	andeq	r1, r0, r8, lsl r8
3000b6d0:	00000000 	andeq	r0, r0, r0
3000b6d4:	180cc6c2 	stmneda	ip, {r1, r6, r7, r9, sl, lr, pc}
3000b6d8:	86c66030 	undefined
3000b6dc:	00000000 	andeq	r0, r0, r0
3000b6e0:	6c380000 	ldcvs	0, cr0, [r8]
3000b6e4:	dc76386c 	ldclel	8, cr3, [r6], #-432
3000b6e8:	76cccccc 	strvcb	ip, [ip], ip, asr #25
3000b6ec:	00000000 	andeq	r0, r0, r0
3000b6f0:	30303000 	eorccs	r3, r0, r0
3000b6f4:	00000060 	andeq	r0, r0, r0, rrx
	...
3000b700:	180c0000 	stmneda	ip, {}
3000b704:	30303030 	eorccs	r3, r0, r0, lsr r0
3000b708:	0c183030 	ldceq	0, cr3, [r8], {48}
3000b70c:	00000000 	andeq	r0, r0, r0
3000b710:	18300000 	ldmneda	r0!, {}
3000b714:	0c0c0c0c 	stceq	12, cr0, [ip], {12}
3000b718:	30180c0c 	andccs	r0, r8, ip, lsl #24
	...
3000b724:	ff3c6600 	swinv	0x003c6600
3000b728:	0000663c 	andeq	r6, r0, ip, lsr r6
	...
3000b734:	7e181800 	cdpvc	8, 1, cr1, cr8, cr0, {0}
3000b738:	00001818 	andeq	r1, r0, r8, lsl r8
	...
3000b748:	18181800 	ldmneda	r8, {fp, ip}
3000b74c:	00000030 	andeq	r0, r0, r0, lsr r0
3000b750:	00000000 	andeq	r0, r0, r0
3000b754:	fe000000 	cdp2	0, 0, cr0, cr0, cr0, {0}
	...
3000b768:	18180000 	ldmneda	r8, {}
	...
3000b774:	180c0602 	stmneda	ip, {r1, r9, sl}
3000b778:	80c06030 	sbchi	r6, r0, r0, lsr r0
3000b77c:	00000000 	andeq	r0, r0, r0
3000b780:	6c380000 	ldcvs	0, cr0, [r8]
3000b784:	d6d6c6c6 	ldrleb	ip, [r6], r6, asr #13
3000b788:	386cc6c6 	stmccda	ip!, {r1, r2, r6, r7, r9, sl, lr, pc}^
3000b78c:	00000000 	andeq	r0, r0, r0
3000b790:	38180000 	ldmccda	r8, {}
3000b794:	18181878 	ldmneda	r8, {r3, r4, r5, r6, fp, ip}
3000b798:	7e181818 	mrcvc	8, 0, r1, cr8, cr8, {0}
3000b79c:	00000000 	andeq	r0, r0, r0
3000b7a0:	c67c0000 	ldrgtbt	r0, [ip], -r0
3000b7a4:	30180c06 	andccs	r0, r8, r6, lsl #24
3000b7a8:	fec6c060 	cdp2	0, 12, cr12, cr6, cr0, {3}
3000b7ac:	00000000 	andeq	r0, r0, r0
3000b7b0:	c67c0000 	ldrgtbt	r0, [ip], -r0
3000b7b4:	063c0606 	ldreqt	r0, [ip], -r6, lsl #12
3000b7b8:	7cc60606 	stcvcl	6, cr0, [r6], {6}
3000b7bc:	00000000 	andeq	r0, r0, r0
3000b7c0:	1c0c0000 	stcne	0, cr0, [ip], {0}
3000b7c4:	fecc6c3c 	mcr2	12, 6, r6, cr12, cr12, {1}
3000b7c8:	1e0c0c0c 	cdpne	12, 0, cr0, cr12, cr12, {0}
3000b7cc:	00000000 	andeq	r0, r0, r0
3000b7d0:	c0fe0000 	rscgts	r0, lr, r0
3000b7d4:	06fcc0c0 	ldreqbt	ip, [ip], r0, asr #1
3000b7d8:	7cc60606 	stcvcl	6, cr0, [r6], {6}
3000b7dc:	00000000 	andeq	r0, r0, r0
3000b7e0:	60380000 	eorvss	r0, r8, r0
3000b7e4:	c6fcc0c0 	ldrgtbt	ip, [ip], r0, asr #1
3000b7e8:	7cc6c6c6 	stcvcl	6, cr12, [r6], {198}
3000b7ec:	00000000 	andeq	r0, r0, r0
3000b7f0:	c6fe0000 	ldrgtbt	r0, [lr], r0
3000b7f4:	180c0606 	stmneda	ip, {r1, r2, r9, sl}
3000b7f8:	30303030 	eorccs	r3, r0, r0, lsr r0
3000b7fc:	00000000 	andeq	r0, r0, r0
3000b800:	c67c0000 	ldrgtbt	r0, [ip], -r0
3000b804:	c67cc6c6 	ldrgtbt	ip, [ip], -r6, asr #13
3000b808:	7cc6c6c6 	stcvcl	6, cr12, [r6], {198}
3000b80c:	00000000 	andeq	r0, r0, r0
3000b810:	c67c0000 	ldrgtbt	r0, [ip], -r0
3000b814:	067ec6c6 	ldreqbt	ip, [lr], -r6, asr #13
3000b818:	780c0606 	stmvcda	ip, {r1, r2, r9, sl}
	...
3000b824:	00001818 	andeq	r1, r0, r8, lsl r8
3000b828:	00181800 	andeqs	r1, r8, r0, lsl #16
	...
3000b834:	00001818 	andeq	r1, r0, r8, lsl r8
3000b838:	30181800 	andccs	r1, r8, r0, lsl #16
3000b83c:	00000000 	andeq	r0, r0, r0
3000b840:	06000000 	streq	r0, [r0], -r0
3000b844:	6030180c 	eorvss	r1, r0, ip, lsl #16
3000b848:	060c1830 	undefined
	...
3000b854:	00007e00 	andeq	r7, r0, r0, lsl #28
3000b858:	0000007e 	andeq	r0, r0, lr, ror r0
3000b85c:	00000000 	andeq	r0, r0, r0
3000b860:	60000000 	andvs	r0, r0, r0
3000b864:	060c1830 	undefined
3000b868:	6030180c 	eorvss	r1, r0, ip, lsl #16
3000b86c:	00000000 	andeq	r0, r0, r0
3000b870:	c67c0000 	ldrgtbt	r0, [ip], -r0
3000b874:	18180cc6 	ldmneda	r8, {r1, r2, r6, r7, sl, fp}
3000b878:	18180018 	ldmneda	r8, {r3, r4}
3000b87c:	00000000 	andeq	r0, r0, r0
3000b880:	7c000000 	stcvc	0, cr0, [r0], {0}
3000b884:	dedec6c6 	cdple	6, 13, cr12, cr14, cr6, {6}
3000b888:	7cc0dcde 	stcvcl	12, cr13, [r0], {222}
3000b88c:	00000000 	andeq	r0, r0, r0
3000b890:	38100000 	ldmccda	r0, {}
3000b894:	fec6c66c 	cdp2	6, 12, cr12, cr6, cr12, {3}
3000b898:	c6c6c6c6 	strgtb	ip, [r6], r6, asr #13
3000b89c:	00000000 	andeq	r0, r0, r0
3000b8a0:	66fc0000 	ldrvsbt	r0, [ip], r0
3000b8a4:	667c6666 	ldrvsbt	r6, [ip], -r6, ror #12
3000b8a8:	fc666666 	stc2l	6, cr6, [r6], #-408
3000b8ac:	00000000 	andeq	r0, r0, r0
3000b8b0:	663c0000 	ldrvst	r0, [ip], -r0
3000b8b4:	c0c0c0c2 	sbcgt	ip, r0, r2, asr #1
3000b8b8:	3c66c2c0 	sfmcc	f4, 3, [r6], #-768
3000b8bc:	00000000 	andeq	r0, r0, r0
3000b8c0:	6cf80000 	ldcvsl	0, cr0, [r8]
3000b8c4:	66666666 	strvsbt	r6, [r6], -r6, ror #12
3000b8c8:	f86c6666 	stmnvda	ip!, {r1, r2, r5, r6, r9, sl, sp, lr}^
3000b8cc:	00000000 	andeq	r0, r0, r0
3000b8d0:	66fe0000 	ldrvsbt	r0, [lr], r0
3000b8d4:	68786862 	ldmvsda	r8!, {r1, r5, r6, fp, sp, lr}^
3000b8d8:	fe666260 	cdp2	2, 6, cr6, cr6, cr0, {3}
3000b8dc:	00000000 	andeq	r0, r0, r0
3000b8e0:	66fe0000 	ldrvsbt	r0, [lr], r0
3000b8e4:	68786862 	ldmvsda	r8!, {r1, r5, r6, fp, sp, lr}^
3000b8e8:	f0606060 	rsbnv	r6, r0, r0, rrx
3000b8ec:	00000000 	andeq	r0, r0, r0
3000b8f0:	663c0000 	ldrvst	r0, [ip], -r0
3000b8f4:	dec0c0c2 	cdple	0, 12, cr12, cr0, cr2, {6}
3000b8f8:	3a66c6c6 	bcc	319bd418 <__bss_end+0x19b03fc>
3000b8fc:	00000000 	andeq	r0, r0, r0
3000b900:	c6c60000 	strgtb	r0, [r6], r0
3000b904:	c6fec6c6 	ldrgtbt	ip, [lr], r6, asr #13
3000b908:	c6c6c6c6 	strgtb	ip, [r6], r6, asr #13
3000b90c:	00000000 	andeq	r0, r0, r0
3000b910:	183c0000 	ldmneda	ip!, {}
3000b914:	18181818 	ldmneda	r8, {r3, r4, fp, ip}
3000b918:	3c181818 	ldccc	8, cr1, [r8], {24}
3000b91c:	00000000 	andeq	r0, r0, r0
3000b920:	0c1e0000 	ldceq	0, cr0, [lr], {0}
3000b924:	0c0c0c0c 	stceq	12, cr0, [ip], {12}
3000b928:	78cccccc 	stmvcia	ip, {r2, r3, r6, r7, sl, fp, lr, pc}^
3000b92c:	00000000 	andeq	r0, r0, r0
3000b930:	66e60000 	strvsbt	r0, [r6], r0
3000b934:	78786c66 	ldmvcda	r8!, {r1, r2, r5, r6, sl, fp, sp, lr}^
3000b938:	e666666c 	strbt	r6, [r6], -ip, ror #12
3000b93c:	00000000 	andeq	r0, r0, r0
3000b940:	60f00000 	rscvss	r0, r0, r0
3000b944:	60606060 	rsbvs	r6, r0, r0, rrx
3000b948:	fe666260 	cdp2	2, 6, cr6, cr6, cr0, {3}
3000b94c:	00000000 	andeq	r0, r0, r0
3000b950:	eec60000 	cdp	0, 12, cr0, cr6, cr0, {0}
3000b954:	c6d6fefe 	undefined
3000b958:	c6c6c6c6 	strgtb	ip, [r6], r6, asr #13
3000b95c:	00000000 	andeq	r0, r0, r0
3000b960:	e6c60000 	strb	r0, [r6], r0
3000b964:	cedefef6 	mrcgt	14, 6, pc, cr14, cr6, {7}
3000b968:	c6c6c6c6 	strgtb	ip, [r6], r6, asr #13
3000b96c:	00000000 	andeq	r0, r0, r0
3000b970:	c67c0000 	ldrgtbt	r0, [ip], -r0
3000b974:	c6c6c6c6 	strgtb	ip, [r6], r6, asr #13
3000b978:	7cc6c6c6 	stcvcl	6, cr12, [r6], {198}
3000b97c:	00000000 	andeq	r0, r0, r0
3000b980:	66fc0000 	ldrvsbt	r0, [ip], r0
3000b984:	607c6666 	rsbvss	r6, ip, r6, ror #12
3000b988:	f0606060 	rsbnv	r6, r0, r0, rrx
3000b98c:	00000000 	andeq	r0, r0, r0
3000b990:	c67c0000 	ldrgtbt	r0, [ip], -r0
3000b994:	c6c6c6c6 	strgtb	ip, [r6], r6, asr #13
3000b998:	7cded6c6 	ldcvcl	6, cr13, [lr], {198}
3000b99c:	00000e0c 	andeq	r0, r0, ip, lsl #28
3000b9a0:	66fc0000 	ldrvsbt	r0, [ip], r0
3000b9a4:	6c7c6666 	ldcvsl	6, cr6, [ip], #-408
3000b9a8:	e6666666 	strbt	r6, [r6], -r6, ror #12
3000b9ac:	00000000 	andeq	r0, r0, r0
3000b9b0:	c67c0000 	ldrgtbt	r0, [ip], -r0
3000b9b4:	0c3860c6 	ldceq	0, cr6, [r8], #-792
3000b9b8:	7cc6c606 	stcvcl	6, cr12, [r6], {6}
3000b9bc:	00000000 	andeq	r0, r0, r0
3000b9c0:	7e7e0000 	cdpvc	0, 7, cr0, cr14, cr0, {0}
3000b9c4:	1818185a 	ldmneda	r8, {r1, r3, r4, r6, fp, ip}
3000b9c8:	3c181818 	ldccc	8, cr1, [r8], {24}
3000b9cc:	00000000 	andeq	r0, r0, r0
3000b9d0:	c6c60000 	strgtb	r0, [r6], r0
3000b9d4:	c6c6c6c6 	strgtb	ip, [r6], r6, asr #13
3000b9d8:	7cc6c6c6 	stcvcl	6, cr12, [r6], {198}
3000b9dc:	00000000 	andeq	r0, r0, r0
3000b9e0:	c6c60000 	strgtb	r0, [r6], r0
3000b9e4:	c6c6c6c6 	strgtb	ip, [r6], r6, asr #13
3000b9e8:	10386cc6 	eornes	r6, r8, r6, asr #25
3000b9ec:	00000000 	andeq	r0, r0, r0
3000b9f0:	c6c60000 	strgtb	r0, [r6], r0
3000b9f4:	d6d6c6c6 	ldrleb	ip, [r6], r6, asr #13
3000b9f8:	6ceefed6 	stcvsl	14, cr15, [lr], #856
3000b9fc:	00000000 	andeq	r0, r0, r0
3000ba00:	c6c60000 	strgtb	r0, [r6], r0
3000ba04:	38387c6c 	ldmccda	r8!, {r2, r3, r5, r6, sl, fp, ip, sp, lr}
3000ba08:	c6c66c7c 	uxtab16gt	r6, r6, ip, ROR #24
3000ba0c:	00000000 	andeq	r0, r0, r0
3000ba10:	66660000 	strvsbt	r0, [r6], -r0
3000ba14:	183c6666 	ldmneda	ip!, {r1, r2, r5, r6, r9, sl, sp, lr}
3000ba18:	3c181818 	ldccc	8, cr1, [r8], {24}
3000ba1c:	00000000 	andeq	r0, r0, r0
3000ba20:	c6fe0000 	ldrgtbt	r0, [lr], r0
3000ba24:	30180c86 	andccs	r0, r8, r6, lsl #25
3000ba28:	fec6c260 	cdp2	2, 12, cr12, cr6, cr0, {3}
3000ba2c:	00000000 	andeq	r0, r0, r0
3000ba30:	303c0000 	eorccs	r0, ip, r0
3000ba34:	30303030 	eorccs	r3, r0, r0, lsr r0
3000ba38:	3c303030 	ldccc	0, cr3, [r0], #-192
3000ba3c:	00000000 	andeq	r0, r0, r0
3000ba40:	80000000 	andhi	r0, r0, r0
3000ba44:	3870e0c0 	ldmccda	r0!, {r6, r7, sp, lr, pc}^
3000ba48:	02060e1c 	andeq	r0, r6, #448	; 0x1c0
3000ba4c:	00000000 	andeq	r0, r0, r0
3000ba50:	0c3c0000 	ldceq	0, cr0, [ip]
3000ba54:	0c0c0c0c 	stceq	12, cr0, [ip], {12}
3000ba58:	3c0c0c0c 	stccc	12, cr0, [ip], {12}
3000ba5c:	00000000 	andeq	r0, r0, r0
3000ba60:	c66c3810 	undefined
	...
3000ba7c:	0000ff00 	andeq	pc, r0, r0, lsl #30
3000ba80:	0c183000 	ldceq	0, cr3, [r8], {0}
	...
3000ba94:	7c0c7800 	stcvc	8, cr7, [ip], {0}
3000ba98:	76cccccc 	strvcb	ip, [ip], ip, asr #25
3000ba9c:	00000000 	andeq	r0, r0, r0
3000baa0:	60e00000 	rscvs	r0, r0, r0
3000baa4:	666c7860 	strvsbt	r7, [ip], -r0, ror #16
3000baa8:	7c666666 	stcvcl	6, cr6, [r6], #-408
	...
3000bab4:	c0c67c00 	sbcgt	r7, r6, r0, lsl #24
3000bab8:	7cc6c0c0 	stcvcl	0, cr12, [r6], {192}
3000babc:	00000000 	andeq	r0, r0, r0
3000bac0:	0c1c0000 	ldceq	0, cr0, [ip], {0}
3000bac4:	cc6c3c0c 	stcgtl	12, cr3, [ip], #-48
3000bac8:	76cccccc 	strvcb	ip, [ip], ip, asr #25
	...
3000bad4:	fec67c00 	cdp2	12, 12, cr7, cr6, cr0, {0}
3000bad8:	7cc6c0c0 	stcvcl	0, cr12, [r6], {192}
3000badc:	00000000 	andeq	r0, r0, r0
3000bae0:	361c0000 	ldrcc	r0, [ip], -r0
3000bae4:	30783032 	rsbccs	r3, r8, r2, lsr r0
3000bae8:	78303030 	ldmvcda	r0!, {r4, r5, ip, sp}
	...
3000baf4:	cccc7600 	stcgtl	6, cr7, [ip], {0}
3000baf8:	7ccccccc 	stcvcl	12, cr12, [ip], {204}
3000bafc:	0078cc0c 	rsbeqs	ip, r8, ip, lsl #24
3000bb00:	60e00000 	rscvs	r0, r0, r0
3000bb04:	66766c60 	ldrvsbt	r6, [r6], -r0, ror #24
3000bb08:	e6666666 	strbt	r6, [r6], -r6, ror #12
3000bb0c:	00000000 	andeq	r0, r0, r0
3000bb10:	18180000 	ldmneda	r8, {}
3000bb14:	18183800 	ldmneda	r8, {fp, ip, sp}
3000bb18:	3c181818 	ldccc	8, cr1, [r8], {24}
3000bb1c:	00000000 	andeq	r0, r0, r0
3000bb20:	06060000 	streq	r0, [r6], -r0
3000bb24:	06060e00 	streq	r0, [r6], -r0, lsl #28
3000bb28:	06060606 	streq	r0, [r6], -r6, lsl #12
3000bb2c:	003c6666 	eoreqs	r6, ip, r6, ror #12
3000bb30:	60e00000 	rscvs	r0, r0, r0
3000bb34:	786c6660 	stmvcda	ip!, {r5, r6, r9, sl, sp, lr}^
3000bb38:	e6666c78 	undefined
3000bb3c:	00000000 	andeq	r0, r0, r0
3000bb40:	18380000 	ldmneda	r8!, {}
3000bb44:	18181818 	ldmneda	r8, {r3, r4, fp, ip}
3000bb48:	3c181818 	ldccc	8, cr1, [r8], {24}
	...
3000bb54:	d6feec00 	ldrlebt	lr, [lr], r0, lsl #24
3000bb58:	c6d6d6d6 	undefined
	...
3000bb64:	6666dc00 	strvsbt	sp, [r6], -r0, lsl #24
3000bb68:	66666666 	strvsbt	r6, [r6], -r6, ror #12
	...
3000bb74:	c6c67c00 	strgtb	r7, [r6], r0, lsl #24
3000bb78:	7cc6c6c6 	stcvcl	6, cr12, [r6], {198}
	...
3000bb84:	6666dc00 	strvsbt	sp, [r6], -r0, lsl #24
3000bb88:	7c666666 	stcvcl	6, cr6, [r6], #-408
3000bb8c:	00f06060 	rsceqs	r6, r0, r0, rrx
3000bb90:	00000000 	andeq	r0, r0, r0
3000bb94:	cccc7600 	stcgtl	6, cr7, [ip], {0}
3000bb98:	7ccccccc 	stcvcl	12, cr12, [ip], {204}
3000bb9c:	001e0c0c 	andeqs	r0, lr, ip, lsl #24
3000bba0:	00000000 	andeq	r0, r0, r0
3000bba4:	6676dc00 	ldrvsbt	sp, [r6], -r0, lsl #24
3000bba8:	f0606060 	rsbnv	r6, r0, r0, rrx
	...
3000bbb4:	60c67c00 	sbcvs	r7, r6, r0, lsl #24
3000bbb8:	7cc60c38 	stcvcl	12, cr0, [r6], {56}
3000bbbc:	00000000 	andeq	r0, r0, r0
3000bbc0:	30100000 	andccs	r0, r0, r0
3000bbc4:	3030fc30 	eorccs	pc, r0, r0, lsr ip
3000bbc8:	1c363030 	ldcne	0, cr3, [r6], #-192
	...
3000bbd4:	cccccc00 	stcgtl	12, cr12, [ip], {0}
3000bbd8:	76cccccc 	strvcb	ip, [ip], ip, asr #25
	...
3000bbe4:	c6c6c600 	strgtb	ip, [r6], r0, lsl #12
3000bbe8:	386cc6c6 	stmccda	ip!, {r1, r2, r6, r7, r9, sl, lr, pc}^
	...
3000bbf4:	d6c6c600 	strleb	ip, [r6], r0, lsl #12
3000bbf8:	6cfed6d6 	ldcvsl	6, cr13, [lr], #856
	...
3000bc04:	386cc600 	stmccda	ip!, {r9, sl, lr, pc}^
3000bc08:	c66c3838 	undefined
	...
3000bc14:	c6c6c600 	strgtb	ip, [r6], r0, lsl #12
3000bc18:	7ec6c6c6 	cdpvc	6, 12, cr12, cr6, cr6, {6}
3000bc1c:	00f80c06 	rsceqs	r0, r8, r6, lsl #24
3000bc20:	00000000 	andeq	r0, r0, r0
3000bc24:	18ccfe00 	stmneia	ip, {r9, sl, fp, ip, sp, lr, pc}^
3000bc28:	fec66030 	mcr2	0, 6, r6, cr6, cr0, {1}
3000bc2c:	00000000 	andeq	r0, r0, r0
3000bc30:	180e0000 	stmneda	lr, {}
3000bc34:	18701818 	ldmneda	r0!, {r3, r4, fp, ip}^
3000bc38:	0e181818 	mrceq	8, 0, r1, cr8, cr8, {0}
3000bc3c:	00000000 	andeq	r0, r0, r0
3000bc40:	18180000 	ldmneda	r8, {}
3000bc44:	18181818 	ldmneda	r8, {r3, r4, fp, ip}
3000bc48:	18181818 	ldmneda	r8, {r3, r4, fp, ip}
3000bc4c:	00000000 	andeq	r0, r0, r0
3000bc50:	18700000 	ldmneda	r0!, {}^
3000bc54:	180e1818 	stmneda	lr, {r3, r4, fp, ip}
3000bc58:	70181818 	andvcs	r1, r8, r8, lsl r8
3000bc5c:	00000000 	andeq	r0, r0, r0
3000bc60:	00dc7600 	sbceqs	r7, ip, r0, lsl #12
	...
3000bc74:	c66c3810 	undefined
3000bc78:	00fec6c6 	rsceqs	ip, lr, r6, asr #13
3000bc7c:	00000000 	andeq	r0, r0, r0
3000bc80:	663c0000 	ldrvst	r0, [ip], -r0
3000bc84:	c0c0c0c2 	sbcgt	ip, r0, r2, asr #1
3000bc88:	3c66c2c0 	sfmcc	f4, 3, [r6], #-768
3000bc8c:	00007018 	andeq	r7, r0, r8, lsl r0
3000bc90:	00cc0000 	sbceq	r0, ip, r0
3000bc94:	cccccc00 	stcgtl	12, cr12, [ip], {0}
3000bc98:	76cccccc 	strvcb	ip, [ip], ip, asr #25
3000bc9c:	00000000 	andeq	r0, r0, r0
3000bca0:	30180c00 	andccs	r0, r8, r0, lsl #24
3000bca4:	fec67c00 	cdp2	12, 12, cr7, cr6, cr0, {0}
3000bca8:	7cc6c0c0 	stcvcl	0, cr12, [r6], {192}
3000bcac:	00000000 	andeq	r0, r0, r0
3000bcb0:	6c381000 	ldcvs	0, cr1, [r8]
3000bcb4:	7c0c7800 	stcvc	8, cr7, [ip], {0}
3000bcb8:	76cccccc 	strvcb	ip, [ip], ip, asr #25
3000bcbc:	00000000 	andeq	r0, r0, r0
3000bcc0:	00cc0000 	sbceq	r0, ip, r0
3000bcc4:	7c0c7800 	stcvc	8, cr7, [ip], {0}
3000bcc8:	76cccccc 	strvcb	ip, [ip], ip, asr #25
3000bccc:	00000000 	andeq	r0, r0, r0
3000bcd0:	18306000 	ldmneda	r0!, {sp, lr}
3000bcd4:	7c0c7800 	stcvc	8, cr7, [ip], {0}
3000bcd8:	76cccccc 	strvcb	ip, [ip], ip, asr #25
3000bcdc:	00000000 	andeq	r0, r0, r0
3000bce0:	386c3800 	stmccda	ip!, {fp, ip, sp}^
3000bce4:	7c0c7800 	stcvc	8, cr7, [ip], {0}
3000bce8:	76cccccc 	strvcb	ip, [ip], ip, asr #25
	...
3000bcf4:	c0c67c00 	sbcgt	r7, r6, r0, lsl #24
3000bcf8:	7cc6c0c0 	stcvcl	0, cr12, [r6], {192}
3000bcfc:	00007018 	andeq	r7, r0, r8, lsl r0
3000bd00:	6c381000 	ldcvs	0, cr1, [r8]
3000bd04:	fec67c00 	cdp2	12, 12, cr7, cr6, cr0, {0}
3000bd08:	7cc6c0c0 	stcvcl	0, cr12, [r6], {192}
3000bd0c:	00000000 	andeq	r0, r0, r0
3000bd10:	00c60000 	sbceq	r0, r6, r0
3000bd14:	fec67c00 	cdp2	12, 12, cr7, cr6, cr0, {0}
3000bd18:	7cc6c0c0 	stcvcl	0, cr12, [r6], {192}
3000bd1c:	00000000 	andeq	r0, r0, r0
3000bd20:	18306000 	ldmneda	r0!, {sp, lr}
3000bd24:	fec67c00 	cdp2	12, 12, cr7, cr6, cr0, {0}
3000bd28:	7cc6c0c0 	stcvcl	0, cr12, [r6], {192}
3000bd2c:	00000000 	andeq	r0, r0, r0
3000bd30:	00660000 	rsbeq	r0, r6, r0
3000bd34:	18183800 	ldmneda	r8, {fp, ip, sp}
3000bd38:	3c181818 	ldccc	8, cr1, [r8], {24}
3000bd3c:	00000000 	andeq	r0, r0, r0
3000bd40:	663c1800 	ldrvst	r1, [ip], -r0, lsl #16
3000bd44:	18183800 	ldmneda	r8, {fp, ip, sp}
3000bd48:	3c181818 	ldccc	8, cr1, [r8], {24}
3000bd4c:	00000000 	andeq	r0, r0, r0
3000bd50:	18306000 	ldmneda	r0!, {sp, lr}
3000bd54:	18183800 	ldmneda	r8, {fp, ip, sp}
3000bd58:	3c181818 	ldccc	8, cr1, [r8], {24}
3000bd5c:	00000000 	andeq	r0, r0, r0
3000bd60:	1000c600 	andne	ip, r0, r0, lsl #12
3000bd64:	c6c66c38 	undefined
3000bd68:	c6c6c6fe 	undefined
3000bd6c:	00000000 	andeq	r0, r0, r0
3000bd70:	10386c38 	eornes	r6, r8, r8, lsr ip
3000bd74:	fec66c38 	mcr2	12, 6, r6, cr6, cr8, {1}
3000bd78:	c6c6c6c6 	strgtb	ip, [r6], r6, asr #13
3000bd7c:	00000000 	andeq	r0, r0, r0
3000bd80:	fe00180c 	cdp2	8, 0, cr1, cr0, cr12, {0}
3000bd84:	78686266 	stmvcda	r8!, {r1, r2, r5, r6, r9, sp, lr}^
3000bd88:	fe666268 	cdp2	2, 6, cr6, cr6, cr8, {3}
	...
3000bd94:	3636ec00 	ldrcct	lr, [r6], -r0, lsl #24
3000bd98:	6ed8d87e 	mrcvs	8, 6, sp, cr8, cr14, {3}
3000bd9c:	00000000 	andeq	r0, r0, r0
3000bda0:	6c3e0000 	ldcvs	0, cr0, [lr]
3000bda4:	ccfecccc 	ldcgtl	12, cr12, [lr], #816
3000bda8:	cecccccc 	cdpgt	12, 12, cr12, cr12, cr12, {6}
3000bdac:	00000000 	andeq	r0, r0, r0
3000bdb0:	6c381000 	ldcvs	0, cr1, [r8]
3000bdb4:	c6c67c00 	strgtb	r7, [r6], r0, lsl #24
3000bdb8:	7cc6c6c6 	stcvcl	6, cr12, [r6], {198}
3000bdbc:	00000000 	andeq	r0, r0, r0
3000bdc0:	00c60000 	sbceq	r0, r6, r0
3000bdc4:	c6c67c00 	strgtb	r7, [r6], r0, lsl #24
3000bdc8:	7cc6c6c6 	stcvcl	6, cr12, [r6], {198}
3000bdcc:	00000000 	andeq	r0, r0, r0
3000bdd0:	18306000 	ldmneda	r0!, {sp, lr}
3000bdd4:	c6c67c00 	strgtb	r7, [r6], r0, lsl #24
3000bdd8:	7cc6c6c6 	stcvcl	6, cr12, [r6], {198}
3000bddc:	00000000 	andeq	r0, r0, r0
3000bde0:	cc783000 	ldcgtl	0, cr3, [r8]
3000bde4:	cccccc00 	stcgtl	12, cr12, [ip], {0}
3000bde8:	76cccccc 	strvcb	ip, [ip], ip, asr #25
3000bdec:	00000000 	andeq	r0, r0, r0
3000bdf0:	18306000 	ldmneda	r0!, {sp, lr}
3000bdf4:	cccccc00 	stcgtl	12, cr12, [ip], {0}
3000bdf8:	76cccccc 	strvcb	ip, [ip], ip, asr #25
3000bdfc:	00000000 	andeq	r0, r0, r0
3000be00:	00c60000 	sbceq	r0, r6, r0
3000be04:	c6c6c600 	strgtb	ip, [r6], r0, lsl #12
3000be08:	7ec6c6c6 	cdpvc	6, 12, cr12, cr6, cr6, {6}
3000be0c:	00780c06 	rsbeqs	r0, r8, r6, lsl #24
3000be10:	7c00c600 	stcvc	6, cr12, [r0], {0}
3000be14:	c6c6c6c6 	strgtb	ip, [r6], r6, asr #13
3000be18:	7cc6c6c6 	stcvcl	6, cr12, [r6], {198}
3000be1c:	00000000 	andeq	r0, r0, r0
3000be20:	c600c600 	strgt	ip, [r0], -r0, lsl #12
3000be24:	c6c6c6c6 	strgtb	ip, [r6], r6, asr #13
3000be28:	7cc6c6c6 	stcvcl	6, cr12, [r6], {198}
3000be2c:	00000000 	andeq	r0, r0, r0
3000be30:	7c181800 	ldcvc	8, cr1, [r8], {0}
3000be34:	c0c0c0c6 	sbcgt	ip, r0, r6, asr #1
3000be38:	18187cc6 	ldmneda	r8, {r1, r2, r6, r7, sl, fp, ip, sp, lr}
3000be3c:	00000000 	andeq	r0, r0, r0
3000be40:	646c3800 	strvsbt	r3, [ip], #-2048
3000be44:	6060f060 	rsbvs	pc, r0, r0, rrx
3000be48:	fce66060 	stc2l	0, cr6, [r6], #384
3000be4c:	00000000 	andeq	r0, r0, r0
3000be50:	66660000 	strvsbt	r0, [r6], -r0
3000be54:	187e183c 	ldmneda	lr!, {r2, r3, r4, r5, fp, ip}^
3000be58:	1818187e 	ldmneda	r8, {r1, r2, r3, r4, r5, r6, fp, ip}
3000be5c:	00000000 	andeq	r0, r0, r0
3000be60:	ccccf800 	stcgtl	8, cr15, [ip], {0}
3000be64:	deccc4f8 	mcrle	4, 6, ip, cr12, cr8, {7}
3000be68:	c6cccccc 	strgtb	ip, [ip], ip, asr #25
3000be6c:	00000000 	andeq	r0, r0, r0
3000be70:	181b0e00 	ldmneda	fp, {r9, sl, fp}
3000be74:	187e1818 	ldmneda	lr!, {r3, r4, fp, ip}^
3000be78:	70d81818 	sbcvcs	r1, r8, r8, lsl r8
3000be7c:	00000000 	andeq	r0, r0, r0
3000be80:	60301800 	eorvss	r1, r0, r0, lsl #16
3000be84:	7c0c7800 	stcvc	8, cr7, [ip], {0}
3000be88:	76cccccc 	strvcb	ip, [ip], ip, asr #25
3000be8c:	00000000 	andeq	r0, r0, r0
3000be90:	30180c00 	andccs	r0, r8, r0, lsl #24
3000be94:	18183800 	ldmneda	r8, {fp, ip, sp}
3000be98:	3c181818 	ldccc	8, cr1, [r8], {24}
3000be9c:	00000000 	andeq	r0, r0, r0
3000bea0:	60301800 	eorvss	r1, r0, r0, lsl #16
3000bea4:	c6c67c00 	strgtb	r7, [r6], r0, lsl #24
3000bea8:	7cc6c6c6 	stcvcl	6, cr12, [r6], {198}
3000beac:	00000000 	andeq	r0, r0, r0
3000beb0:	60301800 	eorvss	r1, r0, r0, lsl #16
3000beb4:	cccccc00 	stcgtl	12, cr12, [ip], {0}
3000beb8:	76cccccc 	strvcb	ip, [ip], ip, asr #25
3000bebc:	00000000 	andeq	r0, r0, r0
3000bec0:	dc760000 	ldclel	0, cr0, [r6]
3000bec4:	6666dc00 	strvsbt	sp, [r6], -r0, lsl #24
3000bec8:	66666666 	strvsbt	r6, [r6], -r6, ror #12
3000becc:	00000000 	andeq	r0, r0, r0
3000bed0:	c600dc76 	undefined
3000bed4:	defef6e6 	cdple	6, 15, cr15, cr14, cr6, {7}
3000bed8:	c6c6c6ce 	strgtb	ip, [r6], lr, asr #13
3000bedc:	00000000 	andeq	r0, r0, r0
3000bee0:	6c3c0000 	ldcvs	0, cr0, [ip]
3000bee4:	7e003e6c 	cdpvc	14, 0, cr3, cr0, cr12, {3}
	...
3000bef0:	6c380000 	ldcvs	0, cr0, [r8]
3000bef4:	7c00386c 	stcvc	8, cr3, [r0], {108}
	...
3000bf00:	30300000 	eorccs	r0, r0, r0
3000bf04:	60303000 	eorvss	r3, r0, r0
3000bf08:	7cc6c6c0 	stcvcl	6, cr12, [r6], {192}
	...
3000bf14:	c0fe0000 	rscgts	r0, lr, r0
3000bf18:	00c0c0c0 	sbceq	ip, r0, r0, asr #1
	...
3000bf24:	06fe0000 	ldreqbt	r0, [lr], r0
3000bf28:	00060606 	andeq	r0, r6, r6, lsl #12
3000bf2c:	00000000 	andeq	r0, r0, r0
3000bf30:	62e06000 	rscvs	r6, r0, #0	; 0x0
3000bf34:	30186c66 	andccs	r6, r8, r6, ror #24
3000bf38:	0c86dc60 	stceq	12, cr13, [r6], {96}
3000bf3c:	00003e18 	andeq	r3, r0, r8, lsl lr
3000bf40:	62e06000 	rscvs	r6, r0, #0	; 0x0
3000bf44:	30186c66 	andccs	r6, r8, r6, ror #24
3000bf48:	3f9ace66 	swicc	0x009ace66
3000bf4c:	00000606 	andeq	r0, r0, r6, lsl #12
3000bf50:	18180000 	ldmneda	r8, {}
3000bf54:	18181800 	ldmneda	r8, {fp, ip}
3000bf58:	183c3c3c 	ldmneda	ip!, {r2, r3, r4, r5, sl, fp, ip, sp}
	...
3000bf64:	d86c3600 	stmleda	ip!, {r9, sl, ip, sp}^
3000bf68:	0000366c 	andeq	r3, r0, ip, ror #12
	...
3000bf74:	366cd800 	strccbt	sp, [ip], -r0, lsl #16
3000bf78:	0000d86c 	andeq	sp, r0, ip, ror #16
3000bf7c:	00000000 	andeq	r0, r0, r0
3000bf80:	44114411 	ldrmi	r4, [r1], #-1041
3000bf84:	44114411 	ldrmi	r4, [r1], #-1041
3000bf88:	44114411 	ldrmi	r4, [r1], #-1041
3000bf8c:	44114411 	ldrmi	r4, [r1], #-1041
3000bf90:	aa55aa55 	bge	315768ec <__bss_end+0x15698d0>
3000bf94:	aa55aa55 	bge	315768f0 <__bss_end+0x15698d4>
3000bf98:	aa55aa55 	bge	315768f4 <__bss_end+0x15698d8>
3000bf9c:	aa55aa55 	bge	315768f8 <__bss_end+0x15698dc>
3000bfa0:	77dd77dd 	undefined
3000bfa4:	77dd77dd 	undefined
3000bfa8:	77dd77dd 	undefined
3000bfac:	77dd77dd 	undefined
3000bfb0:	18181818 	ldmneda	r8, {r3, r4, fp, ip}
3000bfb4:	18181818 	ldmneda	r8, {r3, r4, fp, ip}
3000bfb8:	18181818 	ldmneda	r8, {r3, r4, fp, ip}
3000bfbc:	18181818 	ldmneda	r8, {r3, r4, fp, ip}
3000bfc0:	18181818 	ldmneda	r8, {r3, r4, fp, ip}
3000bfc4:	f8181818 	ldmnvda	r8, {r3, r4, fp, ip}
3000bfc8:	18181818 	ldmneda	r8, {r3, r4, fp, ip}
3000bfcc:	18181818 	ldmneda	r8, {r3, r4, fp, ip}
3000bfd0:	18181818 	ldmneda	r8, {r3, r4, fp, ip}
3000bfd4:	f818f818 	ldmnvda	r8, {r3, r4, fp, ip, sp, lr, pc}
3000bfd8:	18181818 	ldmneda	r8, {r3, r4, fp, ip}
3000bfdc:	18181818 	ldmneda	r8, {r3, r4, fp, ip}
3000bfe0:	36363636 	undefined
3000bfe4:	f6363636 	undefined
3000bfe8:	36363636 	undefined
3000bfec:	36363636 	undefined
3000bff0:	00000000 	andeq	r0, r0, r0
3000bff4:	fe000000 	cdp2	0, 0, cr0, cr0, cr0, {0}
3000bff8:	36363636 	undefined
3000bffc:	36363636 	undefined
3000c000:	00000000 	andeq	r0, r0, r0
3000c004:	f818f800 	ldmnvda	r8, {fp, ip, sp, lr, pc}
3000c008:	18181818 	ldmneda	r8, {r3, r4, fp, ip}
3000c00c:	18181818 	ldmneda	r8, {r3, r4, fp, ip}
3000c010:	36363636 	undefined
3000c014:	f606f636 	undefined
3000c018:	36363636 	undefined
3000c01c:	36363636 	undefined
3000c020:	36363636 	undefined
3000c024:	36363636 	undefined
3000c028:	36363636 	undefined
3000c02c:	36363636 	undefined
3000c030:	00000000 	andeq	r0, r0, r0
3000c034:	f606fe00 	strnv	pc, [r6], -r0, lsl #28
3000c038:	36363636 	undefined
3000c03c:	36363636 	undefined
3000c040:	36363636 	undefined
3000c044:	fe06f636 	mcr2	6, 0, pc, cr6, cr6, {1}
	...
3000c050:	36363636 	undefined
3000c054:	fe363636 	mrc2	6, 1, r3, cr6, cr6, {1}
	...
3000c060:	18181818 	ldmneda	r8, {r3, r4, fp, ip}
3000c064:	f818f818 	ldmnvda	r8, {r3, r4, fp, ip, sp, lr, pc}
	...
3000c074:	f8000000 	stmnvda	r0, {}
3000c078:	18181818 	ldmneda	r8, {r3, r4, fp, ip}
3000c07c:	18181818 	ldmneda	r8, {r3, r4, fp, ip}
3000c080:	18181818 	ldmneda	r8, {r3, r4, fp, ip}
3000c084:	1f181818 	swine	0x00181818
	...
3000c090:	18181818 	ldmneda	r8, {r3, r4, fp, ip}
3000c094:	ff181818 	swinv	0x00181818
	...
3000c0a4:	ff000000 	swinv	0x00000000
3000c0a8:	18181818 	ldmneda	r8, {r3, r4, fp, ip}
3000c0ac:	18181818 	ldmneda	r8, {r3, r4, fp, ip}
3000c0b0:	18181818 	ldmneda	r8, {r3, r4, fp, ip}
3000c0b4:	1f181818 	swine	0x00181818
3000c0b8:	18181818 	ldmneda	r8, {r3, r4, fp, ip}
3000c0bc:	18181818 	ldmneda	r8, {r3, r4, fp, ip}
3000c0c0:	00000000 	andeq	r0, r0, r0
3000c0c4:	ff000000 	swinv	0x00000000
	...
3000c0d0:	18181818 	ldmneda	r8, {r3, r4, fp, ip}
3000c0d4:	ff181818 	swinv	0x00181818
3000c0d8:	18181818 	ldmneda	r8, {r3, r4, fp, ip}
3000c0dc:	18181818 	ldmneda	r8, {r3, r4, fp, ip}
3000c0e0:	18181818 	ldmneda	r8, {r3, r4, fp, ip}
3000c0e4:	1f181f18 	swine	0x00181f18
3000c0e8:	18181818 	ldmneda	r8, {r3, r4, fp, ip}
3000c0ec:	18181818 	ldmneda	r8, {r3, r4, fp, ip}
3000c0f0:	36363636 	undefined
3000c0f4:	37363636 	undefined
3000c0f8:	36363636 	undefined
3000c0fc:	36363636 	undefined
3000c100:	36363636 	undefined
3000c104:	3f303736 	swicc	0x00303736
	...
3000c114:	37303f00 	ldrcc	r3, [r0, -r0, lsl #30]!
3000c118:	36363636 	undefined
3000c11c:	36363636 	undefined
3000c120:	36363636 	undefined
3000c124:	ff00f736 	swinv	0x0000f736
	...
3000c134:	f700ff00 	strnv	pc, [r0, -r0, lsl #30]
3000c138:	36363636 	undefined
3000c13c:	36363636 	undefined
3000c140:	36363636 	undefined
3000c144:	37303736 	undefined
3000c148:	36363636 	undefined
3000c14c:	36363636 	undefined
3000c150:	00000000 	andeq	r0, r0, r0
3000c154:	ff00ff00 	swinv	0x0000ff00
	...
3000c160:	36363636 	undefined
3000c164:	f700f736 	smuadxnv	r0, r6, r7
3000c168:	36363636 	undefined
3000c16c:	36363636 	undefined
3000c170:	18181818 	ldmneda	r8, {r3, r4, fp, ip}
3000c174:	ff00ff18 	swinv	0x0000ff18
	...
3000c180:	36363636 	undefined
3000c184:	ff363636 	swinv	0x00363636
	...
3000c194:	ff00ff00 	swinv	0x0000ff00
3000c198:	18181818 	ldmneda	r8, {r3, r4, fp, ip}
3000c19c:	18181818 	ldmneda	r8, {r3, r4, fp, ip}
3000c1a0:	00000000 	andeq	r0, r0, r0
3000c1a4:	ff000000 	swinv	0x00000000
3000c1a8:	36363636 	undefined
3000c1ac:	36363636 	undefined
3000c1b0:	36363636 	undefined
3000c1b4:	3f363636 	swicc	0x00363636
	...
3000c1c0:	18181818 	ldmneda	r8, {r3, r4, fp, ip}
3000c1c4:	1f181f18 	swine	0x00181f18
	...
3000c1d4:	1f181f00 	swine	0x00181f00
3000c1d8:	18181818 	ldmneda	r8, {r3, r4, fp, ip}
3000c1dc:	18181818 	ldmneda	r8, {r3, r4, fp, ip}
3000c1e0:	00000000 	andeq	r0, r0, r0
3000c1e4:	3f000000 	swicc	0x00000000
3000c1e8:	36363636 	undefined
3000c1ec:	36363636 	undefined
3000c1f0:	36363636 	undefined
3000c1f4:	ff363636 	swinv	0x00363636
3000c1f8:	36363636 	undefined
3000c1fc:	36363636 	undefined
3000c200:	18181818 	ldmneda	r8, {r3, r4, fp, ip}
3000c204:	ff18ff18 	swinv	0x0018ff18
3000c208:	18181818 	ldmneda	r8, {r3, r4, fp, ip}
3000c20c:	18181818 	ldmneda	r8, {r3, r4, fp, ip}
3000c210:	18181818 	ldmneda	r8, {r3, r4, fp, ip}
3000c214:	f8181818 	ldmnvda	r8, {r3, r4, fp, ip}
	...
3000c224:	1f000000 	swine	0x00000000
3000c228:	18181818 	ldmneda	r8, {r3, r4, fp, ip}
3000c22c:	18181818 	ldmneda	r8, {r3, r4, fp, ip}
3000c230:	ffffffff 	swinv	0x00ffffff
3000c234:	ffffffff 	swinv	0x00ffffff
3000c238:	ffffffff 	swinv	0x00ffffff
3000c23c:	ffffffff 	swinv	0x00ffffff
3000c240:	00000000 	andeq	r0, r0, r0
3000c244:	ff000000 	swinv	0x00000000
3000c248:	ffffffff 	swinv	0x00ffffff
3000c24c:	ffffffff 	swinv	0x00ffffff
3000c250:	f0f0f0f0 	ldrnvsh	pc, [r0]
3000c254:	f0f0f0f0 	ldrnvsh	pc, [r0]
3000c258:	f0f0f0f0 	ldrnvsh	pc, [r0]
3000c25c:	f0f0f0f0 	ldrnvsh	pc, [r0]
3000c260:	0f0f0f0f 	swieq	0x000f0f0f
3000c264:	0f0f0f0f 	swieq	0x000f0f0f
3000c268:	0f0f0f0f 	swieq	0x000f0f0f
3000c26c:	0f0f0f0f 	swieq	0x000f0f0f
3000c270:	ffffffff 	swinv	0x00ffffff
3000c274:	00ffffff 	ldreqsh	pc, [pc, #255]	; 3000c37b <fontdata_8x16+0xefb>
	...
3000c284:	d8dc7600 	ldmleia	ip, {r9, sl, ip, sp, lr}^
3000c288:	76dcd8d8 	undefined
3000c28c:	00000000 	andeq	r0, r0, r0
3000c290:	cc780000 	ldcgtl	0, cr0, [r8]
3000c294:	ccd8cccc 	ldcgtl	12, cr12, [r8], {204}
3000c298:	ccc6c6c6 	stcgtl	6, cr12, [r6], {198}
3000c29c:	00000000 	andeq	r0, r0, r0
3000c2a0:	c6fe0000 	ldrgtbt	r0, [lr], r0
3000c2a4:	c0c0c0c6 	sbcgt	ip, r0, r6, asr #1
3000c2a8:	c0c0c0c0 	sbcgt	ip, r0, r0, asr #1
	...
3000c2b4:	6c6cfe00 	stcvsl	14, cr15, [ip]
3000c2b8:	6c6c6c6c 	stcvsl	12, cr6, [ip], #-432
3000c2bc:	00000000 	andeq	r0, r0, r0
3000c2c0:	c6fe0000 	ldrgtbt	r0, [lr], r0
3000c2c4:	18183060 	ldmneda	r8, {r5, r6, ip, sp}
3000c2c8:	fec66030 	mcr2	0, 6, r6, cr6, cr0, {1}
	...
3000c2d4:	d8d87e00 	ldmleia	r8, {r9, sl, fp, ip, sp, lr}^
3000c2d8:	70d8d8d8 	ldrvcsb	sp, [r8], #136
	...
3000c2e4:	66666600 	strvsbt	r6, [r6], -r0, lsl #12
3000c2e8:	7c666666 	stcvcl	6, cr6, [r6], #-408
3000c2ec:	00c06060 	sbceq	r6, r0, r0, rrx
3000c2f0:	00000000 	andeq	r0, r0, r0
3000c2f4:	1818dc76 	ldmneda	r8, {r1, r2, r4, r5, r6, sl, fp, ip, lr, pc}
3000c2f8:	18181818 	ldmneda	r8, {r3, r4, fp, ip}
3000c2fc:	00000000 	andeq	r0, r0, r0
3000c300:	187e0000 	ldmneda	lr!, {}^
3000c304:	6666663c 	undefined
3000c308:	7e183c66 	cdpvc	12, 1, cr3, cr8, cr6, {3}
3000c30c:	00000000 	andeq	r0, r0, r0
3000c310:	6c380000 	ldcvs	0, cr0, [r8]
3000c314:	c6fec6c6 	ldrgtbt	ip, [lr], r6, asr #13
3000c318:	386cc6c6 	stmccda	ip!, {r1, r2, r6, r7, r9, sl, lr, pc}^
3000c31c:	00000000 	andeq	r0, r0, r0
3000c320:	6c380000 	ldcvs	0, cr0, [r8]
3000c324:	6cc6c6c6 	stcvsl	6, cr12, [r6], {198}
3000c328:	ee6c6c6c 	cdp	12, 6, cr6, cr12, cr12, {3}
3000c32c:	00000000 	andeq	r0, r0, r0
3000c330:	301e0000 	andccs	r0, lr, r0
3000c334:	663e0c18 	undefined
3000c338:	3c666666 	stcccl	6, cr6, [r6], #-408
	...
3000c344:	dbdb7e00 	blle	2f6ebb4c <__code_start-0x9144b4>
3000c348:	00007edb 	ldreqd	r7, [r0], -fp
3000c34c:	00000000 	andeq	r0, r0, r0
3000c350:	03000000 	tsteq	r0, #0	; 0x0
3000c354:	dbdb7e06 	blle	2f6ebb74 <__code_start-0x91448c>
3000c358:	c0607ef3 	strgtd	r7, [r0], #-227
3000c35c:	00000000 	andeq	r0, r0, r0
3000c360:	301c0000 	andccs	r0, ip, r0
3000c364:	607c6060 	rsbvss	r6, ip, r0, rrx
3000c368:	1c306060 	ldcne	0, cr6, [r0], #-384
3000c36c:	00000000 	andeq	r0, r0, r0
3000c370:	7c000000 	stcvc	0, cr0, [r0], {0}
3000c374:	c6c6c6c6 	strgtb	ip, [r6], r6, asr #13
3000c378:	c6c6c6c6 	strgtb	ip, [r6], r6, asr #13
	...
3000c384:	fe0000fe 	mcr2	0, 0, r0, cr0, cr14, {7}
3000c388:	00fe0000 	rsceqs	r0, lr, r0
	...
3000c394:	187e1818 	ldmneda	lr!, {r3, r4, fp, ip}^
3000c398:	7e000018 	mcrvc	0, 0, r0, cr0, cr8, {0}
3000c39c:	00000000 	andeq	r0, r0, r0
3000c3a0:	30000000 	andcc	r0, r0, r0
3000c3a4:	0c060c18 	stceq	12, cr0, [r6], {24}
3000c3a8:	7e003018 	mcrvc	0, 0, r3, cr0, cr8, {0}
3000c3ac:	00000000 	andeq	r0, r0, r0
3000c3b0:	0c000000 	stceq	0, cr0, [r0], {0}
3000c3b4:	30603018 	rsbcc	r3, r0, r8, lsl r0
3000c3b8:	7e000c18 	mcrvc	12, 0, r0, cr0, cr8, {0}
3000c3bc:	00000000 	andeq	r0, r0, r0
3000c3c0:	1b0e0000 	blne	3038c3c8 <__bss_end+0x37f3ac>
3000c3c4:	1818181b 	ldmneda	r8, {r0, r1, r3, r4, fp, ip}
3000c3c8:	18181818 	ldmneda	r8, {r3, r4, fp, ip}
3000c3cc:	18181818 	ldmneda	r8, {r3, r4, fp, ip}
3000c3d0:	18181818 	ldmneda	r8, {r3, r4, fp, ip}
3000c3d4:	18181818 	ldmneda	r8, {r3, r4, fp, ip}
3000c3d8:	d8d8d818 	ldmleia	r8, {r3, r4, fp, ip, lr, pc}^
3000c3dc:	00000070 	andeq	r0, r0, r0, ror r0
3000c3e0:	00000000 	andeq	r0, r0, r0
3000c3e4:	7e001800 	cdpvc	8, 0, cr1, cr0, cr0, {0}
3000c3e8:	00001800 	andeq	r1, r0, r0, lsl #16
	...
3000c3f4:	00dc7600 	sbceqs	r7, ip, r0, lsl #12
3000c3f8:	0000dc76 	andeq	sp, r0, r6, ror ip
3000c3fc:	00000000 	andeq	r0, r0, r0
3000c400:	6c6c3800 	stcvsl	8, cr3, [ip]
3000c404:	00000038 	andeq	r0, r0, r8, lsr r0
	...
3000c414:	18000000 	stmneda	r0, {}
3000c418:	00000018 	andeq	r0, r0, r8, lsl r0
	...
3000c424:	18000000 	stmneda	r0, {}
	...
3000c430:	0c0c0f00 	stceq	15, cr0, [ip], {0}
3000c434:	ec0c0c0c 	stc	12, cr0, [ip], {12}
3000c438:	1c3c6c6c 	ldcne	12, cr6, [ip], #-432
3000c43c:	00000000 	andeq	r0, r0, r0
3000c440:	36366c00 	ldrcct	r6, [r6], -r0, lsl #24
3000c444:	00363636 	eoreqs	r3, r6, r6, lsr r6
	...
3000c450:	0c663c00 	stceql	12, cr3, [r6]
3000c454:	007e3218 	rsbeqs	r3, lr, r8, lsl r2
	...
3000c464:	7e7e7e7e 	mrcvc	14, 3, r7, cr14, cr14, {3}
3000c468:	007e7e7e 	rsbeqs	r7, lr, lr, ror lr
	...
3000c480:	63756f54 	cmnvs	r5, #336	; 0x150
3000c484:	72635368 	rsbvc	r5, r3, #-1610612735	; 0xa0000001
3000c488:	5f6e6565 	swipl	0x006e6565
3000c48c:	454d4954 	strmib	r4, [sp, #-2388]
3000c490:	00000052 	andeq	r0, r0, r2, asr r0
3000c494:	756f545b 	strvcb	r5, [pc, #-1115]!	; 3000c041 <fontdata_8x16+0xbc1>
3000c498:	63536863 	cmpvs	r3, #6488064	; 0x630000
3000c49c:	6e656572 	mcrvs	5, 3, r6, cr5, cr2, {3}
3000c4a0:	2058203a 	subcss	r2, r8, sl, lsr r0
3000c4a4:	3025203d 	eorcc	r2, r5, sp, lsr r0
3000c4a8:	202c6438 	eorcs	r6, ip, r8, lsr r4
3000c4ac:	203d2059 	eorcss	r2, sp, r9, asr r0
3000c4b0:	64383025 	ldrvst	r3, [r8], #-37
3000c4b4:	00005d2e 	andeq	r5, r0, lr, lsr #26
3000c4b8:	756f545b 	strvcb	r5, [pc, #-1115]!	; 3000c065 <fontdata_8x16+0xbe5>
3000c4bc:	63536863 	cmpvs	r3, #6488064	; 0x630000
3000c4c0:	6e656572 	mcrvs	5, 3, r6, cr5, cr2, {3}
3000c4c4:	6550203a 	ldrvsb	r2, [r0, #-58]
3000c4c8:	7075206e 	rsbvcs	r2, r5, lr, rrx
3000c4cc:	00005d2e 	andeq	r5, r0, lr, lsr #26
3000c4d0:	756f545b 	strvcb	r5, [pc, #-1115]!	; 3000c07d <fontdata_8x16+0xbfd>
3000c4d4:	63536863 	cmpvs	r3, #6488064	; 0x630000
3000c4d8:	6e656572 	mcrvs	5, 3, r6, cr5, cr2, {3}
3000c4dc:	6550203a 	ldrvsb	r2, [r0, #-58]
3000c4e0:	6f64206e 	swivs	0x0064206e
3000c4e4:	5d2e6e77 	stcpl	14, cr6, [lr, #-476]!
3000c4e8:	00000000 	andeq	r0, r0, r0

3000c4ec <pow10.0>:
3000c4ec:	3ff00000 	swicc	0x00f00000	; IMB
3000c4f0:	00000000 	andeq	r0, r0, r0
3000c4f4:	40240000 	eormi	r0, r4, r0
3000c4f8:	00000000 	andeq	r0, r0, r0
3000c4fc:	40590000 	submis	r0, r9, r0
3000c500:	00000000 	andeq	r0, r0, r0
3000c504:	408f4000 	addmi	r4, pc, r0
3000c508:	00000000 	andeq	r0, r0, r0
3000c50c:	40c38800 	sbcmi	r8, r3, r0, lsl #16
3000c510:	00000000 	andeq	r0, r0, r0
3000c514:	40f86a00 	rscmis	r6, r8, r0, lsl #20
3000c518:	00000000 	andeq	r0, r0, r0
3000c51c:	412e8480 	smlawbmi	lr, r0, r4, r8
3000c520:	00000000 	andeq	r0, r0, r0
3000c524:	416312d0 	ldrmid	r1, [r3, #-32]!
3000c528:	00000000 	andeq	r0, r0, r0
3000c52c:	4197d784 	orrmis	sp, r7, r4, lsl #15
3000c530:	00000000 	andeq	r0, r0, r0
3000c534:	41cdcd65 	bicmi	ip, sp, r5, ror #26
3000c538:	00000000 	andeq	r0, r0, r0
3000c53c:	006e616e 	rsbeq	r6, lr, lr, ror #2
3000c540:	2d696e66 	stccsl	14, cr6, [r9, #-408]!
3000c544:	00000000 	andeq	r0, r0, r0
3000c548:	2b696e66 	blcs	31a67ee8 <__bss_end+0x1a5aecc>
3000c54c:	00000000 	andeq	r0, r0, r0
3000c550:	00696e66 	rsbeq	r6, r9, r6, ror #28
3000c554:	00000000 	andeq	r0, r0, r0
3000c558:	646e616e 	strvsbt	r6, [lr], #-366
3000c55c:	73616c46 	cmnvc	r1, #17920	; 0x4600
3000c560:	6b614d68 	blvs	3185fb08 <__bss_end+0x1852aec>
3000c564:	6f437265 	swivs	0x00437265
3000c568:	20206564 	eorcs	r6, r0, r4, ror #10
3000c56c:	30203d20 	eorcc	r3, r0, r0, lsr #26
3000c570:	00582578 	subeqs	r2, r8, r8, ror r5
3000c574:	646e616e 	strvsbt	r6, [lr], #-366
3000c578:	73616c46 	cmnvc	r1, #17920	; 0x4600
3000c57c:	76654468 	strvcbt	r4, [r5], -r8, ror #8
3000c580:	43656369 	cmnmi	r5, #-1543503871	; 0xa4000001
3000c584:	2065646f 	rsbcs	r6, r5, pc, ror #8
3000c588:	30203d20 	eorcc	r3, r0, r0, lsr #26
3000c58c:	00582578 	subeqs	r2, r8, r8, ror r5
3000c590:	646e616e 	strvsbt	r6, [lr], #-366
3000c594:	73616c46 	cmnvc	r1, #17920	; 0x4600
3000c598:	64723368 	ldrvsbt	r3, [r2], #-872
3000c59c:	6c637943 	stcvsl	9, cr7, [r3], #-268
3000c5a0:	20202065 	eorcs	r2, r0, r5, rrx
3000c5a4:	30203d20 	eorcc	r3, r0, r0, lsr #26
3000c5a8:	00582578 	subeqs	r2, r8, r8, ror r5
3000c5ac:	646e616e 	strvsbt	r6, [lr], #-366
3000c5b0:	73616c46 	cmnvc	r1, #17920	; 0x4600
3000c5b4:	64723468 	ldrvsbt	r3, [r2], #-1128
3000c5b8:	6c637943 	stcvsl	9, cr7, [r3], #-268
3000c5bc:	20202065 	eorcs	r2, r0, r5, rrx
3000c5c0:	30203d20 	eorcc	r3, r0, r0, lsr #26
3000c5c4:	00582578 	subeqs	r2, r8, r8, ror r5
3000c5c8:	646e616e 	strvsbt	r6, [lr], #-366
3000c5cc:	73616c46 	cmnvc	r1, #17920	; 0x4600
3000c5d0:	64723568 	ldrvsbt	r3, [r2], #-1384
3000c5d4:	6c637943 	stcvsl	9, cr7, [r3], #-268
3000c5d8:	20202065 	eorcs	r2, r0, r5, rrx
3000c5dc:	30203d20 	eorcc	r3, r0, r0, lsr #26
3000c5e0:	00582578 	subeqs	r2, r8, r8, ror r5
3000c5e4:	646e616e 	strvsbt	r6, [lr], #-366
3000c5e8:	73616c46 	cmnvc	r1, #17920	; 0x4600
3000c5ec:	61502068 	cmpvs	r0, r8, rrx
3000c5f0:	20206567 	eorcs	r6, r0, r7, ror #10
3000c5f4:	657a6953 	ldrvsb	r6, [sl, #-2387]!
3000c5f8:	25203d20 	strcs	r3, [r0, #-3360]!
3000c5fc:	626b2064 	rsbvs	r2, fp, #100	; 0x64
3000c600:	00000000 	andeq	r0, r0, r0
3000c604:	646e616e 	strvsbt	r6, [lr], #-366
3000c608:	73616c46 	cmnvc	r1, #17920	; 0x4600
3000c60c:	6c422068 	mcrrvs	0, 6, r2, r2, cr8
3000c610:	206b636f 	rsbcs	r6, fp, pc, ror #6
3000c614:	657a6953 	ldrvsb	r6, [sl, #-2387]!
3000c618:	25203d20 	strcs	r3, [r0, #-3360]!
3000c61c:	626b2064 	rsbvs	r2, fp, #100	; 0x64
3000c620:	00000000 	andeq	r0, r0, r0
3000c624:	65746e45 	ldrvsb	r6, [r4, #-3653]!
3000c628:	68742072 	ldmvsda	r4!, {r1, r4, r5, r6, sp}^
3000c62c:	64612065 	strvsbt	r2, [r1], #-101
3000c630:	73657264 	cmnvc	r5, #1073741830	; 0x40000006
3000c634:	6f742073 	swivs	0x00742073
3000c638:	61726520 	cmnvs	r2, r0, lsr #10
3000c63c:	3a206573 	bcc	30825c10 <__bss_end+0x818bf4>
3000c640:	00000020 	andeq	r0, r0, r0, lsr #32
3000c644:	73617245 	cmnvc	r1, #1342177284	; 0x50000004
3000c648:	676e6965 	strvsb	r6, [lr, -r5, ror #18]!
3000c64c:	2e2e2e20 	cdpcs	14, 2, cr2, cr14, cr0, {1}
3000c650:	00000020 	andeq	r0, r0, r0, lsr #32
3000c654:	73617245 	cmnvc	r1, #1342177284	; 0x50000004
3000c658:	72652065 	rsbvc	r2, r5, #101	; 0x65
3000c65c:	2c726f72 	ldccsl	15, cr6, [r2], #-456
3000c660:	65684320 	strvsb	r4, [r8, #-800]!
3000c664:	65206b63 	strvs	r6, [r0, #-2915]!
3000c668:	65736172 	ldrvsb	r6, [r3, #-370]!
3000c66c:	64646120 	strvsbt	r6, [r4], #-288
3000c670:	73736572 	cmnvc	r3, #478150656	; 0x1c800000
3000c674:	00000000 	andeq	r0, r0, r0
3000c678:	65746e45 	ldrvsb	r6, [r4, #-3653]!
3000c67c:	68742072 	ldmvsda	r4!, {r1, r4, r5, r6, sp}^
3000c680:	64612065 	strvsbt	r2, [r1], #-101
3000c684:	73657264 	cmnvc	r5, #1073741830	; 0x40000006
3000c688:	6f742073 	swivs	0x00742073
3000c68c:	69727720 	ldmvsdb	r2!, {r5, r8, r9, sl, ip, sp, lr}^
3000c690:	3a206574 	bcc	30825c68 <__bss_end+0x818c4c>
3000c694:	00000020 	andeq	r0, r0, r0, lsr #32
3000c698:	65746e45 	ldrvsb	r6, [r4, #-3653]!
3000c69c:	68742072 	ldmvsda	r4!, {r1, r4, r5, r6, sp}^
3000c6a0:	74732065 	ldrvcbt	r2, [r3], #-101
3000c6a4:	676e6972 	undefined
3000c6a8:	206f7420 	rsbcs	r7, pc, r0, lsr #8
3000c6ac:	74697277 	strvcbt	r7, [r9], #-631
3000c6b0:	203a2065 	eorcss	r2, sl, r5, rrx
3000c6b4:	00000000 	andeq	r0, r0, r0
3000c6b8:	74697257 	strvcbt	r7, [r9], #-599
3000c6bc:	20676e69 	rsbcs	r6, r7, r9, ror #28
3000c6c0:	202e2e2e 	eorcs	r2, lr, lr, lsr #28
3000c6c4:	00000000 	andeq	r0, r0, r0
3000c6c8:	65746e45 	ldrvsb	r6, [r4, #-3653]!
3000c6cc:	68742072 	ldmvsda	r4!, {r1, r4, r5, r6, sp}^
3000c6d0:	64612065 	strvsbt	r2, [r1], #-101
3000c6d4:	73657264 	cmnvc	r5, #1073741830	; 0x40000006
3000c6d8:	6f742073 	swivs	0x00742073
3000c6dc:	61657220 	cmnvs	r5, r0, lsr #4
3000c6e0:	203a2064 	eorcss	r2, sl, r4, rrx
3000c6e4:	00000000 	andeq	r0, r0, r0
3000c6e8:	61746144 	cmnvs	r4, r4, asr #2
3000c6ec:	00203a20 	eoreq	r3, r0, r0, lsr #20
3000c6f0:	58323025 	ldmplda	r2!, {r0, r2, r5, ip, sp}
3000c6f4:	00000020 	andeq	r0, r0, r0, lsr #32
3000c6f8:	20202020 	eorcs	r2, r0, r0, lsr #32
3000c6fc:	00203b20 	eoreq	r3, r0, r0, lsr #22
3000c700:	0000002e 	andeq	r0, r0, lr, lsr #32
3000c704:	00006325 	andeq	r6, r0, r5, lsr #6
3000c708:	205d735b 	subcss	r7, sp, fp, asr r3
3000c70c:	6e616353 	mcrvs	3, 3, r6, cr1, cr3, {2}
3000c710:	614e2020 	cmpvs	lr, r0, lsr #32
3000c714:	4620646e 	strmit	r6, [r0], -lr, ror #8
3000c718:	6873616c 	ldmvsda	r3!, {r2, r3, r5, r6, r8, sp, lr}^
3000c71c:	000a0d2e 	andeq	r0, sl, lr, lsr #26
3000c720:	205d655b 	subcss	r6, sp, fp, asr r5
3000c724:	73617245 	cmnvc	r1, #1342177284	; 0x50000004
3000c728:	614e2065 	cmpvs	lr, r5, rrx
3000c72c:	4620646e 	strmit	r6, [r0], -lr, ror #8
3000c730:	6873616c 	ldmvsda	r3!, {r2, r3, r5, r6, r8, sp, lr}^
3000c734:	000a0d2e 	andeq	r0, sl, lr, lsr #26
3000c738:	205d775b 	subcss	r7, sp, fp, asr r7
3000c73c:	74697257 	strvcbt	r7, [r9], #-599
3000c740:	614e2065 	cmpvs	lr, r5, rrx
3000c744:	4620646e 	strmit	r6, [r0], -lr, ror #8
3000c748:	6873616c 	ldmvsda	r3!, {r2, r3, r5, r6, r8, sp, lr}^
3000c74c:	000a0d2e 	andeq	r0, sl, lr, lsr #26
3000c750:	205d725b 	subcss	r7, sp, fp, asr r2
3000c754:	64616552 	strvsbt	r6, [r1], #-1362
3000c758:	614e2020 	cmpvs	lr, r0, lsr #32
3000c75c:	4620646e 	strmit	r6, [r0], -lr, ror #8
3000c760:	6873616c 	ldmvsda	r3!, {r2, r3, r5, r6, r8, sp, lr}^
3000c764:	000a0d2e 	andeq	r0, sl, lr, lsr #26
3000c768:	205d715b 	subcss	r7, sp, fp, asr r1
3000c76c:	74697551 	strvcbt	r7, [r9], #-1361
3000c770:	654d2020 	strvsb	r2, [sp, #-32]
3000c774:	0d2e756e 	cfstr32eq	mvfx7, [lr, #-440]!
3000c778:	0000000a 	andeq	r0, r0, sl
3000c77c:	6e450a0d 	fmacsvs	s1, s10, s26
3000c780:	20726574 	rsbcss	r6, r2, r4, ror r5
3000c784:	656c6573 	strvsb	r6, [ip, #-1395]!
3000c788:	6f697463 	swivs	0x00697463
3000c78c:	00203a6e 	eoreq	r3, r0, lr, ror #20
3000c790:	0a0d6325 	beq	3036542c <__bss_end+0x358410>
	...
3000c79c:	46726f6e 	ldrmibt	r6, [r2], -lr, ror #30
3000c7a0:	6873616c 	ldmvsda	r3!, {r2, r3, r5, r6, r8, sp, lr}^
3000c7a4:	646e6556 	strvsbt	r6, [lr], #-1366
3000c7a8:	4449726f 	strmib	r7, [r9], #-623
3000c7ac:	3d202020 	stccc	0, cr2, [r0, #-128]!
3000c7b0:	25783020 	ldrcsb	r3, [r8, #-32]!
3000c7b4:	00000078 	andeq	r0, r0, r8, ror r0
3000c7b8:	46726f6e 	ldrmibt	r6, [r2], -lr, ror #30
3000c7bc:	6873614c 	ldmvsda	r3!, {r2, r3, r6, r8, sp, lr}^
3000c7c0:	69766544 	ldmvsdb	r6!, {r2, r6, r8, sl, sp, lr}^
3000c7c4:	44496563 	strmib	r6, [r9], #-1379
3000c7c8:	3d202020 	stccc	0, cr2, [r0, #-128]!
3000c7cc:	25783020 	ldrcsb	r3, [r8, #-32]!
3000c7d0:	00000078 	andeq	r0, r0, r8, ror r0
3000c7d4:	41797251 	cmnmi	r9, r1, asr r2
3000c7d8:	69696373 	stmvsdb	r9!, {r0, r1, r4, r5, r6, r8, r9, sp, lr}^
3000c7dc:	20727453 	rsbcss	r7, r2, r3, asr r4
3000c7e0:	20202020 	eorcs	r2, r0, r0, lsr #32
3000c7e4:	3d202020 	stccc	0, cr2, [r0, #-128]!
3000c7e8:	00732520 	rsbeqs	r2, r3, r0, lsr #10
3000c7ec:	20726f4e 	rsbcss	r6, r2, lr, asr #30
3000c7f0:	73614c46 	cmnvc	r1, #17920	; 0x4600
3000c7f4:	69532068 	ldmvsdb	r3, {r3, r5, r6, sp}^
3000c7f8:	2020657a 	eorcs	r6, r0, sl, ror r5
3000c7fc:	3d202020 	stccc	0, cr2, [r0, #-128]!
3000c800:	25783020 	ldrcsb	r3, [r8, #-32]!
3000c804:	25202c78 	strcs	r2, [r0, #-3192]!
3000c808:	00004d64 	andeq	r4, r0, r4, ror #26
3000c80c:	65530a0d 	ldrvsb	r0, [r3, #-2573]
3000c810:	726f7463 	rsbvc	r7, pc, #1660944384	; 0x63000000
3000c814:	61745320 	cmnvs	r4, r0, lsr #6
3000c818:	41207472 	teqmi	r0, r2, ror r4
3000c81c:	65726464 	ldrvsb	r6, [r2, #-1124]!
3000c820:	73657373 	cmnvc	r5, #-872415231	; 0xcc000001
3000c824:	0000003a 	andeq	r0, r0, sl, lsr r0
3000c828:	58383025 	ldmplda	r8!, {r0, r2, r5, ip, sp}
3000c82c:	00002020 	andeq	r2, r0, r0, lsr #32
3000c830:	65746e45 	ldrvsb	r6, [r4, #-3653]!
3000c834:	68742072 	ldmvsda	r4!, {r1, r4, r5, r6, sp}^
3000c838:	64612065 	strvsbt	r2, [r1], #-101
3000c83c:	73657264 	cmnvc	r5, #1073741830	; 0x40000006
3000c840:	6f742073 	swivs	0x00742073
3000c844:	61726520 	cmnvs	r2, r0, lsr #10
3000c848:	3a206573 	bcc	30825e1c <__bss_end+0x818e00>
3000c84c:	00000020 	andeq	r0, r0, r0, lsr #32
3000c850:	73617245 	cmnvc	r1, #1342177284	; 0x50000004
3000c854:	676e6965 	strvsb	r6, [lr, -r5, ror #18]!
3000c858:	2e2e2e20 	cdpcs	14, 2, cr2, cr14, cr0, {1}
3000c85c:	00000020 	andeq	r0, r0, r0, lsr #32
3000c860:	65746e45 	ldrvsb	r6, [r4, #-3653]!
3000c864:	68742072 	ldmvsda	r4!, {r1, r4, r5, r6, sp}^
3000c868:	64612065 	strvsbt	r2, [r1], #-101
3000c86c:	73657264 	cmnvc	r5, #1073741830	; 0x40000006
3000c870:	6f742073 	swivs	0x00742073
3000c874:	69727720 	ldmvsdb	r2!, {r5, r8, r9, sl, ip, sp, lr}^
3000c878:	3a206574 	bcc	30825e50 <__bss_end+0x818e34>
3000c87c:	00000020 	andeq	r0, r0, r0, lsr #32
3000c880:	65746e45 	ldrvsb	r6, [r4, #-3653]!
3000c884:	68742072 	ldmvsda	r4!, {r1, r4, r5, r6, sp}^
3000c888:	74732065 	ldrvcbt	r2, [r3], #-101
3000c88c:	676e6972 	undefined
3000c890:	206f7420 	rsbcs	r7, pc, r0, lsr #8
3000c894:	74697277 	strvcbt	r7, [r9], #-631
3000c898:	203a2065 	eorcss	r2, sl, r5, rrx
3000c89c:	00000000 	andeq	r0, r0, r0
3000c8a0:	74697257 	strvcbt	r7, [r9], #-599
3000c8a4:	20676e69 	rsbcs	r6, r7, r9, ror #28
3000c8a8:	202e2e2e 	eorcs	r2, lr, lr, lsr #28
3000c8ac:	00000000 	andeq	r0, r0, r0
3000c8b0:	65746e45 	ldrvsb	r6, [r4, #-3653]!
3000c8b4:	68742072 	ldmvsda	r4!, {r1, r4, r5, r6, sp}^
3000c8b8:	64612065 	strvsbt	r2, [r1], #-101
3000c8bc:	73657264 	cmnvc	r5, #1073741830	; 0x40000006
3000c8c0:	6f742073 	swivs	0x00742073
3000c8c4:	61657220 	cmnvs	r5, r0, lsr #4
3000c8c8:	203a2064 	eorcss	r2, sl, r4, rrx
3000c8cc:	00000000 	andeq	r0, r0, r0
3000c8d0:	61746144 	cmnvs	r4, r4, asr #2
3000c8d4:	00203a20 	eoreq	r3, r0, r0, lsr #20
3000c8d8:	58323025 	ldmplda	r2!, {r0, r2, r5, ip, sp}
3000c8dc:	00000020 	andeq	r0, r0, r0, lsr #32
3000c8e0:	20202020 	eorcs	r2, r0, r0, lsr #32
3000c8e4:	00203b20 	eoreq	r3, r0, r0, lsr #22
3000c8e8:	0000002e 	andeq	r0, r0, lr, lsr #32
3000c8ec:	00006325 	andeq	r6, r0, r5, lsr #6
3000c8f0:	205d735b 	subcss	r7, sp, fp, asr r3
3000c8f4:	6e616353 	mcrvs	3, 3, r6, cr1, cr3, {2}
3000c8f8:	6f4e2020 	swivs	0x004e2020
3000c8fc:	6c462072 	mcrrvs	0, 7, r2, r6, cr2
3000c900:	2e687361 	cdpcs	3, 6, cr7, cr8, cr1, {3}
3000c904:	00000a0d 	andeq	r0, r0, sp, lsl #20
3000c908:	205d655b 	subcss	r6, sp, fp, asr r5
3000c90c:	73617245 	cmnvc	r1, #1342177284	; 0x50000004
3000c910:	6f4e2065 	swivs	0x004e2065
3000c914:	6c462072 	mcrrvs	0, 7, r2, r6, cr2
3000c918:	2e687361 	cdpcs	3, 6, cr7, cr8, cr1, {3}
3000c91c:	00000a0d 	andeq	r0, r0, sp, lsl #20
3000c920:	205d775b 	subcss	r7, sp, fp, asr r7
3000c924:	74697257 	strvcbt	r7, [r9], #-599
3000c928:	6f4e2065 	swivs	0x004e2065
3000c92c:	6c462072 	mcrrvs	0, 7, r2, r6, cr2
3000c930:	2e687361 	cdpcs	3, 6, cr7, cr8, cr1, {3}
3000c934:	00000a0d 	andeq	r0, r0, sp, lsl #20
3000c938:	205d725b 	subcss	r7, sp, fp, asr r2
3000c93c:	64616552 	strvsbt	r6, [r1], #-1362
3000c940:	6f4e2020 	swivs	0x004e2020
3000c944:	6c462072 	mcrrvs	0, 7, r2, r6, cr2
3000c948:	2e687361 	cdpcs	3, 6, cr7, cr8, cr1, {3}
3000c94c:	00000a0d 	andeq	r0, r0, sp, lsl #20
3000c950:	205d715b 	subcss	r7, sp, fp, asr r1
3000c954:	74697551 	strvcbt	r7, [r9], #-1361
3000c958:	654d2020 	strvsb	r2, [sp, #-32]
3000c95c:	0d2e756e 	cfstr32eq	mvfx7, [lr, #-440]!
3000c960:	0000000a 	andeq	r0, r0, sl
3000c964:	6e450a0d 	fmacsvs	s1, s10, s26
3000c968:	20726574 	rsbcss	r6, r2, r4, ror r5
3000c96c:	656c6573 	strvsb	r6, [ip, #-1395]!
3000c970:	6f697463 	swivs	0x00697463
3000c974:	00203a6e 	eoreq	r3, r0, lr, ror #20
3000c978:	0a0d6325 	beq	30365614 <__bss_end+0x3585f8>
3000c97c:	00000000 	andeq	r0, r0, r0
3000c980:	2044434c 	subcs	r4, r4, ip, asr #6
3000c984:	74736554 	ldrvcbt	r6, [r3], #-1364
3000c988:	6d654420 	cfstrdvs	mvd4, [r5, #-128]!
3000c98c:	2021216f 	eorcs	r2, r1, pc, ror #2
3000c990:	77206f53 	undefined
3000c994:	3f746168 	swicc	0x00746168
3000c998:	00000000 	andeq	r0, r0, r0

3000c99c <__clz_tab>:
3000c99c:	02020100 	andeq	r0, r2, #0	; 0x0
3000c9a0:	03030303 	tsteq	r3, #201326592	; 0xc000000
3000c9a4:	04040404 	streq	r0, [r4], #-1028
3000c9a8:	04040404 	streq	r0, [r4], #-1028
3000c9ac:	05050505 	streq	r0, [r5, #-1285]
3000c9b0:	05050505 	streq	r0, [r5, #-1285]
3000c9b4:	05050505 	streq	r0, [r5, #-1285]
3000c9b8:	05050505 	streq	r0, [r5, #-1285]
3000c9bc:	06060606 	streq	r0, [r6], -r6, lsl #12
3000c9c0:	06060606 	streq	r0, [r6], -r6, lsl #12
3000c9c4:	06060606 	streq	r0, [r6], -r6, lsl #12
3000c9c8:	06060606 	streq	r0, [r6], -r6, lsl #12
3000c9cc:	06060606 	streq	r0, [r6], -r6, lsl #12
3000c9d0:	06060606 	streq	r0, [r6], -r6, lsl #12
3000c9d4:	06060606 	streq	r0, [r6], -r6, lsl #12
3000c9d8:	06060606 	streq	r0, [r6], -r6, lsl #12
3000c9dc:	07070707 	streq	r0, [r7, -r7, lsl #14]
3000c9e0:	07070707 	streq	r0, [r7, -r7, lsl #14]
3000c9e4:	07070707 	streq	r0, [r7, -r7, lsl #14]
3000c9e8:	07070707 	streq	r0, [r7, -r7, lsl #14]
3000c9ec:	07070707 	streq	r0, [r7, -r7, lsl #14]
3000c9f0:	07070707 	streq	r0, [r7, -r7, lsl #14]
3000c9f4:	07070707 	streq	r0, [r7, -r7, lsl #14]
3000c9f8:	07070707 	streq	r0, [r7, -r7, lsl #14]
3000c9fc:	07070707 	streq	r0, [r7, -r7, lsl #14]
3000ca00:	07070707 	streq	r0, [r7, -r7, lsl #14]
3000ca04:	07070707 	streq	r0, [r7, -r7, lsl #14]
3000ca08:	07070707 	streq	r0, [r7, -r7, lsl #14]
3000ca0c:	07070707 	streq	r0, [r7, -r7, lsl #14]
3000ca10:	07070707 	streq	r0, [r7, -r7, lsl #14]
3000ca14:	07070707 	streq	r0, [r7, -r7, lsl #14]
3000ca18:	07070707 	streq	r0, [r7, -r7, lsl #14]
3000ca1c:	08080808 	stmeqda	r8, {r3, fp}
3000ca20:	08080808 	stmeqda	r8, {r3, fp}
3000ca24:	08080808 	stmeqda	r8, {r3, fp}
3000ca28:	08080808 	stmeqda	r8, {r3, fp}
3000ca2c:	08080808 	stmeqda	r8, {r3, fp}
3000ca30:	08080808 	stmeqda	r8, {r3, fp}
3000ca34:	08080808 	stmeqda	r8, {r3, fp}
3000ca38:	08080808 	stmeqda	r8, {r3, fp}
3000ca3c:	08080808 	stmeqda	r8, {r3, fp}
3000ca40:	08080808 	stmeqda	r8, {r3, fp}
3000ca44:	08080808 	stmeqda	r8, {r3, fp}
3000ca48:	08080808 	stmeqda	r8, {r3, fp}
3000ca4c:	08080808 	stmeqda	r8, {r3, fp}
3000ca50:	08080808 	stmeqda	r8, {r3, fp}
3000ca54:	08080808 	stmeqda	r8, {r3, fp}
3000ca58:	08080808 	stmeqda	r8, {r3, fp}
3000ca5c:	08080808 	stmeqda	r8, {r3, fp}
3000ca60:	08080808 	stmeqda	r8, {r3, fp}
3000ca64:	08080808 	stmeqda	r8, {r3, fp}
3000ca68:	08080808 	stmeqda	r8, {r3, fp}
3000ca6c:	08080808 	stmeqda	r8, {r3, fp}
3000ca70:	08080808 	stmeqda	r8, {r3, fp}
3000ca74:	08080808 	stmeqda	r8, {r3, fp}
3000ca78:	08080808 	stmeqda	r8, {r3, fp}
3000ca7c:	08080808 	stmeqda	r8, {r3, fp}
3000ca80:	08080808 	stmeqda	r8, {r3, fp}
3000ca84:	08080808 	stmeqda	r8, {r3, fp}
3000ca88:	08080808 	stmeqda	r8, {r3, fp}
3000ca8c:	08080808 	stmeqda	r8, {r3, fp}
3000ca90:	08080808 	stmeqda	r8, {r3, fp}
3000ca94:	08080808 	stmeqda	r8, {r3, fp}
3000ca98:	08080808 	stmeqda	r8, {r3, fp}
Disassembly of section .data:

3000ca9c <ch2>:
3000ca9c:	00000041 	andeq	r0, r0, r1, asr #32

3000caa0 <str>:
3000caa0:	3000b1a0 	andcc	fp, r0, r0, lsr #3

3000caa4 <lcd_4_3_params>:
3000caa4:	3000b260 	andcc	fp, r0, r0, ror #4
	...
3000cab8:	00000001 	andeq	r0, r0, r1
3000cabc:	00000001 	andeq	r0, r0, r1
3000cac0:	0000000a 	andeq	r0, r0, sl
3000cac4:	00000002 	andeq	r0, r0, r2
3000cac8:	00000002 	andeq	r0, r0, r2
3000cacc:	00000029 	andeq	r0, r0, r9, lsr #32
3000cad0:	00000002 	andeq	r0, r0, r2
3000cad4:	00000002 	andeq	r0, r0, r2
3000cad8:	00000009 	andeq	r0, r0, r9
3000cadc:	000001e0 	andeq	r0, r0, r0, ror #3
3000cae0:	00000110 	andeq	r0, r0, r0, lsl r1
3000cae4:	00000020 	andeq	r0, r0, r0, lsr #32
3000cae8:	00000001 	andeq	r0, r0, r1
3000caec:	33c00000 	biccc	r0, r0, #0	; 0x0

3000caf0 <s3c2440_lcd_controller>:
3000caf0:	3000b478 	andcc	fp, r0, r8, ror r4
3000caf4:	30003888 	andcc	r3, r0, r8, lsl #17
3000caf8:	30003bdc 	ldrccd	r3, [r0], -ip
3000cafc:	30003c38 	andcc	r3, r0, r8, lsr ip
3000cb00:	30003c94 	mulcc	r0, r4, ip

3000cb04 <_ctype>:
3000cb04:	08080808 	stmeqda	r8, {r3, fp}
3000cb08:	08080808 	stmeqda	r8, {r3, fp}
3000cb0c:	28282808 	stmcsda	r8!, {r3, fp, sp}
3000cb10:	08082828 	stmeqda	r8, {r3, r5, fp, sp}
3000cb14:	08080808 	stmeqda	r8, {r3, fp}
3000cb18:	08080808 	stmeqda	r8, {r3, fp}
3000cb1c:	08080808 	stmeqda	r8, {r3, fp}
3000cb20:	08080808 	stmeqda	r8, {r3, fp}
3000cb24:	101010a0 	andnes	r1, r0, r0, lsr #1
3000cb28:	10101010 	andnes	r1, r0, r0, lsl r0
3000cb2c:	10101010 	andnes	r1, r0, r0, lsl r0
3000cb30:	10101010 	andnes	r1, r0, r0, lsl r0
3000cb34:	04040404 	streq	r0, [r4], #-1028
3000cb38:	04040404 	streq	r0, [r4], #-1028
3000cb3c:	10100404 	andnes	r0, r0, r4, lsl #8
3000cb40:	10101010 	andnes	r1, r0, r0, lsl r0
3000cb44:	41414110 	cmpmi	r1, r0, lsl r1
3000cb48:	01414141 	cmpeq	r1, r1, asr #2
3000cb4c:	01010101 	tsteq	r1, r1, lsl #2
3000cb50:	01010101 	tsteq	r1, r1, lsl #2
3000cb54:	01010101 	tsteq	r1, r1, lsl #2
3000cb58:	01010101 	tsteq	r1, r1, lsl #2
3000cb5c:	10010101 	andne	r0, r1, r1, lsl #2
3000cb60:	10101010 	andnes	r1, r0, r0, lsl r0
3000cb64:	42424210 	submi	r4, r2, #1	; 0x1
3000cb68:	02424242 	subeq	r4, r2, #536870916	; 0x20000004
3000cb6c:	02020202 	andeq	r0, r2, #536870912	; 0x20000000
3000cb70:	02020202 	andeq	r0, r2, #536870912	; 0x20000000
3000cb74:	02020202 	andeq	r0, r2, #536870912	; 0x20000000
3000cb78:	02020202 	andeq	r0, r2, #536870912	; 0x20000000
3000cb7c:	10020202 	andne	r0, r2, r2, lsl #4
3000cb80:	08101010 	ldmeqda	r0, {r4, ip}
	...
3000cba4:	101010a0 	andnes	r1, r0, r0, lsr #1
3000cba8:	10101010 	andnes	r1, r0, r0, lsl r0
3000cbac:	10101010 	andnes	r1, r0, r0, lsl r0
3000cbb0:	10101010 	andnes	r1, r0, r0, lsl r0
3000cbb4:	10101010 	andnes	r1, r0, r0, lsl r0
3000cbb8:	10101010 	andnes	r1, r0, r0, lsl r0
3000cbbc:	10101010 	andnes	r1, r0, r0, lsl r0
3000cbc0:	10101010 	andnes	r1, r0, r0, lsl r0
3000cbc4:	01010101 	tsteq	r1, r1, lsl #2
3000cbc8:	01010101 	tsteq	r1, r1, lsl #2
3000cbcc:	01010101 	tsteq	r1, r1, lsl #2
3000cbd0:	01010101 	tsteq	r1, r1, lsl #2
3000cbd4:	01010101 	tsteq	r1, r1, lsl #2
3000cbd8:	10010101 	andne	r0, r1, r1, lsl #2
3000cbdc:	01010101 	tsteq	r1, r1, lsl #2
3000cbe0:	02010101 	andeq	r0, r1, #1073741824	; 0x40000000
3000cbe4:	02020202 	andeq	r0, r2, #536870912	; 0x20000000
3000cbe8:	02020202 	andeq	r0, r2, #536870912	; 0x20000000
3000cbec:	02020202 	andeq	r0, r2, #536870912	; 0x20000000
3000cbf0:	02020202 	andeq	r0, r2, #536870912	; 0x20000000
3000cbf4:	02020202 	andeq	r0, r2, #536870912	; 0x20000000
3000cbf8:	10020202 	andne	r0, r2, r2, lsl #4
3000cbfc:	02020202 	andeq	r0, r2, #536870912	; 0x20000000
3000cc00:	02020202 	andeq	r0, r2, #536870912	; 0x20000000
Disassembly of section .got:

3000cc04 <.got>:
3000cc04:	3000c99c 	mulcc	r0, ip, r9
Disassembly of section .got.plt:

3000cc08 <_GLOBAL_OFFSET_TABLE_>:
	...
Disassembly of section .bss:

3000cc14 <ch3>:
	...

3000cc15 <chscanf>:
3000cc15:	00000000 	andeq	r0, r0, r0

3000cc18 <it4>:
3000cc18:	00000000 	andeq	r0, r0, r0

3000cc1c <nCount0.0>:
	...

3000cc1d <tTimer0.1>:
	...

3000cc1e <nCount1.2>:
	...

3000cc1f <tTimer1.3>:
	...

3000cc20 <p_lcd_controller_array>:
	...

3000cc48 <p_lcd_controller_selected>:
3000cc48:	00000000 	andeq	r0, r0, r0

3000cc4c <p_lcd_params_array>:
	...

3000cc74 <p_lcd_params_selected>:
3000cc74:	00000000 	andeq	r0, r0, r0

3000cc78 <TouchScreenTimerState>:
3000cc78:	00000000 	andeq	r0, r0, r0

3000cc7c <_putchar>:
3000cc7c:	00000000 	andeq	r0, r0, r0

3000cc80 <_string_putchar>:
3000cc80:	00000000 	andeq	r0, r0, r0

3000cc84 <_string_getchar>:
3000cc84:	00000000 	andeq	r0, r0, r0

3000cc88 <S3C2440_IRQ_Func_Array>:
	...

3000cd08 <ch1>:
3000cd08:	00000000 	andeq	r0, r0, r0

3000cd0c <S3C2440_EXTI_IRQ_Func_Array>:
	...

3000ce8c <S3C2440_Timer_IRQ_Func_Array>:
	...

3000d00c <lcd_user_selected>:
	...
Disassembly of section .comment:

3000d01c <.comment>:
3000d01c:	43434700 	cmpmi	r3, #0	; 0x0
3000d020:	4728203a 	undefined
3000d024:	2029554e 	eorcs	r5, r9, lr, asr #10
3000d028:	2e342e33 	mrccs	14, 1, r2, cr4, cr3, {1}
3000d02c:	47000035 	smladxmi	r0, r5, r0, r0
3000d030:	203a4343 	eorcss	r4, sl, r3, asr #6
3000d034:	554e4728 	strplb	r4, [lr, #-1832]
3000d038:	2e332029 	cdpcs	0, 3, cr2, cr3, cr9, {1}
3000d03c:	00352e34 	eoreqs	r2, r5, r4, lsr lr
3000d040:	43434700 	cmpmi	r3, #0	; 0x0
3000d044:	4728203a 	undefined
3000d048:	2029554e 	eorcs	r5, r9, lr, asr #10
3000d04c:	2e342e33 	mrccs	14, 1, r2, cr4, cr3, {1}
3000d050:	47000035 	smladxmi	r0, r5, r0, r0
3000d054:	203a4343 	eorcss	r4, sl, r3, asr #6
3000d058:	554e4728 	strplb	r4, [lr, #-1832]
3000d05c:	2e332029 	cdpcs	0, 3, cr2, cr3, cr9, {1}
3000d060:	00352e34 	eoreqs	r2, r5, r4, lsr lr
3000d064:	43434700 	cmpmi	r3, #0	; 0x0
3000d068:	4728203a 	undefined
3000d06c:	2029554e 	eorcs	r5, r9, lr, asr #10
3000d070:	2e342e33 	mrccs	14, 1, r2, cr4, cr3, {1}
3000d074:	47000035 	smladxmi	r0, r5, r0, r0
3000d078:	203a4343 	eorcss	r4, sl, r3, asr #6
3000d07c:	554e4728 	strplb	r4, [lr, #-1832]
3000d080:	2e332029 	cdpcs	0, 3, cr2, cr3, cr9, {1}
3000d084:	00352e34 	eoreqs	r2, r5, r4, lsr lr
3000d088:	43434700 	cmpmi	r3, #0	; 0x0
3000d08c:	4728203a 	undefined
3000d090:	2029554e 	eorcs	r5, r9, lr, asr #10
3000d094:	2e342e33 	mrccs	14, 1, r2, cr4, cr3, {1}
3000d098:	47000035 	smladxmi	r0, r5, r0, r0
3000d09c:	203a4343 	eorcss	r4, sl, r3, asr #6
3000d0a0:	554e4728 	strplb	r4, [lr, #-1832]
3000d0a4:	2e332029 	cdpcs	0, 3, cr2, cr3, cr9, {1}
3000d0a8:	00352e34 	eoreqs	r2, r5, r4, lsr lr
3000d0ac:	43434700 	cmpmi	r3, #0	; 0x0
3000d0b0:	4728203a 	undefined
3000d0b4:	2029554e 	eorcs	r5, r9, lr, asr #10
3000d0b8:	2e342e33 	mrccs	14, 1, r2, cr4, cr3, {1}
3000d0bc:	47000035 	smladxmi	r0, r5, r0, r0
3000d0c0:	203a4343 	eorcss	r4, sl, r3, asr #6
3000d0c4:	554e4728 	strplb	r4, [lr, #-1832]
3000d0c8:	2e332029 	cdpcs	0, 3, cr2, cr3, cr9, {1}
3000d0cc:	00352e34 	eoreqs	r2, r5, r4, lsr lr
3000d0d0:	43434700 	cmpmi	r3, #0	; 0x0
3000d0d4:	4728203a 	undefined
3000d0d8:	2029554e 	eorcs	r5, r9, lr, asr #10
3000d0dc:	2e342e33 	mrccs	14, 1, r2, cr4, cr3, {1}
3000d0e0:	47000035 	smladxmi	r0, r5, r0, r0
3000d0e4:	203a4343 	eorcss	r4, sl, r3, asr #6
3000d0e8:	554e4728 	strplb	r4, [lr, #-1832]
3000d0ec:	2e332029 	cdpcs	0, 3, cr2, cr3, cr9, {1}
3000d0f0:	00352e34 	eoreqs	r2, r5, r4, lsr lr
3000d0f4:	43434700 	cmpmi	r3, #0	; 0x0
3000d0f8:	4728203a 	undefined
3000d0fc:	2029554e 	eorcs	r5, r9, lr, asr #10
3000d100:	2e342e33 	mrccs	14, 1, r2, cr4, cr3, {1}
3000d104:	47000035 	smladxmi	r0, r5, r0, r0
3000d108:	203a4343 	eorcss	r4, sl, r3, asr #6
3000d10c:	554e4728 	strplb	r4, [lr, #-1832]
3000d110:	2e332029 	cdpcs	0, 3, cr2, cr3, cr9, {1}
3000d114:	00352e34 	eoreqs	r2, r5, r4, lsr lr
3000d118:	43434700 	cmpmi	r3, #0	; 0x0
3000d11c:	4728203a 	undefined
3000d120:	2029554e 	eorcs	r5, r9, lr, asr #10
3000d124:	2e342e33 	mrccs	14, 1, r2, cr4, cr3, {1}
3000d128:	47000035 	smladxmi	r0, r5, r0, r0
3000d12c:	203a4343 	eorcss	r4, sl, r3, asr #6
3000d130:	554e4728 	strplb	r4, [lr, #-1832]
3000d134:	2e332029 	cdpcs	0, 3, cr2, cr3, cr9, {1}
3000d138:	00352e34 	eoreqs	r2, r5, r4, lsr lr
3000d13c:	43434700 	cmpmi	r3, #0	; 0x0
3000d140:	4728203a 	undefined
3000d144:	2029554e 	eorcs	r5, r9, lr, asr #10
3000d148:	2e342e33 	mrccs	14, 1, r2, cr4, cr3, {1}
3000d14c:	47000035 	smladxmi	r0, r5, r0, r0
3000d150:	203a4343 	eorcss	r4, sl, r3, asr #6
3000d154:	554e4728 	strplb	r4, [lr, #-1832]
3000d158:	2e332029 	cdpcs	0, 3, cr2, cr3, cr9, {1}
3000d15c:	00352e34 	eoreqs	r2, r5, r4, lsr lr
3000d160:	43434700 	cmpmi	r3, #0	; 0x0
3000d164:	4728203a 	undefined
3000d168:	2029554e 	eorcs	r5, r9, lr, asr #10
3000d16c:	2e342e33 	mrccs	14, 1, r2, cr4, cr3, {1}
3000d170:	47000035 	smladxmi	r0, r5, r0, r0
3000d174:	203a4343 	eorcss	r4, sl, r3, asr #6
3000d178:	554e4728 	strplb	r4, [lr, #-1832]
3000d17c:	2e332029 	cdpcs	0, 3, cr2, cr3, cr9, {1}
3000d180:	00352e34 	eoreqs	r2, r5, r4, lsr lr
3000d184:	43434700 	cmpmi	r3, #0	; 0x0
3000d188:	4728203a 	undefined
3000d18c:	2029554e 	eorcs	r5, r9, lr, asr #10
3000d190:	2e342e33 	mrccs	14, 1, r2, cr4, cr3, {1}
3000d194:	47000035 	smladxmi	r0, r5, r0, r0
3000d198:	203a4343 	eorcss	r4, sl, r3, asr #6
3000d19c:	554e4728 	strplb	r4, [lr, #-1832]
3000d1a0:	2e332029 	cdpcs	0, 3, cr2, cr3, cr9, {1}
3000d1a4:	00352e34 	eoreqs	r2, r5, r4, lsr lr
3000d1a8:	43434700 	cmpmi	r3, #0	; 0x0
3000d1ac:	4728203a 	undefined
3000d1b0:	2029554e 	eorcs	r5, r9, lr, asr #10
3000d1b4:	2e342e33 	mrccs	14, 1, r2, cr4, cr3, {1}
3000d1b8:	47000035 	smladxmi	r0, r5, r0, r0
3000d1bc:	203a4343 	eorcss	r4, sl, r3, asr #6
3000d1c0:	554e4728 	strplb	r4, [lr, #-1832]
3000d1c4:	2e332029 	cdpcs	0, 3, cr2, cr3, cr9, {1}
3000d1c8:	00352e34 	eoreqs	r2, r5, r4, lsr lr
3000d1cc:	43434700 	cmpmi	r3, #0	; 0x0
3000d1d0:	4728203a 	undefined
3000d1d4:	2029554e 	eorcs	r5, r9, lr, asr #10
3000d1d8:	2e342e33 	mrccs	14, 1, r2, cr4, cr3, {1}
3000d1dc:	47000035 	smladxmi	r0, r5, r0, r0
3000d1e0:	203a4343 	eorcss	r4, sl, r3, asr #6
3000d1e4:	554e4728 	strplb	r4, [lr, #-1832]
3000d1e8:	2e332029 	cdpcs	0, 3, cr2, cr3, cr9, {1}
3000d1ec:	00352e34 	eoreqs	r2, r5, r4, lsr lr
3000d1f0:	43434700 	cmpmi	r3, #0	; 0x0
3000d1f4:	4728203a 	undefined
3000d1f8:	2029554e 	eorcs	r5, r9, lr, asr #10
3000d1fc:	2e342e33 	mrccs	14, 1, r2, cr4, cr3, {1}
3000d200:	47000035 	smladxmi	r0, r5, r0, r0
3000d204:	203a4343 	eorcss	r4, sl, r3, asr #6
3000d208:	554e4728 	strplb	r4, [lr, #-1832]
3000d20c:	2e332029 	cdpcs	0, 3, cr2, cr3, cr9, {1}
3000d210:	00352e34 	eoreqs	r2, r5, r4, lsr lr
3000d214:	43434700 	cmpmi	r3, #0	; 0x0
3000d218:	4728203a 	undefined
3000d21c:	2029554e 	eorcs	r5, r9, lr, asr #10
3000d220:	2e342e33 	mrccs	14, 1, r2, cr4, cr3, {1}
3000d224:	47000035 	smladxmi	r0, r5, r0, r0
3000d228:	203a4343 	eorcss	r4, sl, r3, asr #6
3000d22c:	554e4728 	strplb	r4, [lr, #-1832]
3000d230:	2e332029 	cdpcs	0, 3, cr2, cr3, cr9, {1}
3000d234:	00352e34 	eoreqs	r2, r5, r4, lsr lr
Disassembly of section .debug_aranges:

00000000 <.debug_aranges>:
   0:	0000001c 	andeq	r0, r0, ip, lsl r0
   4:	00000002 	andeq	r0, r0, r2
   8:	00040000 	andeq	r0, r4, r0
   c:	00000000 	andeq	r0, r0, r0
  10:	3000963c 	andcc	r9, r0, ip, lsr r6
  14:	00000388 	andeq	r0, r0, r8, lsl #7
	...
  20:	0000001c 	andeq	r0, r0, ip, lsl r0
  24:	01000002 	tsteq	r0, r2
  28:	00040000 	andeq	r0, r4, r0
  2c:	00000000 	andeq	r0, r0, r0
  30:	300099c4 	andcc	r9, r0, r4, asr #19
  34:	00000580 	andeq	r0, r0, r0, lsl #11
	...
  40:	0000001c 	andeq	r0, r0, ip, lsl r0
  44:	02000002 	andeq	r0, r0, #2	; 0x2
  48:	00040000 	andeq	r0, r4, r0
  4c:	00000000 	andeq	r0, r0, r0
  50:	30009f44 	andcc	r9, r0, r4, asr #30
  54:	000000a4 	andeq	r0, r0, r4, lsr #1
	...
  60:	0000001c 	andeq	r0, r0, ip, lsl r0
  64:	03000002 	tsteq	r0, #2	; 0x2
  68:	00040000 	andeq	r0, r4, r0
  6c:	00000000 	andeq	r0, r0, r0
  70:	30009fe8 	andcc	r9, r0, r8, ror #31
  74:	00000080 	andeq	r0, r0, r0, lsl #1
	...
  80:	0000001c 	andeq	r0, r0, ip, lsl r0
  84:	04000002 	streq	r0, [r0], #-2
  88:	00040000 	andeq	r0, r4, r0
  8c:	00000000 	andeq	r0, r0, r0
  90:	3000a068 	andcc	sl, r0, r8, rrx
  94:	00000074 	andeq	r0, r0, r4, ror r0
	...
  a0:	0000001c 	andeq	r0, r0, ip, lsl r0
  a4:	05000002 	streq	r0, [r0, #-2]
  a8:	00040000 	andeq	r0, r4, r0
  ac:	00000000 	andeq	r0, r0, r0
  b0:	3000a0dc 	ldrccd	sl, [r0], -ip
  b4:	00000218 	andeq	r0, r0, r8, lsl r2
	...
  c0:	0000001c 	andeq	r0, r0, ip, lsl r0
  c4:	06000002 	streq	r0, [r0], -r2
  c8:	00040000 	andeq	r0, r4, r0
  cc:	00000000 	andeq	r0, r0, r0
  d0:	3000a2f4 	strccd	sl, [r0], -r4
  d4:	0000035c 	andeq	r0, r0, ip, asr r3
	...
Disassembly of section .debug_info:

00000000 <.debug_info>:
   0:	000000fc 	streqd	r0, [r0], -ip
   4:	00000002 	andeq	r0, r0, r2
   8:	01040000 	tsteq	r4, r0
   c:	00000000 	andeq	r0, r0, r0
  10:	3000963c 	andcc	r9, r0, ip, lsr r6
  14:	300099c4 	andcc	r9, r0, r4, asr #19
  18:	726f772f 	rsbvc	r7, pc, #12320768	; 0xbc0000
  1c:	6f742f6b 	swivs	0x00742f6b
  20:	2f736c6f 	swics	0x00736c6f
  24:	61657263 	cmnvs	r5, r3, ror #4
  28:	635f6574 	cmpvs	pc, #486539264	; 0x1d000000
  2c:	73736f72 	cmnvc	r3, #456	; 0x1c8
  30:	6c6f6f74 	stcvsl	15, cr6, [pc], #-464
  34:	72632f73 	rsbvc	r2, r3, #460	; 0x1cc
  38:	7473736f 	ldrvcbt	r7, [r3], #-879
  3c:	2d6c6f6f 	stccsl	15, cr6, [ip, #-444]!
  40:	33342e30 	teqcc	r4, #768	; 0x300
  44:	6975622f 	ldmvsdb	r5!, {r0, r1, r2, r3, r5, r9, sp, lr}^
  48:	612f646c 	teqvs	pc, ip, ror #8
  4c:	6c2d6d72 	stcvs	13, cr6, [sp], #-456
  50:	78756e69 	ldmvcda	r5!, {r0, r3, r5, r6, r9, sl, fp, sp, lr}^
  54:	6363672f 	cmnvs	r3, #12320768	; 0xbc0000
  58:	342e332d 	strcct	r3, [lr], #-813
  5c:	672d352e 	strvs	r3, [sp, -lr, lsr #10]!
  60:	6362696c 	cmnvs	r2, #1769472	; 0x1b0000
  64:	332e322d 	teqcc	lr, #-805306366	; 0xd0000002
  68:	672f362e 	strvs	r3, [pc, -lr, lsr #12]!
  6c:	332d6363 	teqcc	sp, #-1946157055	; 0x8c000001
  70:	352e342e 	strcc	r3, [lr, #-1070]!
  74:	6363672f 	cmnvs	r3, #12320768	; 0xbc0000
  78:	6e6f632f 	cdpvs	3, 6, cr6, cr15, cr15, {1}
  7c:	2f676966 	swics	0x00676966
  80:	2f6d7261 	swics	0x006d7261
  84:	65656569 	strvsb	r6, [r5, #-1385]!
  88:	2d343537 	cfldr32cs	mvfx3, [r4, #-220]!
  8c:	532e6664 	teqpl	lr, #104857600	; 0x6400000
  90:	6f772f00 	swivs	0x00772f00
  94:	742f6b72 	strvct	r6, [pc], #2930	; 9c <__code_start-0x2fffff64>
  98:	736c6f6f 	cmnvc	ip, #444	; 0x1bc
  9c:	6572632f 	ldrvsb	r6, [r2, #-815]!
  a0:	5f657461 	swipl	0x00657461
  a4:	736f7263 	cmnvc	pc, #805306374	; 0x30000006
  a8:	6f6f7473 	swivs	0x006f7473
  ac:	632f736c 	teqvs	pc, #-1342177279	; 0xb0000001
  b0:	73736f72 	cmnvc	r3, #456	; 0x1c8
  b4:	6c6f6f74 	stcvsl	15, cr6, [pc], #-464
  b8:	342e302d 	strcct	r3, [lr], #-45
  bc:	75622f33 	strvcb	r2, [r2, #-3891]!
  c0:	2f646c69 	swics	0x00646c69
  c4:	2d6d7261 	sfmcs	f7, 2, [sp, #-388]!
  c8:	756e696c 	strvcb	r6, [lr, #-2412]!
  cc:	63672f78 	cmnvs	r7, #480	; 0x1e0
  d0:	2e332d63 	cdpcs	13, 3, cr2, cr3, cr3, {3}
  d4:	2d352e34 	ldccs	14, cr2, [r5, #-208]!
  d8:	62696c67 	rsbvs	r6, r9, #26368	; 0x6700
  dc:	2e322d63 	cdpcs	13, 3, cr2, cr2, cr3, {3}
  e0:	2f362e33 	swics	0x00362e33
  e4:	6c697562 	cfstr64vs	mvdx7, [r9], #-392
  e8:	63672d64 	cmnvs	r7, #6400	; 0x1900
  ec:	63672f63 	cmnvs	r7, #396	; 0x18c
  f0:	4e470063 	cdpmi	0, 4, cr0, cr7, cr3, {3}
  f4:	53412055 	cmppl	r1, #85	; 0x55
  f8:	312e3220 	teqcc	lr, r0, lsr #4
  fc:	80010035 	andhi	r0, r1, r5, lsr r0
 100:	000000fc 	streqd	r0, [r0], -ip
 104:	00140002 	andeqs	r0, r4, r2
 108:	01040000 	tsteq	r4, r0
 10c:	000001fe 	streqd	r0, [r0], -lr
 110:	300099c4 	andcc	r9, r0, r4, asr #19
 114:	30009f44 	andcc	r9, r0, r4, asr #30
 118:	726f772f 	rsbvc	r7, pc, #12320768	; 0xbc0000
 11c:	6f742f6b 	swivs	0x00742f6b
 120:	2f736c6f 	swics	0x00736c6f
 124:	61657263 	cmnvs	r5, r3, ror #4
 128:	635f6574 	cmpvs	pc, #486539264	; 0x1d000000
 12c:	73736f72 	cmnvc	r3, #456	; 0x1c8
 130:	6c6f6f74 	stcvsl	15, cr6, [pc], #-464
 134:	72632f73 	rsbvc	r2, r3, #460	; 0x1cc
 138:	7473736f 	ldrvcbt	r7, [r3], #-879
 13c:	2d6c6f6f 	stccsl	15, cr6, [ip, #-444]!
 140:	33342e30 	teqcc	r4, #768	; 0x300
 144:	6975622f 	ldmvsdb	r5!, {r0, r1, r2, r3, r5, r9, sp, lr}^
 148:	612f646c 	teqvs	pc, ip, ror #8
 14c:	6c2d6d72 	stcvs	13, cr6, [sp], #-456
 150:	78756e69 	ldmvcda	r5!, {r0, r3, r5, r6, r9, sl, fp, sp, lr}^
 154:	6363672f 	cmnvs	r3, #12320768	; 0xbc0000
 158:	342e332d 	strcct	r3, [lr], #-813
 15c:	672d352e 	strvs	r3, [sp, -lr, lsr #10]!
 160:	6362696c 	cmnvs	r2, #1769472	; 0x1b0000
 164:	332e322d 	teqcc	lr, #-805306366	; 0xd0000002
 168:	672f362e 	strvs	r3, [pc, -lr, lsr #12]!
 16c:	332d6363 	teqcc	sp, #-1946157055	; 0x8c000001
 170:	352e342e 	strcc	r3, [lr, #-1070]!
 174:	6363672f 	cmnvs	r3, #12320768	; 0xbc0000
 178:	6e6f632f 	cdpvs	3, 6, cr6, cr15, cr15, {1}
 17c:	2f676966 	swics	0x00676966
 180:	2f6d7261 	swics	0x006d7261
 184:	65656569 	strvsb	r6, [r5, #-1385]!
 188:	2d343537 	cfldr32cs	mvfx3, [r4, #-220]!
 18c:	532e6664 	teqpl	lr, #104857600	; 0x6400000
 190:	6f772f00 	swivs	0x00772f00
 194:	742f6b72 	strvct	r6, [pc], #2930	; 19c <__code_start-0x2ffffe64>
 198:	736c6f6f 	cmnvc	ip, #444	; 0x1bc
 19c:	6572632f 	ldrvsb	r6, [r2, #-815]!
 1a0:	5f657461 	swipl	0x00657461
 1a4:	736f7263 	cmnvc	pc, #805306374	; 0x30000006
 1a8:	6f6f7473 	swivs	0x006f7473
 1ac:	632f736c 	teqvs	pc, #-1342177279	; 0xb0000001
 1b0:	73736f72 	cmnvc	r3, #456	; 0x1c8
 1b4:	6c6f6f74 	stcvsl	15, cr6, [pc], #-464
 1b8:	342e302d 	strcct	r3, [lr], #-45
 1bc:	75622f33 	strvcb	r2, [r2, #-3891]!
 1c0:	2f646c69 	swics	0x00646c69
 1c4:	2d6d7261 	sfmcs	f7, 2, [sp, #-388]!
 1c8:	756e696c 	strvcb	r6, [lr, #-2412]!
 1cc:	63672f78 	cmnvs	r7, #480	; 0x1e0
 1d0:	2e332d63 	cdpcs	13, 3, cr2, cr3, cr3, {3}
 1d4:	2d352e34 	ldccs	14, cr2, [r5, #-208]!
 1d8:	62696c67 	rsbvs	r6, r9, #26368	; 0x6700
 1dc:	2e322d63 	cdpcs	13, 3, cr2, cr2, cr3, {3}
 1e0:	2f362e33 	swics	0x00362e33
 1e4:	6c697562 	cfstr64vs	mvdx7, [r9], #-392
 1e8:	63672d64 	cmnvs	r7, #6400	; 0x1900
 1ec:	63672f63 	cmnvs	r7, #396	; 0x18c
 1f0:	4e470063 	cdpmi	0, 4, cr0, cr7, cr3, {3}
 1f4:	53412055 	cmppl	r1, #85	; 0x55
 1f8:	312e3220 	teqcc	lr, r0, lsr #4
 1fc:	80010035 	andhi	r0, r1, r5, lsr r0
 200:	000000fc 	streqd	r0, [r0], -ip
 204:	00280002 	eoreq	r0, r8, r2
 208:	01040000 	tsteq	r4, r0
 20c:	00000494 	muleq	r0, r4, r4
 210:	30009f44 	andcc	r9, r0, r4, asr #30
 214:	30009fe8 	andcc	r9, r0, r8, ror #31
 218:	726f772f 	rsbvc	r7, pc, #12320768	; 0xbc0000
 21c:	6f742f6b 	swivs	0x00742f6b
 220:	2f736c6f 	swics	0x00736c6f
 224:	61657263 	cmnvs	r5, r3, ror #4
 228:	635f6574 	cmpvs	pc, #486539264	; 0x1d000000
 22c:	73736f72 	cmnvc	r3, #456	; 0x1c8
 230:	6c6f6f74 	stcvsl	15, cr6, [pc], #-464
 234:	72632f73 	rsbvc	r2, r3, #460	; 0x1cc
 238:	7473736f 	ldrvcbt	r7, [r3], #-879
 23c:	2d6c6f6f 	stccsl	15, cr6, [ip, #-444]!
 240:	33342e30 	teqcc	r4, #768	; 0x300
 244:	6975622f 	ldmvsdb	r5!, {r0, r1, r2, r3, r5, r9, sp, lr}^
 248:	612f646c 	teqvs	pc, ip, ror #8
 24c:	6c2d6d72 	stcvs	13, cr6, [sp], #-456
 250:	78756e69 	ldmvcda	r5!, {r0, r3, r5, r6, r9, sl, fp, sp, lr}^
 254:	6363672f 	cmnvs	r3, #12320768	; 0xbc0000
 258:	342e332d 	strcct	r3, [lr], #-813
 25c:	672d352e 	strvs	r3, [sp, -lr, lsr #10]!
 260:	6362696c 	cmnvs	r2, #1769472	; 0x1b0000
 264:	332e322d 	teqcc	lr, #-805306366	; 0xd0000002
 268:	672f362e 	strvs	r3, [pc, -lr, lsr #12]!
 26c:	332d6363 	teqcc	sp, #-1946157055	; 0x8c000001
 270:	352e342e 	strcc	r3, [lr, #-1070]!
 274:	6363672f 	cmnvs	r3, #12320768	; 0xbc0000
 278:	6e6f632f 	cdpvs	3, 6, cr6, cr15, cr15, {1}
 27c:	2f676966 	swics	0x00676966
 280:	2f6d7261 	swics	0x006d7261
 284:	65656569 	strvsb	r6, [r5, #-1385]!
 288:	2d343537 	cfldr32cs	mvfx3, [r4, #-220]!
 28c:	532e6664 	teqpl	lr, #104857600	; 0x6400000
 290:	6f772f00 	swivs	0x00772f00
 294:	742f6b72 	strvct	r6, [pc], #2930	; 29c <__code_start-0x2ffffd64>
 298:	736c6f6f 	cmnvc	ip, #444	; 0x1bc
 29c:	6572632f 	ldrvsb	r6, [r2, #-815]!
 2a0:	5f657461 	swipl	0x00657461
 2a4:	736f7263 	cmnvc	pc, #805306374	; 0x30000006
 2a8:	6f6f7473 	swivs	0x006f7473
 2ac:	632f736c 	teqvs	pc, #-1342177279	; 0xb0000001
 2b0:	73736f72 	cmnvc	r3, #456	; 0x1c8
 2b4:	6c6f6f74 	stcvsl	15, cr6, [pc], #-464
 2b8:	342e302d 	strcct	r3, [lr], #-45
 2bc:	75622f33 	strvcb	r2, [r2, #-3891]!
 2c0:	2f646c69 	swics	0x00646c69
 2c4:	2d6d7261 	sfmcs	f7, 2, [sp, #-388]!
 2c8:	756e696c 	strvcb	r6, [lr, #-2412]!
 2cc:	63672f78 	cmnvs	r7, #480	; 0x1e0
 2d0:	2e332d63 	cdpcs	13, 3, cr2, cr3, cr3, {3}
 2d4:	2d352e34 	ldccs	14, cr2, [r5, #-208]!
 2d8:	62696c67 	rsbvs	r6, r9, #26368	; 0x6700
 2dc:	2e322d63 	cdpcs	13, 3, cr2, cr2, cr3, {3}
 2e0:	2f362e33 	swics	0x00362e33
 2e4:	6c697562 	cfstr64vs	mvdx7, [r9], #-392
 2e8:	63672d64 	cmnvs	r7, #6400	; 0x1900
 2ec:	63672f63 	cmnvs	r7, #396	; 0x18c
 2f0:	4e470063 	cdpmi	0, 4, cr0, cr7, cr3, {3}
 2f4:	53412055 	cmppl	r1, #85	; 0x55
 2f8:	312e3220 	teqcc	lr, r0, lsr #4
 2fc:	80010035 	andhi	r0, r1, r5, lsr r0
 300:	000000fc 	streqd	r0, [r0], -ip
 304:	003c0002 	eoreqs	r0, ip, r2
 308:	01040000 	tsteq	r4, r0
 30c:	000005b0 	streqh	r0, [r0], -r0
 310:	30009fe8 	andcc	r9, r0, r8, ror #31
 314:	3000a068 	andcc	sl, r0, r8, rrx
 318:	726f772f 	rsbvc	r7, pc, #12320768	; 0xbc0000
 31c:	6f742f6b 	swivs	0x00742f6b
 320:	2f736c6f 	swics	0x00736c6f
 324:	61657263 	cmnvs	r5, r3, ror #4
 328:	635f6574 	cmpvs	pc, #486539264	; 0x1d000000
 32c:	73736f72 	cmnvc	r3, #456	; 0x1c8
 330:	6c6f6f74 	stcvsl	15, cr6, [pc], #-464
 334:	72632f73 	rsbvc	r2, r3, #460	; 0x1cc
 338:	7473736f 	ldrvcbt	r7, [r3], #-879
 33c:	2d6c6f6f 	stccsl	15, cr6, [ip, #-444]!
 340:	33342e30 	teqcc	r4, #768	; 0x300
 344:	6975622f 	ldmvsdb	r5!, {r0, r1, r2, r3, r5, r9, sp, lr}^
 348:	612f646c 	teqvs	pc, ip, ror #8
 34c:	6c2d6d72 	stcvs	13, cr6, [sp], #-456
 350:	78756e69 	ldmvcda	r5!, {r0, r3, r5, r6, r9, sl, fp, sp, lr}^
 354:	6363672f 	cmnvs	r3, #12320768	; 0xbc0000
 358:	342e332d 	strcct	r3, [lr], #-813
 35c:	672d352e 	strvs	r3, [sp, -lr, lsr #10]!
 360:	6362696c 	cmnvs	r2, #1769472	; 0x1b0000
 364:	332e322d 	teqcc	lr, #-805306366	; 0xd0000002
 368:	672f362e 	strvs	r3, [pc, -lr, lsr #12]!
 36c:	332d6363 	teqcc	sp, #-1946157055	; 0x8c000001
 370:	352e342e 	strcc	r3, [lr, #-1070]!
 374:	6363672f 	cmnvs	r3, #12320768	; 0xbc0000
 378:	6e6f632f 	cdpvs	3, 6, cr6, cr15, cr15, {1}
 37c:	2f676966 	swics	0x00676966
 380:	2f6d7261 	swics	0x006d7261
 384:	65656569 	strvsb	r6, [r5, #-1385]!
 388:	2d343537 	cfldr32cs	mvfx3, [r4, #-220]!
 38c:	532e6664 	teqpl	lr, #104857600	; 0x6400000
 390:	6f772f00 	swivs	0x00772f00
 394:	742f6b72 	strvct	r6, [pc], #2930	; 39c <__code_start-0x2ffffc64>
 398:	736c6f6f 	cmnvc	ip, #444	; 0x1bc
 39c:	6572632f 	ldrvsb	r6, [r2, #-815]!
 3a0:	5f657461 	swipl	0x00657461
 3a4:	736f7263 	cmnvc	pc, #805306374	; 0x30000006
 3a8:	6f6f7473 	swivs	0x006f7473
 3ac:	632f736c 	teqvs	pc, #-1342177279	; 0xb0000001
 3b0:	73736f72 	cmnvc	r3, #456	; 0x1c8
 3b4:	6c6f6f74 	stcvsl	15, cr6, [pc], #-464
 3b8:	342e302d 	strcct	r3, [lr], #-45
 3bc:	75622f33 	strvcb	r2, [r2, #-3891]!
 3c0:	2f646c69 	swics	0x00646c69
 3c4:	2d6d7261 	sfmcs	f7, 2, [sp, #-388]!
 3c8:	756e696c 	strvcb	r6, [lr, #-2412]!
 3cc:	63672f78 	cmnvs	r7, #480	; 0x1e0
 3d0:	2e332d63 	cdpcs	13, 3, cr2, cr3, cr3, {3}
 3d4:	2d352e34 	ldccs	14, cr2, [r5, #-208]!
 3d8:	62696c67 	rsbvs	r6, r9, #26368	; 0x6700
 3dc:	2e322d63 	cdpcs	13, 3, cr2, cr2, cr3, {3}
 3e0:	2f362e33 	swics	0x00362e33
 3e4:	6c697562 	cfstr64vs	mvdx7, [r9], #-392
 3e8:	63672d64 	cmnvs	r7, #6400	; 0x1900
 3ec:	63672f63 	cmnvs	r7, #396	; 0x18c
 3f0:	4e470063 	cdpmi	0, 4, cr0, cr7, cr3, {3}
 3f4:	53412055 	cmppl	r1, #85	; 0x55
 3f8:	312e3220 	teqcc	lr, r0, lsr #4
 3fc:	80010035 	andhi	r0, r1, r5, lsr r0
 400:	000000fc 	streqd	r0, [r0], -ip
 404:	00500002 	subeqs	r0, r0, r2
 408:	01040000 	tsteq	r4, r0
 40c:	0000068f 	andeq	r0, r0, pc, lsl #13
 410:	3000a068 	andcc	sl, r0, r8, rrx
 414:	3000a0dc 	ldrccd	sl, [r0], -ip
 418:	726f772f 	rsbvc	r7, pc, #12320768	; 0xbc0000
 41c:	6f742f6b 	swivs	0x00742f6b
 420:	2f736c6f 	swics	0x00736c6f
 424:	61657263 	cmnvs	r5, r3, ror #4
 428:	635f6574 	cmpvs	pc, #486539264	; 0x1d000000
 42c:	73736f72 	cmnvc	r3, #456	; 0x1c8
 430:	6c6f6f74 	stcvsl	15, cr6, [pc], #-464
 434:	72632f73 	rsbvc	r2, r3, #460	; 0x1cc
 438:	7473736f 	ldrvcbt	r7, [r3], #-879
 43c:	2d6c6f6f 	stccsl	15, cr6, [ip, #-444]!
 440:	33342e30 	teqcc	r4, #768	; 0x300
 444:	6975622f 	ldmvsdb	r5!, {r0, r1, r2, r3, r5, r9, sp, lr}^
 448:	612f646c 	teqvs	pc, ip, ror #8
 44c:	6c2d6d72 	stcvs	13, cr6, [sp], #-456
 450:	78756e69 	ldmvcda	r5!, {r0, r3, r5, r6, r9, sl, fp, sp, lr}^
 454:	6363672f 	cmnvs	r3, #12320768	; 0xbc0000
 458:	342e332d 	strcct	r3, [lr], #-813
 45c:	672d352e 	strvs	r3, [sp, -lr, lsr #10]!
 460:	6362696c 	cmnvs	r2, #1769472	; 0x1b0000
 464:	332e322d 	teqcc	lr, #-805306366	; 0xd0000002
 468:	672f362e 	strvs	r3, [pc, -lr, lsr #12]!
 46c:	332d6363 	teqcc	sp, #-1946157055	; 0x8c000001
 470:	352e342e 	strcc	r3, [lr, #-1070]!
 474:	6363672f 	cmnvs	r3, #12320768	; 0xbc0000
 478:	6e6f632f 	cdpvs	3, 6, cr6, cr15, cr15, {1}
 47c:	2f676966 	swics	0x00676966
 480:	2f6d7261 	swics	0x006d7261
 484:	65656569 	strvsb	r6, [r5, #-1385]!
 488:	2d343537 	cfldr32cs	mvfx3, [r4, #-220]!
 48c:	532e6664 	teqpl	lr, #104857600	; 0x6400000
 490:	6f772f00 	swivs	0x00772f00
 494:	742f6b72 	strvct	r6, [pc], #2930	; 49c <__code_start-0x2ffffb64>
 498:	736c6f6f 	cmnvc	ip, #444	; 0x1bc
 49c:	6572632f 	ldrvsb	r6, [r2, #-815]!
 4a0:	5f657461 	swipl	0x00657461
 4a4:	736f7263 	cmnvc	pc, #805306374	; 0x30000006
 4a8:	6f6f7473 	swivs	0x006f7473
 4ac:	632f736c 	teqvs	pc, #-1342177279	; 0xb0000001
 4b0:	73736f72 	cmnvc	r3, #456	; 0x1c8
 4b4:	6c6f6f74 	stcvsl	15, cr6, [pc], #-464
 4b8:	342e302d 	strcct	r3, [lr], #-45
 4bc:	75622f33 	strvcb	r2, [r2, #-3891]!
 4c0:	2f646c69 	swics	0x00646c69
 4c4:	2d6d7261 	sfmcs	f7, 2, [sp, #-388]!
 4c8:	756e696c 	strvcb	r6, [lr, #-2412]!
 4cc:	63672f78 	cmnvs	r7, #480	; 0x1e0
 4d0:	2e332d63 	cdpcs	13, 3, cr2, cr3, cr3, {3}
 4d4:	2d352e34 	ldccs	14, cr2, [r5, #-208]!
 4d8:	62696c67 	rsbvs	r6, r9, #26368	; 0x6700
 4dc:	2e322d63 	cdpcs	13, 3, cr2, cr2, cr3, {3}
 4e0:	2f362e33 	swics	0x00362e33
 4e4:	6c697562 	cfstr64vs	mvdx7, [r9], #-392
 4e8:	63672d64 	cmnvs	r7, #6400	; 0x1900
 4ec:	63672f63 	cmnvs	r7, #396	; 0x18c
 4f0:	4e470063 	cdpmi	0, 4, cr0, cr7, cr3, {3}
 4f4:	53412055 	cmppl	r1, #85	; 0x55
 4f8:	312e3220 	teqcc	lr, r0, lsr #4
 4fc:	80010035 	andhi	r0, r1, r5, lsr r0
 500:	000000fc 	streqd	r0, [r0], -ip
 504:	00640002 	rsbeq	r0, r4, r2
 508:	01040000 	tsteq	r4, r0
 50c:	0000076b 	andeq	r0, r0, fp, ror #14
 510:	3000a0dc 	ldrccd	sl, [r0], -ip
 514:	3000a2f4 	strccd	sl, [r0], -r4
 518:	726f772f 	rsbvc	r7, pc, #12320768	; 0xbc0000
 51c:	6f742f6b 	swivs	0x00742f6b
 520:	2f736c6f 	swics	0x00736c6f
 524:	61657263 	cmnvs	r5, r3, ror #4
 528:	635f6574 	cmpvs	pc, #486539264	; 0x1d000000
 52c:	73736f72 	cmnvc	r3, #456	; 0x1c8
 530:	6c6f6f74 	stcvsl	15, cr6, [pc], #-464
 534:	72632f73 	rsbvc	r2, r3, #460	; 0x1cc
 538:	7473736f 	ldrvcbt	r7, [r3], #-879
 53c:	2d6c6f6f 	stccsl	15, cr6, [ip, #-444]!
 540:	33342e30 	teqcc	r4, #768	; 0x300
 544:	6975622f 	ldmvsdb	r5!, {r0, r1, r2, r3, r5, r9, sp, lr}^
 548:	612f646c 	teqvs	pc, ip, ror #8
 54c:	6c2d6d72 	stcvs	13, cr6, [sp], #-456
 550:	78756e69 	ldmvcda	r5!, {r0, r3, r5, r6, r9, sl, fp, sp, lr}^
 554:	6363672f 	cmnvs	r3, #12320768	; 0xbc0000
 558:	342e332d 	strcct	r3, [lr], #-813
 55c:	672d352e 	strvs	r3, [sp, -lr, lsr #10]!
 560:	6362696c 	cmnvs	r2, #1769472	; 0x1b0000
 564:	332e322d 	teqcc	lr, #-805306366	; 0xd0000002
 568:	672f362e 	strvs	r3, [pc, -lr, lsr #12]!
 56c:	332d6363 	teqcc	sp, #-1946157055	; 0x8c000001
 570:	352e342e 	strcc	r3, [lr, #-1070]!
 574:	6363672f 	cmnvs	r3, #12320768	; 0xbc0000
 578:	6e6f632f 	cdpvs	3, 6, cr6, cr15, cr15, {1}
 57c:	2f676966 	swics	0x00676966
 580:	2f6d7261 	swics	0x006d7261
 584:	65656569 	strvsb	r6, [r5, #-1385]!
 588:	2d343537 	cfldr32cs	mvfx3, [r4, #-220]!
 58c:	532e6673 	teqpl	lr, #120586240	; 0x7300000
 590:	6f772f00 	swivs	0x00772f00
 594:	742f6b72 	strvct	r6, [pc], #2930	; 59c <__code_start-0x2ffffa64>
 598:	736c6f6f 	cmnvc	ip, #444	; 0x1bc
 59c:	6572632f 	ldrvsb	r6, [r2, #-815]!
 5a0:	5f657461 	swipl	0x00657461
 5a4:	736f7263 	cmnvc	pc, #805306374	; 0x30000006
 5a8:	6f6f7473 	swivs	0x006f7473
 5ac:	632f736c 	teqvs	pc, #-1342177279	; 0xb0000001
 5b0:	73736f72 	cmnvc	r3, #456	; 0x1c8
 5b4:	6c6f6f74 	stcvsl	15, cr6, [pc], #-464
 5b8:	342e302d 	strcct	r3, [lr], #-45
 5bc:	75622f33 	strvcb	r2, [r2, #-3891]!
 5c0:	2f646c69 	swics	0x00646c69
 5c4:	2d6d7261 	sfmcs	f7, 2, [sp, #-388]!
 5c8:	756e696c 	strvcb	r6, [lr, #-2412]!
 5cc:	63672f78 	cmnvs	r7, #480	; 0x1e0
 5d0:	2e332d63 	cdpcs	13, 3, cr2, cr3, cr3, {3}
 5d4:	2d352e34 	ldccs	14, cr2, [r5, #-208]!
 5d8:	62696c67 	rsbvs	r6, r9, #26368	; 0x6700
 5dc:	2e322d63 	cdpcs	13, 3, cr2, cr2, cr3, {3}
 5e0:	2f362e33 	swics	0x00362e33
 5e4:	6c697562 	cfstr64vs	mvdx7, [r9], #-392
 5e8:	63672d64 	cmnvs	r7, #6400	; 0x1900
 5ec:	63672f63 	cmnvs	r7, #396	; 0x18c
 5f0:	4e470063 	cdpmi	0, 4, cr0, cr7, cr3, {3}
 5f4:	53412055 	cmppl	r1, #85	; 0x55
 5f8:	312e3220 	teqcc	lr, r0, lsr #4
 5fc:	80010035 	andhi	r0, r1, r5, lsr r0
 600:	000000fc 	streqd	r0, [r0], -ip
 604:	00780002 	rsbeqs	r0, r8, r2
 608:	01040000 	tsteq	r4, r0
 60c:	000008b3 	streqh	r0, [r0], -r3
 610:	3000a2f4 	strccd	sl, [r0], -r4
 614:	3000a650 	andcc	sl, r0, r0, asr r6
 618:	726f772f 	rsbvc	r7, pc, #12320768	; 0xbc0000
 61c:	6f742f6b 	swivs	0x00742f6b
 620:	2f736c6f 	swics	0x00736c6f
 624:	61657263 	cmnvs	r5, r3, ror #4
 628:	635f6574 	cmpvs	pc, #486539264	; 0x1d000000
 62c:	73736f72 	cmnvc	r3, #456	; 0x1c8
 630:	6c6f6f74 	stcvsl	15, cr6, [pc], #-464
 634:	72632f73 	rsbvc	r2, r3, #460	; 0x1cc
 638:	7473736f 	ldrvcbt	r7, [r3], #-879
 63c:	2d6c6f6f 	stccsl	15, cr6, [ip, #-444]!
 640:	33342e30 	teqcc	r4, #768	; 0x300
 644:	6975622f 	ldmvsdb	r5!, {r0, r1, r2, r3, r5, r9, sp, lr}^
 648:	612f646c 	teqvs	pc, ip, ror #8
 64c:	6c2d6d72 	stcvs	13, cr6, [sp], #-456
 650:	78756e69 	ldmvcda	r5!, {r0, r3, r5, r6, r9, sl, fp, sp, lr}^
 654:	6363672f 	cmnvs	r3, #12320768	; 0xbc0000
 658:	342e332d 	strcct	r3, [lr], #-813
 65c:	672d352e 	strvs	r3, [sp, -lr, lsr #10]!
 660:	6362696c 	cmnvs	r2, #1769472	; 0x1b0000
 664:	332e322d 	teqcc	lr, #-805306366	; 0xd0000002
 668:	672f362e 	strvs	r3, [pc, -lr, lsr #12]!
 66c:	332d6363 	teqcc	sp, #-1946157055	; 0x8c000001
 670:	352e342e 	strcc	r3, [lr, #-1070]!
 674:	6363672f 	cmnvs	r3, #12320768	; 0xbc0000
 678:	6e6f632f 	cdpvs	3, 6, cr6, cr15, cr15, {1}
 67c:	2f676966 	swics	0x00676966
 680:	2f6d7261 	swics	0x006d7261
 684:	65656569 	strvsb	r6, [r5, #-1385]!
 688:	2d343537 	cfldr32cs	mvfx3, [r4, #-220]!
 68c:	532e6673 	teqpl	lr, #120586240	; 0x7300000
 690:	6f772f00 	swivs	0x00772f00
 694:	742f6b72 	strvct	r6, [pc], #2930	; 69c <__code_start-0x2ffff964>
 698:	736c6f6f 	cmnvc	ip, #444	; 0x1bc
 69c:	6572632f 	ldrvsb	r6, [r2, #-815]!
 6a0:	5f657461 	swipl	0x00657461
 6a4:	736f7263 	cmnvc	pc, #805306374	; 0x30000006
 6a8:	6f6f7473 	swivs	0x006f7473
 6ac:	632f736c 	teqvs	pc, #-1342177279	; 0xb0000001
 6b0:	73736f72 	cmnvc	r3, #456	; 0x1c8
 6b4:	6c6f6f74 	stcvsl	15, cr6, [pc], #-464
 6b8:	342e302d 	strcct	r3, [lr], #-45
 6bc:	75622f33 	strvcb	r2, [r2, #-3891]!
 6c0:	2f646c69 	swics	0x00646c69
 6c4:	2d6d7261 	sfmcs	f7, 2, [sp, #-388]!
 6c8:	756e696c 	strvcb	r6, [lr, #-2412]!
 6cc:	63672f78 	cmnvs	r7, #480	; 0x1e0
 6d0:	2e332d63 	cdpcs	13, 3, cr2, cr3, cr3, {3}
 6d4:	2d352e34 	ldccs	14, cr2, [r5, #-208]!
 6d8:	62696c67 	rsbvs	r6, r9, #26368	; 0x6700
 6dc:	2e322d63 	cdpcs	13, 3, cr2, cr2, cr3, {3}
 6e0:	2f362e33 	swics	0x00362e33
 6e4:	6c697562 	cfstr64vs	mvdx7, [r9], #-392
 6e8:	63672d64 	cmnvs	r7, #6400	; 0x1900
 6ec:	63672f63 	cmnvs	r7, #396	; 0x18c
 6f0:	4e470063 	cdpmi	0, 4, cr0, cr7, cr3, {3}
 6f4:	53412055 	cmppl	r1, #85	; 0x55
 6f8:	312e3220 	teqcc	lr, r0, lsr #4
 6fc:	80010035 	andhi	r0, r1, r5, lsr r0
Disassembly of section .debug_abbrev:

00000000 <.debug_abbrev>:
   0:	10001101 	andne	r1, r0, r1, lsl #2
   4:	12011106 	andne	r1, r1, #-2147483647	; 0x80000001
   8:	1b080301 	blne	200c14 <__code_start-0x2fdff3ec>
   c:	13082508 	tstne	r8, #33554432	; 0x2000000
  10:	00000005 	andeq	r0, r0, r5
  14:	10001101 	andne	r1, r0, r1, lsl #2
  18:	12011106 	andne	r1, r1, #-2147483647	; 0x80000001
  1c:	1b080301 	blne	200c28 <__code_start-0x2fdff3d8>
  20:	13082508 	tstne	r8, #33554432	; 0x2000000
  24:	00000005 	andeq	r0, r0, r5
  28:	10001101 	andne	r1, r0, r1, lsl #2
  2c:	12011106 	andne	r1, r1, #-2147483647	; 0x80000001
  30:	1b080301 	blne	200c3c <__code_start-0x2fdff3c4>
  34:	13082508 	tstne	r8, #33554432	; 0x2000000
  38:	00000005 	andeq	r0, r0, r5
  3c:	10001101 	andne	r1, r0, r1, lsl #2
  40:	12011106 	andne	r1, r1, #-2147483647	; 0x80000001
  44:	1b080301 	blne	200c50 <__code_start-0x2fdff3b0>
  48:	13082508 	tstne	r8, #33554432	; 0x2000000
  4c:	00000005 	andeq	r0, r0, r5
  50:	10001101 	andne	r1, r0, r1, lsl #2
  54:	12011106 	andne	r1, r1, #-2147483647	; 0x80000001
  58:	1b080301 	blne	200c64 <__code_start-0x2fdff39c>
  5c:	13082508 	tstne	r8, #33554432	; 0x2000000
  60:	00000005 	andeq	r0, r0, r5
  64:	10001101 	andne	r1, r0, r1, lsl #2
  68:	12011106 	andne	r1, r1, #-2147483647	; 0x80000001
  6c:	1b080301 	blne	200c78 <__code_start-0x2fdff388>
  70:	13082508 	tstne	r8, #33554432	; 0x2000000
  74:	00000005 	andeq	r0, r0, r5
  78:	10001101 	andne	r1, r0, r1, lsl #2
  7c:	12011106 	andne	r1, r1, #-2147483647	; 0x80000001
  80:	1b080301 	blne	200c8c <__code_start-0x2fdff374>
  84:	13082508 	tstne	r8, #33554432	; 0x2000000
  88:	00000005 	andeq	r0, r0, r5
Disassembly of section .debug_line:

00000000 <.debug_line>:
   0:	000001e0 	andeq	r0, r0, r0, ror #3
   4:	009d0002 	addeqs	r0, sp, r2
   8:	01020000 	tsteq	r2, r0
   c:	000a0efb 	streqd	r0, [sl], -fp
  10:	01010101 	tsteq	r1, r1, lsl #2
  14:	01000000 	tsteq	r0, r0
  18:	726f772f 	rsbvc	r7, pc, #12320768	; 0xbc0000
  1c:	6f742f6b 	swivs	0x00742f6b
  20:	2f736c6f 	swics	0x00736c6f
  24:	61657263 	cmnvs	r5, r3, ror #4
  28:	635f6574 	cmpvs	pc, #486539264	; 0x1d000000
  2c:	73736f72 	cmnvc	r3, #456	; 0x1c8
  30:	6c6f6f74 	stcvsl	15, cr6, [pc], #-464
  34:	72632f73 	rsbvc	r2, r3, #460	; 0x1cc
  38:	7473736f 	ldrvcbt	r7, [r3], #-879
  3c:	2d6c6f6f 	stccsl	15, cr6, [ip, #-444]!
  40:	33342e30 	teqcc	r4, #768	; 0x300
  44:	6975622f 	ldmvsdb	r5!, {r0, r1, r2, r3, r5, r9, sp, lr}^
  48:	612f646c 	teqvs	pc, ip, ror #8
  4c:	6c2d6d72 	stcvs	13, cr6, [sp], #-456
  50:	78756e69 	ldmvcda	r5!, {r0, r3, r5, r6, r9, sl, fp, sp, lr}^
  54:	6363672f 	cmnvs	r3, #12320768	; 0xbc0000
  58:	342e332d 	strcct	r3, [lr], #-813
  5c:	672d352e 	strvs	r3, [sp, -lr, lsr #10]!
  60:	6362696c 	cmnvs	r2, #1769472	; 0x1b0000
  64:	332e322d 	teqcc	lr, #-805306366	; 0xd0000002
  68:	672f362e 	strvs	r3, [pc, -lr, lsr #12]!
  6c:	332d6363 	teqcc	sp, #-1946157055	; 0x8c000001
  70:	352e342e 	strcc	r3, [lr, #-1070]!
  74:	6363672f 	cmnvs	r3, #12320768	; 0xbc0000
  78:	6e6f632f 	cdpvs	3, 6, cr6, cr15, cr15, {1}
  7c:	2f676966 	swics	0x00676966
  80:	006d7261 	rsbeq	r7, sp, r1, ror #4
  84:	65656900 	strvsb	r6, [r5, #-2304]!
  88:	34353765 	ldrcct	r3, [r5], #-1893
  8c:	2e66642d 	cdpcs	4, 6, cr6, cr6, cr13, {1}
  90:	00010053 	andeq	r0, r1, r3, asr r0
  94:	62696c00 	rsbvs	r6, r9, #0	; 0x0
  98:	6e756631 	mrcvs	6, 3, r6, cr5, cr1, {1}
  9c:	612e7363 	teqvs	lr, r3, ror #6
  a0:	01006d73 	tsteq	r0, r3, ror sp
  a4:	00000000 	andeq	r0, r0, r0
  a8:	963c0205 	ldrlst	r0, [ip], -r5, lsl #4
  ac:	c9033000 	stmgtdb	r3, {ip, sp}
  b0:	2c330100 	ldfcss	f0, [r3]
  b4:	2c2f2c2c 	stccs	12, cr2, [pc], #-176
  b8:	2d2c2c2c 	stccs	12, cr2, [ip, #-176]!
  bc:	2c2c2c2e 	stccs	12, cr2, [ip], #-184
  c0:	2f2c2c2e 	swics	0x002c2c2e
  c4:	2c2c2c2c 	stccs	12, cr2, [ip], #-176
  c8:	2c2c2c2c 	stccs	12, cr2, [ip], #-176
  cc:	0204312c 	andeq	r3, r4, #11	; 0xb
  d0:	33010427 	tstcc	r1, #654311424	; 0x27000000
  d4:	2c2c2c2c 	stccs	12, cr2, [ip], #-176
  d8:	2c2c2d2c 	stccs	13, cr2, [ip], #-176
  dc:	2f2c2c2c 	swics	0x002c2c2c
  e0:	2c2c302c 	stccs	0, cr3, [ip], #-176
  e4:	2c2c2c2c 	stccs	12, cr2, [ip], #-176
  e8:	2e2c2c2c 	cdpcs	12, 2, cr2, cr12, cr12, {1}
  ec:	2c2c2c2c 	stccs	12, cr2, [ip], #-176
  f0:	2c2c2c2c 	stccs	12, cr2, [ip], #-176
  f4:	2c2c2c2c 	stccs	12, cr2, [ip], #-176
  f8:	2c2f2c2e 	stccs	12, cr2, [pc], #-184
  fc:	2f2c2c2c 	swics	0x002c2c2c
 100:	2c2c2c2c 	stccs	12, cr2, [ip], #-176
 104:	2c2c2e2c 	stccs	14, cr2, [ip], #-176
 108:	2c2d2c2c 	stccs	12, cr2, [sp], #-176
 10c:	312c2c2c 	teqcc	ip, ip, lsr #24
 110:	2f2c2c2c 	swics	0x002c2c2c
 114:	2f2c2e2c 	swics	0x002c2e2c
 118:	02042c2c 	andeq	r2, r4, #11264	; 0x2c00
 11c:	2b7f9003 	blcs	1fe4130 <__code_start-0x2e01bed0>
 120:	f8030104 	stmnvda	r3, {r2, r8}
 124:	2c2c2b00 	stccs	11, cr2, [ip]
 128:	2c2c2c2c 	stccs	12, cr2, [ip], #-176
 12c:	2c2c2c2c 	stccs	12, cr2, [ip], #-176
 130:	2c2c2c2c 	stccs	12, cr2, [ip], #-176
 134:	2c2c2c2c 	stccs	12, cr2, [ip], #-176
 138:	2b0e032c 	blcs	380df0 <__code_start-0x2fc7f210>
 13c:	2f2c2c2c 	swics	0x002c2c2c
 140:	2c2c2c2c 	stccs	12, cr2, [ip], #-176
 144:	2c2c2c2f 	stccs	12, cr2, [ip], #-188
 148:	2f2c2e2c 	swics	0x002c2e2c
 14c:	2c2c2c2c 	stccs	12, cr2, [ip], #-176
 150:	2c2c2c2e 	stccs	12, cr2, [ip], #-184
 154:	0302042c 	tsteq	r2, #738197504	; 0x2c000000
 158:	042b7ec1 	streqt	r7, [fp], #-3777
 15c:	01c40301 	biceq	r0, r4, r1, lsl #6
 160:	2c2c2c2b 	stccs	12, cr2, [ip], #-172
 164:	0302042c 	tsteq	r2, #738197504	; 0x2c000000
 168:	042b7eb8 	streqt	r7, [fp], #-3768
 16c:	01cd0301 	biceq	r0, sp, r1, lsl #6
 170:	02042c2b 	andeq	r2, r4, #11008	; 0x2b00
 174:	2b7eb203 	blcs	1fac988 <__code_start-0x2e053678>
 178:	d3030104 	tstle	r3, #1	; 0x1
 17c:	2c2c2b01 	stccs	11, cr2, [ip], #-4
 180:	2f2c2c2c 	swics	0x002c2c2c
 184:	2c2c2c2c 	stccs	12, cr2, [ip], #-176
 188:	2c2f2c2c 	stccs	12, cr2, [pc], #-176
 18c:	0302042c 	tsteq	r2, #738197504	; 0x2c000000
 190:	042b7e98 	streqt	r7, [fp], #-3736
 194:	01f20301 	mvneqs	r0, r1, lsl #6
 198:	2c2c2c2b 	stccs	12, cr2, [ip], #-172
 19c:	8b030204 	blhi	c09b4 <__code_start-0x2ff3f64c>
 1a0:	01042b7e 	tsteq	r4, lr, ror fp
 1a4:	2b01f803 	blcs	7e1b8 <__code_start-0x2ff81e48>
 1a8:	2c2c2c2c 	stccs	12, cr2, [ip], #-176
 1ac:	84030204 	strhi	r0, [r3], #-516
 1b0:	01042b7e 	tsteq	r4, lr, ror fp
 1b4:	2b028303 	blcs	a0dc8 <__code_start-0x2ff5f238>
 1b8:	2c2c2c2c 	stccs	12, cr2, [ip], #-176
 1bc:	2c2c2c2c 	stccs	12, cr2, [ip], #-176
 1c0:	2c2c302c 	stccs	0, cr3, [ip], #-176
 1c4:	2c2c2c2c 	stccs	12, cr2, [ip], #-176
 1c8:	2c2c2c2c 	stccs	12, cr2, [ip], #-176
 1cc:	2c2c2c30 	stccs	12, cr2, [ip], #-192
 1d0:	2c2c2c2c 	stccs	12, cr2, [ip], #-176
 1d4:	2c2d2c2c 	stccs	12, cr2, [sp], #-176
 1d8:	2c2c2e2c 	stccs	14, cr2, [ip], #-176
 1dc:	022c2c2c 	eoreq	r2, ip, #11264	; 0x2c00
 1e0:	01010002 	tsteq	r1, r2
 1e4:	00000016 	andeq	r0, r0, r6, lsl r0
 1e8:	00100002 	andeqs	r0, r0, r2
 1ec:	01020000 	tsteq	r2, r0
 1f0:	000a0efb 	streqd	r0, [sl], -fp
 1f4:	01010101 	tsteq	r1, r1, lsl #2
 1f8:	01000000 	tsteq	r0, r0
 1fc:	02780000 	rsbeqs	r0, r8, #0	; 0x0
 200:	00020000 	andeq	r0, r2, r0
 204:	0000009d 	muleq	r0, sp, r0
 208:	0efb0102 	cdpeq	1, 15, cr0, cr11, cr2, {0}
 20c:	0101000a 	tsteq	r1, sl
 210:	00000101 	andeq	r0, r0, r1, lsl #2
 214:	772f0100 	strvc	r0, [pc, -r0, lsl #2]!
 218:	2f6b726f 	swics	0x006b726f
 21c:	6c6f6f74 	stcvsl	15, cr6, [pc], #-464
 220:	72632f73 	rsbvc	r2, r3, #460	; 0x1cc
 224:	65746165 	ldrvsb	r6, [r4, #-357]!
 228:	6f72635f 	swivs	0x0072635f
 22c:	6f747373 	swivs	0x00747373
 230:	2f736c6f 	swics	0x00736c6f
 234:	736f7263 	cmnvc	pc, #805306374	; 0x30000006
 238:	6f6f7473 	swivs	0x006f7473
 23c:	2e302d6c 	cdpcs	13, 3, cr2, cr0, cr12, {3}
 240:	622f3334 	eorvs	r3, pc, #-805306368	; 0xd0000000
 244:	646c6975 	strvsbt	r6, [ip], #-2421
 248:	6d72612f 	ldfvse	f6, [r2, #-188]!
 24c:	6e696c2d 	cdpvs	12, 6, cr6, cr9, cr13, {1}
 250:	672f7875 	undefined
 254:	332d6363 	teqcc	sp, #-1946157055	; 0x8c000001
 258:	352e342e 	strcc	r3, [lr, #-1070]!
 25c:	696c672d 	stmvsdb	ip!, {r0, r2, r3, r5, r8, r9, sl, sp, lr}^
 260:	322d6362 	eorcc	r6, sp, #-2013265919	; 0x88000001
 264:	362e332e 	strcct	r3, [lr], -lr, lsr #6
 268:	6363672f 	cmnvs	r3, #12320768	; 0xbc0000
 26c:	342e332d 	strcct	r3, [lr], #-813
 270:	672f352e 	strvs	r3, [pc, -lr, lsr #10]!
 274:	632f6363 	teqvs	pc, #-1946157055	; 0x8c000001
 278:	69666e6f 	stmvsdb	r6!, {r0, r1, r2, r3, r5, r6, r9, sl, fp, sp, lr}^
 27c:	72612f67 	rsbvc	r2, r1, #412	; 0x19c
 280:	6900006d 	stmvsdb	r0, {r0, r2, r3, r5, r6}
 284:	37656565 	strccb	r6, [r5, -r5, ror #10]!
 288:	642d3435 	strvst	r3, [sp], #-1077
 28c:	00532e66 	subeqs	r2, r3, r6, ror #28
 290:	6c000001 	stcvs	0, cr0, [r0], {1}
 294:	66316269 	ldrvst	r6, [r1], -r9, ror #4
 298:	73636e75 	cmnvc	r3, #1872	; 0x750
 29c:	6d73612e 	ldfvse	f6, [r3, #-184]!
 2a0:	00000100 	andeq	r0, r0, r0, lsl #2
 2a4:	02050000 	andeq	r0, r5, #0	; 0x0
 2a8:	300099c4 	andcc	r9, r0, r4, asr #19
 2ac:	0103b703 	tsteq	r3, r3, lsl #14
 2b0:	2c2c2c2e 	stccs	12, cr2, [ip], #-184
 2b4:	2e2c2c2e 	cdpcs	12, 2, cr2, cr12, cr14, {1}
 2b8:	2c302c2c 	ldccs	12, cr2, [r0], #-176
 2bc:	2c2e2d2c 	stccs	13, cr2, [lr], #-176
 2c0:	2c2c2c2e 	stccs	12, cr2, [ip], #-184
 2c4:	2c2c2c31 	stccs	12, cr2, [ip], #-196
 2c8:	2c2c2c2c 	stccs	12, cr2, [ip], #-176
 2cc:	2c2c2c2c 	stccs	12, cr2, [ip], #-176
 2d0:	2c2c2c2c 	stccs	12, cr2, [ip], #-176
 2d4:	2c2c2c2c 	stccs	12, cr2, [ip], #-176
 2d8:	2c2c2c2c 	stccs	12, cr2, [ip], #-176
 2dc:	2c2c2c2c 	stccs	12, cr2, [ip], #-176
 2e0:	2c2c2c2c 	stccs	12, cr2, [ip], #-176
 2e4:	2c2c2c2c 	stccs	12, cr2, [ip], #-176
 2e8:	2c2c2c2c 	stccs	12, cr2, [ip], #-176
 2ec:	2c2c2c2c 	stccs	12, cr2, [ip], #-176
 2f0:	2c2c2c2c 	stccs	12, cr2, [ip], #-176
 2f4:	2c2c2c2c 	stccs	12, cr2, [ip], #-176
 2f8:	2b10032c 	blcs	400fb0 <__code_start-0x2fbff050>
 2fc:	2e2c2e2c 	cdpcs	14, 2, cr2, cr12, cr12, {1}
 300:	2c2c2c2c 	stccs	12, cr2, [ip], #-176
 304:	2c2f2c2c 	stccs	12, cr2, [pc], #-176
 308:	2c2e2c2c 	stccs	12, cr2, [lr], #-176
 30c:	2c2c2e2c 	stccs	14, cr2, [ip], #-176
 310:	2f2c2c2c 	swics	0x002c2c2c
 314:	2c2c2e2c 	stccs	14, cr2, [ip], #-176
 318:	02042c2e 	andeq	r2, r4, #11776	; 0x2e00
 31c:	2b7ca403 	blcs	1f29330 <__code_start-0x2e0d6cd0>
 320:	e1030104 	tst	r3, r4, lsl #2
 324:	2c2d2b03 	stccs	11, cr2, [sp], #-12
 328:	9c030204 	sfmls	f0, 4, [r3], {4}
 32c:	01042b7c 	tsteq	r4, ip, ror fp
 330:	2b03e903 	blcs	fa744 <__code_start-0x2ff058bc>
 334:	02042c2c 	andeq	r2, r4, #11264	; 0x2c00
 338:	2b7c9503 	blcs	1f2574c <__code_start-0x2e0da8b4>
 33c:	f0030104 	andnv	r0, r3, r4, lsl #2
 340:	2c2c2b03 	stccs	11, cr2, [ip], #-12
 344:	2c2e2c2c 	stccs	12, cr2, [lr], #-176
 348:	2c2c2c2c 	stccs	12, cr2, [ip], #-176
 34c:	2c2c2c2c 	stccs	12, cr2, [ip], #-176
 350:	042c2c2c 	streqt	r2, [ip], #-3116
 354:	7bfd0302 	blvc	fff40f64 <__bss_end+0xcff33f48>
 358:	0301042b 	tsteq	r1, #721420288	; 0x2b000000
 35c:	2c2b0488 	cfstrscs	mvf0, [fp], #-544
 360:	2c2c2c2c 	stccs	12, cr2, [ip], #-176
 364:	2c2c2c2c 	stccs	12, cr2, [ip], #-176
 368:	0302042c 	tsteq	r2, #738197504	; 0x2c000000
 36c:	042b7bee 	streqt	r7, [fp], #-3054
 370:	04970301 	ldreq	r0, [r7], #769
 374:	2c2c2c2b 	stccs	12, cr2, [ip], #-172
 378:	2c2c2c2c 	stccs	12, cr2, [ip], #-176
 37c:	042c2c2c 	streqt	r2, [ip], #-3116
 380:	7bdf0302 	blvc	ff7c0f90 <__bss_end+0xcf7b3f74>
 384:	0301042b 	tsteq	r1, #721420288	; 0x2b000000
 388:	2c2b04a7 	cfstrscs	mvf0, [fp], #-668
 38c:	2c2c2c2c 	stccs	12, cr2, [ip], #-176
 390:	2c2c2c2c 	stccs	12, cr2, [ip], #-176
 394:	2c2c2c2c 	stccs	12, cr2, [ip], #-176
 398:	2c2c2c2c 	stccs	12, cr2, [ip], #-176
 39c:	2c2f2c2c 	stccs	12, cr2, [pc], #-176
 3a0:	2c2c2c2c 	stccs	12, cr2, [ip], #-176
 3a4:	2c2c2c2c 	stccs	12, cr2, [ip], #-176
 3a8:	2c2f2f2c 	stccs	15, cr2, [pc], #-176
 3ac:	02042c2c 	andeq	r2, r4, #11264	; 0x2c00
 3b0:	2b7bad03 	blcs	1eeb7c4 <__code_start-0x2e11483c>
 3b4:	d8030104 	stmleda	r3, {r2, r8}
 3b8:	042c2b04 	streqt	r2, [ip], #-2820
 3bc:	7ba70302 	blvc	fe9c0fcc <__bss_end+0xce9b3fb0>
 3c0:	0301042b 	tsteq	r1, #721420288	; 0x2b000000
 3c4:	2e2b04e0 	cdpcs	4, 2, cr0, cr11, cr0, {7}
 3c8:	2e2c2c2c 	cdpcs	12, 2, cr2, cr12, cr12, {1}
 3cc:	2c2c2c2c 	stccs	12, cr2, [ip], #-176
 3d0:	2d2c2c30 	stccs	12, cr2, [ip, #-192]!
 3d4:	2c2c2f2e 	stccs	15, cr2, [ip], #-184
 3d8:	2c2c2c2c 	stccs	12, cr2, [ip], #-176
 3dc:	2c2c2c2c 	stccs	12, cr2, [ip], #-176
 3e0:	2c2c2e2e 	stccs	14, cr2, [ip], #-184
 3e4:	2e2c2c2c 	cdpcs	12, 2, cr2, cr12, cr12, {1}
 3e8:	2c2c2c2c 	stccs	12, cr2, [ip], #-176
 3ec:	2c2c2e2c 	stccs	14, cr2, [ip], #-176
 3f0:	2e2c2c2c 	cdpcs	12, 2, cr2, cr12, cr12, {1}
 3f4:	2c2c2c2c 	stccs	12, cr2, [ip], #-176
 3f8:	2c2c2c2c 	stccs	12, cr2, [ip], #-176
 3fc:	2c2c2c2c 	stccs	12, cr2, [ip], #-176
 400:	2c2c2c2c 	stccs	12, cr2, [ip], #-176
 404:	2c2c2c2c 	stccs	12, cr2, [ip], #-176
 408:	2c2c2c2c 	stccs	12, cr2, [ip], #-176
 40c:	2c2c2d2c 	stccs	13, cr2, [ip], #-176
 410:	2c2c2c2c 	stccs	12, cr2, [ip], #-176
 414:	2f2c2c2c 	swics	0x002c2c2c
 418:	2c2c2c2c 	stccs	12, cr2, [ip], #-176
 41c:	2c2c2e2c 	stccs	14, cr2, [ip], #-176
 420:	2c2e2c2e 	stccs	12, cr2, [lr], #-184
 424:	2c2c2c2c 	stccs	12, cr2, [ip], #-176
 428:	02042c2e 	andeq	r2, r4, #11776	; 0x2e00
 42c:	2b7a9903 	blcs	1ea6840 <__code_start-0x2e1597c0>
 430:	ec030104 	stfs	f0, [r3], {4}
 434:	2c2c2b05 	stccs	11, cr2, [ip], #-20
 438:	2c2c2c2c 	stccs	12, cr2, [ip], #-176
 43c:	0302042c 	tsteq	r2, #738197504	; 0x2c000000
 440:	042b7a8d 	streqt	r7, [fp], #-2701
 444:	05f60301 	ldreqb	r0, [r6, #769]!
 448:	2c2c2c2b 	stccs	12, cr2, [ip], #-172
 44c:	302c302c 	eorcc	r3, ip, ip, lsr #32
 450:	2c2c2c2c 	stccs	12, cr2, [ip], #-176
 454:	2c2c2c2c 	stccs	12, cr2, [ip], #-176
 458:	2c2c2c2c 	stccs	12, cr2, [ip], #-176
 45c:	2c2c2c2c 	stccs	12, cr2, [ip], #-176
 460:	2f2c2c2c 	swics	0x002c2c2c
 464:	2c2c2c2c 	stccs	12, cr2, [ip], #-176
 468:	2c2c2c2c 	stccs	12, cr2, [ip], #-176
 46c:	2c2c2c2c 	stccs	12, cr2, [ip], #-176
 470:	2c2c2c2d 	stccs	12, cr2, [ip], #-180
 474:	0002022c 	andeq	r0, r2, ip, lsr #4
 478:	00160101 	andeqs	r0, r6, r1, lsl #2
 47c:	00020000 	andeq	r0, r2, r0
 480:	00000010 	andeq	r0, r0, r0, lsl r0
 484:	0efb0102 	cdpeq	1, 15, cr0, cr11, cr2, {0}
 488:	0101000a 	tsteq	r1, sl
 48c:	00000101 	andeq	r0, r0, r1, lsl #2
 490:	00000100 	andeq	r0, r0, r0, lsl #2
 494:	000000fe 	streqd	r0, [r0], -lr
 498:	009d0002 	addeqs	r0, sp, r2
 49c:	01020000 	tsteq	r2, r0
 4a0:	000a0efb 	streqd	r0, [sl], -fp
 4a4:	01010101 	tsteq	r1, r1, lsl #2
 4a8:	01000000 	tsteq	r0, r0
 4ac:	726f772f 	rsbvc	r7, pc, #12320768	; 0xbc0000
 4b0:	6f742f6b 	swivs	0x00742f6b
 4b4:	2f736c6f 	swics	0x00736c6f
 4b8:	61657263 	cmnvs	r5, r3, ror #4
 4bc:	635f6574 	cmpvs	pc, #486539264	; 0x1d000000
 4c0:	73736f72 	cmnvc	r3, #456	; 0x1c8
 4c4:	6c6f6f74 	stcvsl	15, cr6, [pc], #-464
 4c8:	72632f73 	rsbvc	r2, r3, #460	; 0x1cc
 4cc:	7473736f 	ldrvcbt	r7, [r3], #-879
 4d0:	2d6c6f6f 	stccsl	15, cr6, [ip, #-444]!
 4d4:	33342e30 	teqcc	r4, #768	; 0x300
 4d8:	6975622f 	ldmvsdb	r5!, {r0, r1, r2, r3, r5, r9, sp, lr}^
 4dc:	612f646c 	teqvs	pc, ip, ror #8
 4e0:	6c2d6d72 	stcvs	13, cr6, [sp], #-456
 4e4:	78756e69 	ldmvcda	r5!, {r0, r3, r5, r6, r9, sl, fp, sp, lr}^
 4e8:	6363672f 	cmnvs	r3, #12320768	; 0xbc0000
 4ec:	342e332d 	strcct	r3, [lr], #-813
 4f0:	672d352e 	strvs	r3, [sp, -lr, lsr #10]!
 4f4:	6362696c 	cmnvs	r2, #1769472	; 0x1b0000
 4f8:	332e322d 	teqcc	lr, #-805306366	; 0xd0000002
 4fc:	672f362e 	strvs	r3, [pc, -lr, lsr #12]!
 500:	332d6363 	teqcc	sp, #-1946157055	; 0x8c000001
 504:	352e342e 	strcc	r3, [lr, #-1070]!
 508:	6363672f 	cmnvs	r3, #12320768	; 0xbc0000
 50c:	6e6f632f 	cdpvs	3, 6, cr6, cr15, cr15, {1}
 510:	2f676966 	swics	0x00676966
 514:	006d7261 	rsbeq	r7, sp, r1, ror #4
 518:	65656900 	strvsb	r6, [r5, #-2304]!
 51c:	34353765 	ldrcct	r3, [r5], #-1893
 520:	2e66642d 	cdpcs	4, 6, cr6, cr6, cr13, {1}
 524:	00010053 	andeq	r0, r1, r3, asr r0
 528:	62696c00 	rsbvs	r6, r9, #0	; 0x0
 52c:	6e756631 	mrcvs	6, 3, r6, cr5, cr1, {1}
 530:	612e7363 	teqvs	lr, r3, ror #6
 534:	01006d73 	tsteq	r0, r3, ror sp
 538:	00000000 	andeq	r0, r0, r0
 53c:	9f440205 	swils	0x00440205
 540:	b0033000 	andlt	r3, r3, r0
 544:	2f2c0107 	swics	0x002c0107
 548:	2e2d302c 	cdpcs	0, 2, cr3, cr13, cr12, {1}
 54c:	2c2c2c2c 	stccs	12, cr2, [ip], #-176
 550:	2c2f2c2c 	stccs	12, cr2, [pc], #-176
 554:	042c2c2c 	streqt	r2, [ip], #-3116
 558:	79aa0302 	stmvcib	sl!, {r1, r8, r9}
 55c:	0301042b 	tsteq	r1, #721420288	; 0x2b000000
 560:	2c2b06da 	stccs	6, cr0, [fp], #-872
 564:	0302042c 	tsteq	r2, #738197504	; 0x2c000000
 568:	042b79a4 	streqt	r7, [fp], #-2468
 56c:	06e00301 	streqbt	r0, [r0], r1, lsl #6
 570:	2c2c2e2b 	stccs	14, cr2, [ip], #-172
 574:	042c2c2c 	streqt	r2, [ip], #-3116
 578:	79980302 	ldmvcib	r8, {r1, r8, r9}
 57c:	0301042b 	tsteq	r1, #721420288	; 0x2b000000
 580:	2c2b06ec 	stccs	6, cr0, [fp], #-944
 584:	2c2c2c2c 	stccs	12, cr2, [ip], #-176
 588:	042c2c2c 	streqt	r2, [ip], #-3116
 58c:	798c0302 	stmvcib	ip, {r1, r8, r9}
 590:	0002022b 	andeq	r0, r2, fp, lsr #4
 594:	00160101 	andeqs	r0, r6, r1, lsl #2
 598:	00020000 	andeq	r0, r2, r0
 59c:	00000010 	andeq	r0, r0, r0, lsl r0
 5a0:	0efb0102 	cdpeq	1, 15, cr0, cr11, cr2, {0}
 5a4:	0101000a 	tsteq	r1, sl
 5a8:	00000101 	andeq	r0, r0, r1, lsl #2
 5ac:	00000100 	andeq	r0, r0, r0, lsl #2
 5b0:	000000c1 	andeq	r0, r0, r1, asr #1
 5b4:	008c0002 	addeq	r0, ip, r2
 5b8:	01020000 	tsteq	r2, r0
 5bc:	000a0efb 	streqd	r0, [sl], -fp
 5c0:	01010101 	tsteq	r1, r1, lsl #2
 5c4:	01000000 	tsteq	r0, r0
 5c8:	726f772f 	rsbvc	r7, pc, #12320768	; 0xbc0000
 5cc:	6f742f6b 	swivs	0x00742f6b
 5d0:	2f736c6f 	swics	0x00736c6f
 5d4:	61657263 	cmnvs	r5, r3, ror #4
 5d8:	635f6574 	cmpvs	pc, #486539264	; 0x1d000000
 5dc:	73736f72 	cmnvc	r3, #456	; 0x1c8
 5e0:	6c6f6f74 	stcvsl	15, cr6, [pc], #-464
 5e4:	72632f73 	rsbvc	r2, r3, #460	; 0x1cc
 5e8:	7473736f 	ldrvcbt	r7, [r3], #-879
 5ec:	2d6c6f6f 	stccsl	15, cr6, [ip, #-444]!
 5f0:	33342e30 	teqcc	r4, #768	; 0x300
 5f4:	6975622f 	ldmvsdb	r5!, {r0, r1, r2, r3, r5, r9, sp, lr}^
 5f8:	612f646c 	teqvs	pc, ip, ror #8
 5fc:	6c2d6d72 	stcvs	13, cr6, [sp], #-456
 600:	78756e69 	ldmvcda	r5!, {r0, r3, r5, r6, r9, sl, fp, sp, lr}^
 604:	6363672f 	cmnvs	r3, #12320768	; 0xbc0000
 608:	342e332d 	strcct	r3, [lr], #-813
 60c:	672d352e 	strvs	r3, [sp, -lr, lsr #10]!
 610:	6362696c 	cmnvs	r2, #1769472	; 0x1b0000
 614:	332e322d 	teqcc	lr, #-805306366	; 0xd0000002
 618:	672f362e 	strvs	r3, [pc, -lr, lsr #12]!
 61c:	332d6363 	teqcc	sp, #-1946157055	; 0x8c000001
 620:	352e342e 	strcc	r3, [lr, #-1070]!
 624:	6363672f 	cmnvs	r3, #12320768	; 0xbc0000
 628:	6e6f632f 	cdpvs	3, 6, cr6, cr15, cr15, {1}
 62c:	2f676966 	swics	0x00676966
 630:	006d7261 	rsbeq	r7, sp, r1, ror #4
 634:	65656900 	strvsb	r6, [r5, #-2304]!
 638:	34353765 	ldrcct	r3, [r5], #-1893
 63c:	2e66642d 	cdpcs	4, 6, cr6, cr6, cr13, {1}
 640:	00010053 	andeq	r0, r1, r3, asr r0
 644:	05000000 	streq	r0, [r0]
 648:	009fe802 	addeqs	lr, pc, r2, lsl #16
 64c:	08960330 	ldmeqia	r6, {r4, r5, r8, r9}
 650:	2e2d2c01 	cdpcs	12, 2, cr2, cr13, cr1, {0}
 654:	2c2c2c2c 	stccs	12, cr2, [ip], #-176
 658:	2c2c2c2c 	stccs	12, cr2, [ip], #-176
 65c:	2c2d2c2c 	stccs	12, cr2, [sp], #-176
 660:	2c2c2c2c 	stccs	12, cr2, [ip], #-176
 664:	2d2c2c2c 	stccs	12, cr2, [ip, #-176]!
 668:	2c2c2d2c 	stccs	13, cr2, [ip], #-176
 66c:	2c2d2c2c 	stccs	12, cr2, [sp], #-176
 670:	01000202 	tsteq	r0, r2, lsl #4
 674:	00001601 	andeq	r1, r0, r1, lsl #12
 678:	10000200 	andne	r0, r0, r0, lsl #4
 67c:	02000000 	andeq	r0, r0, #0	; 0x0
 680:	0a0efb01 	beq	3bf28c <__code_start-0x2fc40d74>
 684:	01010100 	tsteq	r1, r0, lsl #2
 688:	00000001 	andeq	r0, r0, r1
 68c:	be000001 	cdplt	0, 0, cr0, cr0, cr1, {0}
 690:	02000000 	andeq	r0, r0, #0	; 0x0
 694:	00008c00 	andeq	r8, r0, r0, lsl #24
 698:	fb010200 	blx	40ea2 <__code_start-0x2ffbf15e>
 69c:	01000a0e 	tsteq	r0, lr, lsl #20
 6a0:	00010101 	andeq	r0, r1, r1, lsl #2
 6a4:	2f010000 	swics	0x00010000
 6a8:	6b726f77 	blvs	1c9c48c <__code_start-0x2e363b74>
 6ac:	6f6f742f 	swivs	0x006f742f
 6b0:	632f736c 	teqvs	pc, #-1342177279	; 0xb0000001
 6b4:	74616572 	strvcbt	r6, [r1], #-1394
 6b8:	72635f65 	rsbvc	r5, r3, #404	; 0x194
 6bc:	7473736f 	ldrvcbt	r7, [r3], #-879
 6c0:	736c6f6f 	cmnvc	ip, #444	; 0x1bc
 6c4:	6f72632f 	swivs	0x0072632f
 6c8:	6f747373 	swivs	0x00747373
 6cc:	302d6c6f 	eorcc	r6, sp, pc, ror #24
 6d0:	2f33342e 	swics	0x0033342e
 6d4:	6c697562 	cfstr64vs	mvdx7, [r9], #-392
 6d8:	72612f64 	rsbvc	r2, r1, #400	; 0x190
 6dc:	696c2d6d 	stmvsdb	ip!, {r0, r2, r3, r5, r6, r8, sl, fp, sp}^
 6e0:	2f78756e 	swics	0x0078756e
 6e4:	2d636367 	stccsl	3, cr6, [r3, #-412]!
 6e8:	2e342e33 	mrccs	14, 1, r2, cr4, cr3, {1}
 6ec:	6c672d35 	stcvsl	13, cr2, [r7], #-212
 6f0:	2d636269 	sfmcs	f6, 2, [r3, #-420]!
 6f4:	2e332e32 	mrccs	14, 1, r2, cr3, cr2, {1}
 6f8:	63672f36 	cmnvs	r7, #216	; 0xd8
 6fc:	2e332d63 	cdpcs	13, 3, cr2, cr3, cr3, {3}
 700:	2f352e34 	swics	0x00352e34
 704:	2f636367 	swics	0x00636367
 708:	666e6f63 	strvsbt	r6, [lr], -r3, ror #30
 70c:	612f6769 	teqvs	pc, r9, ror #14
 710:	00006d72 	andeq	r6, r0, r2, ror sp
 714:	65656569 	strvsb	r6, [r5, #-1385]!
 718:	2d343537 	cfldr32cs	mvfx3, [r4, #-220]!
 71c:	532e6664 	teqpl	lr, #104857600	; 0x6400000
 720:	00000100 	andeq	r0, r0, r0, lsl #2
 724:	02050000 	andeq	r0, r5, #0	; 0x0
 728:	3000a068 	andcc	sl, r0, r8, rrx
 72c:	0108c503 	tsteq	r8, r3, lsl #10
 730:	2c2e2c2c 	stccs	12, cr2, [lr], #-176
 734:	2c2c2c2c 	stccs	12, cr2, [ip], #-176
 738:	2c2c2c2c 	stccs	12, cr2, [ip], #-176
 73c:	2c2c2d2c 	stccs	13, cr2, [ip], #-176
 740:	2c2c2c2c 	stccs	12, cr2, [ip], #-176
 744:	2c2d2c2d 	stccs	12, cr2, [sp], #-180
 748:	2c2d2c2c 	stccs	12, cr2, [sp], #-176
 74c:	01000202 	tsteq	r0, r2, lsl #4
 750:	00001601 	andeq	r1, r0, r1, lsl #12
 754:	10000200 	andne	r0, r0, r0, lsl #4
 758:	02000000 	andeq	r0, r0, #0	; 0x0
 75c:	0a0efb01 	beq	3bf368 <__code_start-0x2fc40c98>
 760:	01010100 	tsteq	r1, r0, lsl #2
 764:	00000001 	andeq	r0, r0, r1
 768:	2a000001 	bcs	774 <__code_start-0x2ffff88c>
 76c:	02000001 	andeq	r0, r0, #1	; 0x1
 770:	00008c00 	andeq	r8, r0, r0, lsl #24
 774:	fb010200 	blx	40f7e <__code_start-0x2ffbf082>
 778:	01000a0e 	tsteq	r0, lr, lsl #20
 77c:	00010101 	andeq	r0, r1, r1, lsl #2
 780:	2f010000 	swics	0x00010000
 784:	6b726f77 	blvs	1c9c568 <__code_start-0x2e363a98>
 788:	6f6f742f 	swivs	0x006f742f
 78c:	632f736c 	teqvs	pc, #-1342177279	; 0xb0000001
 790:	74616572 	strvcbt	r6, [r1], #-1394
 794:	72635f65 	rsbvc	r5, r3, #404	; 0x194
 798:	7473736f 	ldrvcbt	r7, [r3], #-879
 79c:	736c6f6f 	cmnvc	ip, #444	; 0x1bc
 7a0:	6f72632f 	swivs	0x0072632f
 7a4:	6f747373 	swivs	0x00747373
 7a8:	302d6c6f 	eorcc	r6, sp, pc, ror #24
 7ac:	2f33342e 	swics	0x0033342e
 7b0:	6c697562 	cfstr64vs	mvdx7, [r9], #-392
 7b4:	72612f64 	rsbvc	r2, r1, #400	; 0x190
 7b8:	696c2d6d 	stmvsdb	ip!, {r0, r2, r3, r5, r6, r8, sl, fp, sp}^
 7bc:	2f78756e 	swics	0x0078756e
 7c0:	2d636367 	stccsl	3, cr6, [r3, #-412]!
 7c4:	2e342e33 	mrccs	14, 1, r2, cr4, cr3, {1}
 7c8:	6c672d35 	stcvsl	13, cr2, [r7], #-212
 7cc:	2d636269 	sfmcs	f6, 2, [r3, #-420]!
 7d0:	2e332e32 	mrccs	14, 1, r2, cr3, cr2, {1}
 7d4:	63672f36 	cmnvs	r7, #216	; 0xd8
 7d8:	2e332d63 	cdpcs	13, 3, cr2, cr3, cr3, {3}
 7dc:	2f352e34 	swics	0x00352e34
 7e0:	2f636367 	swics	0x00636367
 7e4:	666e6f63 	strvsbt	r6, [lr], -r3, ror #30
 7e8:	612f6769 	teqvs	pc, r9, ror #14
 7ec:	00006d72 	andeq	r6, r0, r2, ror sp
 7f0:	65656569 	strvsb	r6, [r5, #-1385]!
 7f4:	2d343537 	cfldr32cs	mvfx3, [r4, #-220]!
 7f8:	532e6673 	teqpl	lr, #120586240	; 0x7300000
 7fc:	00000100 	andeq	r0, r0, r0, lsl #2
 800:	02050000 	andeq	r0, r5, #0	; 0x0
 804:	3000a0dc 	ldrccd	sl, [r0], -ip
 808:	33013503 	tstcc	r1, #12582912	; 0xc00000
 80c:	2c2f2c2c 	stccs	12, cr2, [pc], #-176
 810:	2c2e2c2c 	stccs	12, cr2, [lr], #-176
 814:	2c2c2e2c 	stccs	14, cr2, [ip], #-176
 818:	2c2c2c2f 	stccs	12, cr2, [ip], #-188
 81c:	2c302c2c 	ldccs	12, cr2, [r0], #-176
 820:	2c2c2c2e 	stccs	12, cr2, [ip], #-184
 824:	2c2c2c2c 	stccs	12, cr2, [ip], #-176
 828:	2c312c2f 	ldccs	12, cr2, [r1], #-188
 82c:	2e2c2c2c 	cdpcs	12, 2, cr2, cr12, cr12, {1}
 830:	2f2d2c2c 	swics	0x002d2c2c
 834:	2f2c2c2c 	swics	0x002c2c2c
 838:	2c2c2c2c 	stccs	12, cr2, [ip], #-176
 83c:	2c2c2e2c 	stccs	14, cr2, [ip], #-176
 840:	312c2c2d 	teqcc	ip, sp, lsr #24
 844:	2c2f2c2c 	stccs	12, cr2, [pc], #-176
 848:	2c2f2c2e 	stccs	12, cr2, [pc], #-184
 84c:	2c332c2c 	ldccs	12, cr2, [r3], #-176
 850:	2c2c2c2c 	stccs	12, cr2, [ip], #-176
 854:	2c2c2c2c 	stccs	12, cr2, [ip], #-176
 858:	2c2c2c2c 	stccs	12, cr2, [ip], #-176
 85c:	032c2c2c 	teqeq	ip, #11264	; 0x2c00
 860:	2c2c2b0d 	stccs	11, cr2, [ip], #-52
 864:	2c2c302c 	stccs	0, cr3, [ip], #-176
 868:	2f2c2c2c 	swics	0x002c2c2c
 86c:	2c2c2c2c 	stccs	12, cr2, [ip], #-176
 870:	2c2c2f2c 	stccs	15, cr2, [ip], #-176
 874:	2c2b0903 	stccs	9, cr0, [fp], #-12
 878:	2c2c2c2c 	stccs	12, cr2, [ip], #-176
 87c:	312c2c2c 	teqcc	ip, ip, lsr #24
 880:	2d2c2e2c 	stccs	14, cr2, [ip, #-176]!
 884:	2c2c2d2c 	stccs	13, cr2, [ip], #-176
 888:	2c2c2e2c 	stccs	14, cr2, [ip], #-176
 88c:	2c2c2c2c 	stccs	12, cr2, [ip], #-176
 890:	2c2c2c2c 	stccs	12, cr2, [ip], #-176
 894:	01000202 	tsteq	r0, r2, lsl #4
 898:	00001601 	andeq	r1, r0, r1, lsl #12
 89c:	10000200 	andne	r0, r0, r0, lsl #4
 8a0:	02000000 	andeq	r0, r0, #0	; 0x0
 8a4:	0a0efb01 	beq	3bf4b0 <__code_start-0x2fc40b50>
 8a8:	01010100 	tsteq	r1, r0, lsl #2
 8ac:	00000001 	andeq	r0, r0, r1
 8b0:	7a000001 	bvc	8bc <__code_start-0x2ffff744>
 8b4:	02000001 	andeq	r0, r0, #1	; 0x1
 8b8:	00008c00 	andeq	r8, r0, r0, lsl #24
 8bc:	fb010200 	blx	410c6 <__code_start-0x2ffbef3a>
 8c0:	01000a0e 	tsteq	r0, lr, lsl #20
 8c4:	00010101 	andeq	r0, r1, r1, lsl #2
 8c8:	2f010000 	swics	0x00010000
 8cc:	6b726f77 	blvs	1c9c6b0 <__code_start-0x2e363950>
 8d0:	6f6f742f 	swivs	0x006f742f
 8d4:	632f736c 	teqvs	pc, #-1342177279	; 0xb0000001
 8d8:	74616572 	strvcbt	r6, [r1], #-1394
 8dc:	72635f65 	rsbvc	r5, r3, #404	; 0x194
 8e0:	7473736f 	ldrvcbt	r7, [r3], #-879
 8e4:	736c6f6f 	cmnvc	ip, #444	; 0x1bc
 8e8:	6f72632f 	swivs	0x0072632f
 8ec:	6f747373 	swivs	0x00747373
 8f0:	302d6c6f 	eorcc	r6, sp, pc, ror #24
 8f4:	2f33342e 	swics	0x0033342e
 8f8:	6c697562 	cfstr64vs	mvdx7, [r9], #-392
 8fc:	72612f64 	rsbvc	r2, r1, #400	; 0x190
 900:	696c2d6d 	stmvsdb	ip!, {r0, r2, r3, r5, r6, r8, sl, fp, sp}^
 904:	2f78756e 	swics	0x0078756e
 908:	2d636367 	stccsl	3, cr6, [r3, #-412]!
 90c:	2e342e33 	mrccs	14, 1, r2, cr4, cr3, {1}
 910:	6c672d35 	stcvsl	13, cr2, [r7], #-212
 914:	2d636269 	sfmcs	f6, 2, [r3, #-420]!
 918:	2e332e32 	mrccs	14, 1, r2, cr3, cr2, {1}
 91c:	63672f36 	cmnvs	r7, #216	; 0xd8
 920:	2e332d63 	cdpcs	13, 3, cr2, cr3, cr3, {3}
 924:	2f352e34 	swics	0x00352e34
 928:	2f636367 	swics	0x00636367
 92c:	666e6f63 	strvsbt	r6, [lr], -r3, ror #30
 930:	612f6769 	teqvs	pc, r9, ror #14
 934:	00006d72 	andeq	r6, r0, r2, ror sp
 938:	65656569 	strvsb	r6, [r5, #-1385]!
 93c:	2d343537 	cfldr32cs	mvfx3, [r4, #-220]!
 940:	532e6673 	teqpl	lr, #120586240	; 0x7300000
 944:	00000100 	andeq	r0, r0, r0, lsl #2
 948:	02050000 	andeq	r0, r5, #0	; 0x0
 94c:	3000a2f4 	strccd	sl, [r0], -r4
 950:	0102ae03 	tsteq	r2, r3, lsl #28
 954:	2c2e2c2c 	stccs	12, cr2, [lr], #-176
 958:	2c2c2e2c 	stccs	14, cr2, [ip], #-176
 95c:	2d2c2c30 	stccs	12, cr2, [ip, #-192]!
 960:	2c2e2c2e 	stccs	12, cr2, [lr], #-184
 964:	2c312c2c 	ldccs	12, cr2, [r1], #-176
 968:	2c2c2c2c 	stccs	12, cr2, [ip], #-176
 96c:	2c2c2c2c 	stccs	12, cr2, [ip], #-176
 970:	09032c2c 	stmeqdb	r3, {r2, r3, r5, sl, fp, sp}
 974:	2c2f2c2b 	stccs	12, cr2, [pc], #-172
 978:	2c2e2c2c 	stccs	12, cr2, [lr], #-176
 97c:	2c2e2c2f 	stccs	12, cr2, [lr], #-188
 980:	2e2c2f2c 	cdpcs	15, 2, cr2, cr12, cr12, {1}
 984:	2c2c2e2c 	stccs	14, cr2, [ip], #-176
 988:	2f2c2c2f 	swics	0x002c2c2f
 98c:	2c2c2e2c 	stccs	14, cr2, [ip], #-176
 990:	2c2c2c2e 	stccs	12, cr2, [ip], #-184
 994:	2c2c2c2c 	stccs	12, cr2, [ip], #-176
 998:	2c2c2c30 	stccs	12, cr2, [ip], #-192
 99c:	2c2c2c2c 	stccs	12, cr2, [ip], #-176
 9a0:	2c2c2c30 	stccs	12, cr2, [ip], #-192
 9a4:	2c2c2c2c 	stccs	12, cr2, [ip], #-176
 9a8:	2c2c2c2c 	stccs	12, cr2, [ip], #-176
 9ac:	2f2c2c2c 	swics	0x002c2c2c
 9b0:	2c2c2c2c 	stccs	12, cr2, [ip], #-176
 9b4:	2c2c2c2c 	stccs	12, cr2, [ip], #-176
 9b8:	2c2c2c2c 	stccs	12, cr2, [ip], #-176
 9bc:	2c2c2f2f 	stccs	15, cr2, [ip], #-188
 9c0:	2c2c2f2c 	stccs	15, cr2, [ip], #-176
 9c4:	2e2c2c32 	mcrcs	12, 1, r2, cr12, cr2, {1}
 9c8:	2c2c2c2c 	stccs	12, cr2, [ip], #-176
 9cc:	2d2c2c30 	stccs	12, cr2, [ip, #-192]!
 9d0:	2c2c2f2e 	stccs	15, cr2, [ip], #-184
 9d4:	2e2c2c2c 	cdpcs	12, 2, cr2, cr12, cr12, {1}
 9d8:	2e2c2c2e 	cdpcs	12, 2, cr2, cr12, cr14, {1}
 9dc:	2c2c2c2c 	stccs	12, cr2, [ip], #-176
 9e0:	2c2c2c2e 	stccs	12, cr2, [ip], #-184
 9e4:	2c2c2c2c 	stccs	12, cr2, [ip], #-176
 9e8:	2c2c2c2c 	stccs	12, cr2, [ip], #-176
 9ec:	2c2c2c2c 	stccs	12, cr2, [ip], #-176
 9f0:	2c2e2c2e 	stccs	12, cr2, [lr], #-184
 9f4:	2c2c2e2c 	stccs	14, cr2, [ip], #-176
 9f8:	2c2c2c2f 	stccs	12, cr2, [ip], #-188
 9fc:	2c2c2c2c 	stccs	12, cr2, [ip], #-176
 a00:	2c2c2c2c 	stccs	12, cr2, [ip], #-176
 a04:	2c2c302c 	stccs	0, cr3, [ip], #-176
 a08:	2c302c2c 	ldccs	12, cr2, [r0], #-176
 a0c:	2c2c2c2c 	stccs	12, cr2, [ip], #-176
 a10:	2c2c2c2c 	stccs	12, cr2, [ip], #-176
 a14:	2c2c2c2c 	stccs	12, cr2, [ip], #-176
 a18:	2c2c2f2c 	stccs	15, cr2, [ip], #-176
 a1c:	2c2c2c2c 	stccs	12, cr2, [ip], #-176
 a20:	2c2c2c2c 	stccs	12, cr2, [ip], #-176
 a24:	2d2c2c2c 	stccs	12, cr2, [ip, #-176]!
 a28:	2c2c2c2c 	stccs	12, cr2, [ip], #-176
 a2c:	01000202 	tsteq	r0, r2, lsl #4
 a30:	00001601 	andeq	r1, r0, r1, lsl #12
 a34:	10000200 	andne	r0, r0, r0, lsl #4
 a38:	02000000 	andeq	r0, r0, #0	; 0x0
 a3c:	0a0efb01 	beq	3bf648 <__code_start-0x2fc409b8>
 a40:	01010100 	tsteq	r1, r0, lsl #2
 a44:	00000001 	andeq	r0, r0, r1
 a48:	16000001 	strne	r0, [r0], -r1
 a4c:	02000000 	andeq	r0, r0, #0	; 0x0
 a50:	00001000 	andeq	r1, r0, r0
 a54:	fb010200 	blx	4125e <__code_start-0x2ffbeda2>
 a58:	01000a0e 	tsteq	r0, lr, lsl #20
 a5c:	00010101 	andeq	r0, r1, r1, lsl #2
 a60:	00010000 	andeq	r0, r1, r0
 a64:	00001600 	andeq	r1, r0, r0, lsl #12
 a68:	10000200 	andne	r0, r0, r0, lsl #4
 a6c:	02000000 	andeq	r0, r0, #0	; 0x0
 a70:	0a0efb01 	beq	3bf67c <__code_start-0x2fc40984>
 a74:	01010100 	tsteq	r1, r0, lsl #2
 a78:	00000001 	andeq	r0, r0, r1
 a7c:	16000001 	strne	r0, [r0], -r1
 a80:	02000000 	andeq	r0, r0, #0	; 0x0
 a84:	00001000 	andeq	r1, r0, r0
 a88:	fb010200 	blx	41292 <__code_start-0x2ffbed6e>
 a8c:	01000a0e 	tsteq	r0, lr, lsl #20
 a90:	00010101 	andeq	r0, r1, r1, lsl #2
 a94:	00010000 	andeq	r0, r1, r0
	...
